ARM GAS  /tmp/ccaXZQ0T.s 			page 1


   1              		.cpu cortex-m4
   2              		.eabi_attribute 27, 1
   3              		.eabi_attribute 28, 1
   4              		.eabi_attribute 20, 1
   5              		.eabi_attribute 21, 1
   6              		.eabi_attribute 23, 3
   7              		.eabi_attribute 24, 1
   8              		.eabi_attribute 25, 1
   9              		.eabi_attribute 26, 1
  10              		.eabi_attribute 30, 6
  11              		.eabi_attribute 34, 1
  12              		.eabi_attribute 18, 4
  13              		.file	"stm32f4xx_ll_usb.c"
  14              		.text
  15              	.Ltext0:
  16              		.cfi_sections	.debug_frame
  17              		.section	.text.USB_CoreInit,"ax",%progbits
  18              		.align	1
  19              		.global	USB_CoreInit
  20              		.arch armv7e-m
  21              		.syntax unified
  22              		.thumb
  23              		.thumb_func
  24              		.fpu fpv4-sp-d16
  26              	USB_CoreInit:
  27              	.LFB130:
  28              		.file 1 "Drivers/STM32F4xx_HAL_Driver/Src/stm32f4xx_ll_usb.c"
   1:Drivers/STM32F4xx_HAL_Driver/Src/stm32f4xx_ll_usb.c **** /**
   2:Drivers/STM32F4xx_HAL_Driver/Src/stm32f4xx_ll_usb.c ****   ******************************************************************************
   3:Drivers/STM32F4xx_HAL_Driver/Src/stm32f4xx_ll_usb.c ****   * @file    stm32f4xx_ll_usb.c
   4:Drivers/STM32F4xx_HAL_Driver/Src/stm32f4xx_ll_usb.c ****   * @author  MCD Application Team
   5:Drivers/STM32F4xx_HAL_Driver/Src/stm32f4xx_ll_usb.c ****   * @brief   USB Low Layer HAL module driver.
   6:Drivers/STM32F4xx_HAL_Driver/Src/stm32f4xx_ll_usb.c ****   *
   7:Drivers/STM32F4xx_HAL_Driver/Src/stm32f4xx_ll_usb.c ****   *          This file provides firmware functions to manage the following
   8:Drivers/STM32F4xx_HAL_Driver/Src/stm32f4xx_ll_usb.c ****   *          functionalities of the USB Peripheral Controller:
   9:Drivers/STM32F4xx_HAL_Driver/Src/stm32f4xx_ll_usb.c ****   *           + Initialization/de-initialization functions
  10:Drivers/STM32F4xx_HAL_Driver/Src/stm32f4xx_ll_usb.c ****   *           + I/O operation functions
  11:Drivers/STM32F4xx_HAL_Driver/Src/stm32f4xx_ll_usb.c ****   *           + Peripheral Control functions
  12:Drivers/STM32F4xx_HAL_Driver/Src/stm32f4xx_ll_usb.c ****   *           + Peripheral State functions
  13:Drivers/STM32F4xx_HAL_Driver/Src/stm32f4xx_ll_usb.c ****   *
  14:Drivers/STM32F4xx_HAL_Driver/Src/stm32f4xx_ll_usb.c ****   @verbatim
  15:Drivers/STM32F4xx_HAL_Driver/Src/stm32f4xx_ll_usb.c ****   ==============================================================================
  16:Drivers/STM32F4xx_HAL_Driver/Src/stm32f4xx_ll_usb.c ****                     ##### How to use this driver #####
  17:Drivers/STM32F4xx_HAL_Driver/Src/stm32f4xx_ll_usb.c ****   ==============================================================================
  18:Drivers/STM32F4xx_HAL_Driver/Src/stm32f4xx_ll_usb.c ****     [..]
  19:Drivers/STM32F4xx_HAL_Driver/Src/stm32f4xx_ll_usb.c ****       (#) Fill parameters of Init structure in USB_OTG_CfgTypeDef structure.
  20:Drivers/STM32F4xx_HAL_Driver/Src/stm32f4xx_ll_usb.c **** 
  21:Drivers/STM32F4xx_HAL_Driver/Src/stm32f4xx_ll_usb.c ****       (#) Call USB_CoreInit() API to initialize the USB Core peripheral.
  22:Drivers/STM32F4xx_HAL_Driver/Src/stm32f4xx_ll_usb.c **** 
  23:Drivers/STM32F4xx_HAL_Driver/Src/stm32f4xx_ll_usb.c ****       (#) The upper HAL HCD/PCD driver will call the right routines for its internal processes.
  24:Drivers/STM32F4xx_HAL_Driver/Src/stm32f4xx_ll_usb.c **** 
  25:Drivers/STM32F4xx_HAL_Driver/Src/stm32f4xx_ll_usb.c ****   @endverbatim
  26:Drivers/STM32F4xx_HAL_Driver/Src/stm32f4xx_ll_usb.c ****   ******************************************************************************
  27:Drivers/STM32F4xx_HAL_Driver/Src/stm32f4xx_ll_usb.c ****   * @attention
  28:Drivers/STM32F4xx_HAL_Driver/Src/stm32f4xx_ll_usb.c ****   *
  29:Drivers/STM32F4xx_HAL_Driver/Src/stm32f4xx_ll_usb.c ****   * <h2><center>&copy; Copyright (c) 2016 STMicroelectronics.
  30:Drivers/STM32F4xx_HAL_Driver/Src/stm32f4xx_ll_usb.c ****   * All rights reserved.</center></h2>
ARM GAS  /tmp/ccaXZQ0T.s 			page 2


  31:Drivers/STM32F4xx_HAL_Driver/Src/stm32f4xx_ll_usb.c ****   *
  32:Drivers/STM32F4xx_HAL_Driver/Src/stm32f4xx_ll_usb.c ****   * This software component is licensed by ST under BSD 3-Clause license,
  33:Drivers/STM32F4xx_HAL_Driver/Src/stm32f4xx_ll_usb.c ****   * the "License"; You may not use this file except in compliance with the
  34:Drivers/STM32F4xx_HAL_Driver/Src/stm32f4xx_ll_usb.c ****   * License. You may obtain a copy of the License at:
  35:Drivers/STM32F4xx_HAL_Driver/Src/stm32f4xx_ll_usb.c ****   *                        opensource.org/licenses/BSD-3-Clause
  36:Drivers/STM32F4xx_HAL_Driver/Src/stm32f4xx_ll_usb.c ****   *
  37:Drivers/STM32F4xx_HAL_Driver/Src/stm32f4xx_ll_usb.c ****   ******************************************************************************
  38:Drivers/STM32F4xx_HAL_Driver/Src/stm32f4xx_ll_usb.c ****   */
  39:Drivers/STM32F4xx_HAL_Driver/Src/stm32f4xx_ll_usb.c **** 
  40:Drivers/STM32F4xx_HAL_Driver/Src/stm32f4xx_ll_usb.c **** /* Includes ------------------------------------------------------------------*/
  41:Drivers/STM32F4xx_HAL_Driver/Src/stm32f4xx_ll_usb.c **** #include "stm32f4xx_hal.h"
  42:Drivers/STM32F4xx_HAL_Driver/Src/stm32f4xx_ll_usb.c **** 
  43:Drivers/STM32F4xx_HAL_Driver/Src/stm32f4xx_ll_usb.c **** /** @addtogroup STM32F4xx_LL_USB_DRIVER
  44:Drivers/STM32F4xx_HAL_Driver/Src/stm32f4xx_ll_usb.c ****   * @{
  45:Drivers/STM32F4xx_HAL_Driver/Src/stm32f4xx_ll_usb.c ****   */
  46:Drivers/STM32F4xx_HAL_Driver/Src/stm32f4xx_ll_usb.c **** 
  47:Drivers/STM32F4xx_HAL_Driver/Src/stm32f4xx_ll_usb.c **** #if defined (HAL_PCD_MODULE_ENABLED) || defined (HAL_HCD_MODULE_ENABLED)
  48:Drivers/STM32F4xx_HAL_Driver/Src/stm32f4xx_ll_usb.c **** #if defined (USB_OTG_FS) || defined (USB_OTG_HS)
  49:Drivers/STM32F4xx_HAL_Driver/Src/stm32f4xx_ll_usb.c **** /* Private typedef -----------------------------------------------------------*/
  50:Drivers/STM32F4xx_HAL_Driver/Src/stm32f4xx_ll_usb.c **** /* Private define ------------------------------------------------------------*/
  51:Drivers/STM32F4xx_HAL_Driver/Src/stm32f4xx_ll_usb.c **** /* Private macro -------------------------------------------------------------*/
  52:Drivers/STM32F4xx_HAL_Driver/Src/stm32f4xx_ll_usb.c **** /* Private variables ---------------------------------------------------------*/
  53:Drivers/STM32F4xx_HAL_Driver/Src/stm32f4xx_ll_usb.c **** /* Private function prototypes -----------------------------------------------*/
  54:Drivers/STM32F4xx_HAL_Driver/Src/stm32f4xx_ll_usb.c **** /* Private functions ---------------------------------------------------------*/
  55:Drivers/STM32F4xx_HAL_Driver/Src/stm32f4xx_ll_usb.c **** #if defined (USB_OTG_FS) || defined (USB_OTG_HS)
  56:Drivers/STM32F4xx_HAL_Driver/Src/stm32f4xx_ll_usb.c **** static HAL_StatusTypeDef USB_CoreReset(USB_OTG_GlobalTypeDef *USBx);
  57:Drivers/STM32F4xx_HAL_Driver/Src/stm32f4xx_ll_usb.c **** 
  58:Drivers/STM32F4xx_HAL_Driver/Src/stm32f4xx_ll_usb.c **** /* Exported functions --------------------------------------------------------*/
  59:Drivers/STM32F4xx_HAL_Driver/Src/stm32f4xx_ll_usb.c **** /** @defgroup USB_LL_Exported_Functions USB Low Layer Exported Functions
  60:Drivers/STM32F4xx_HAL_Driver/Src/stm32f4xx_ll_usb.c ****   * @{
  61:Drivers/STM32F4xx_HAL_Driver/Src/stm32f4xx_ll_usb.c ****   */
  62:Drivers/STM32F4xx_HAL_Driver/Src/stm32f4xx_ll_usb.c **** 
  63:Drivers/STM32F4xx_HAL_Driver/Src/stm32f4xx_ll_usb.c **** /** @defgroup USB_LL_Exported_Functions_Group1 Initialization/de-initialization functions
  64:Drivers/STM32F4xx_HAL_Driver/Src/stm32f4xx_ll_usb.c ****  *  @brief    Initialization and Configuration functions
  65:Drivers/STM32F4xx_HAL_Driver/Src/stm32f4xx_ll_usb.c ****  *
  66:Drivers/STM32F4xx_HAL_Driver/Src/stm32f4xx_ll_usb.c **** @verbatim
  67:Drivers/STM32F4xx_HAL_Driver/Src/stm32f4xx_ll_usb.c ****  ===============================================================================
  68:Drivers/STM32F4xx_HAL_Driver/Src/stm32f4xx_ll_usb.c ****                       ##### Initialization/de-initialization functions #####
  69:Drivers/STM32F4xx_HAL_Driver/Src/stm32f4xx_ll_usb.c ****  ===============================================================================
  70:Drivers/STM32F4xx_HAL_Driver/Src/stm32f4xx_ll_usb.c **** 
  71:Drivers/STM32F4xx_HAL_Driver/Src/stm32f4xx_ll_usb.c **** @endverbatim
  72:Drivers/STM32F4xx_HAL_Driver/Src/stm32f4xx_ll_usb.c ****   * @{
  73:Drivers/STM32F4xx_HAL_Driver/Src/stm32f4xx_ll_usb.c ****   */
  74:Drivers/STM32F4xx_HAL_Driver/Src/stm32f4xx_ll_usb.c **** 
  75:Drivers/STM32F4xx_HAL_Driver/Src/stm32f4xx_ll_usb.c **** /**
  76:Drivers/STM32F4xx_HAL_Driver/Src/stm32f4xx_ll_usb.c ****   * @brief  Initializes the USB Core
  77:Drivers/STM32F4xx_HAL_Driver/Src/stm32f4xx_ll_usb.c ****   * @param  USBx USB Instance
  78:Drivers/STM32F4xx_HAL_Driver/Src/stm32f4xx_ll_usb.c ****   * @param  cfg pointer to a USB_OTG_CfgTypeDef structure that contains
  79:Drivers/STM32F4xx_HAL_Driver/Src/stm32f4xx_ll_usb.c ****   *         the configuration information for the specified USBx peripheral.
  80:Drivers/STM32F4xx_HAL_Driver/Src/stm32f4xx_ll_usb.c ****   * @retval HAL status
  81:Drivers/STM32F4xx_HAL_Driver/Src/stm32f4xx_ll_usb.c ****   */
  82:Drivers/STM32F4xx_HAL_Driver/Src/stm32f4xx_ll_usb.c **** HAL_StatusTypeDef USB_CoreInit(USB_OTG_GlobalTypeDef *USBx, USB_OTG_CfgTypeDef cfg)
  83:Drivers/STM32F4xx_HAL_Driver/Src/stm32f4xx_ll_usb.c **** {
  29              		.loc 1 83 1
  30              		.cfi_startproc
  31              		@ args = 56, pretend = 16, frame = 16
  32              		@ frame_needed = 1, uses_anonymous_args = 0
ARM GAS  /tmp/ccaXZQ0T.s 			page 3


  33 0000 84B0     		sub	sp, sp, #16
  34              	.LCFI0:
  35              		.cfi_def_cfa_offset 16
  36 0002 80B5     		push	{r7, lr}
  37              	.LCFI1:
  38              		.cfi_def_cfa_offset 24
  39              		.cfi_offset 7, -24
  40              		.cfi_offset 14, -20
  41 0004 84B0     		sub	sp, sp, #16
  42              	.LCFI2:
  43              		.cfi_def_cfa_offset 40
  44 0006 00AF     		add	r7, sp, #0
  45              	.LCFI3:
  46              		.cfi_def_cfa_register 7
  47 0008 7860     		str	r0, [r7, #4]
  48 000a 07F11C00 		add	r0, r7, #28
  49 000e 80E80E00 		stm	r0, {r1, r2, r3}
  84:Drivers/STM32F4xx_HAL_Driver/Src/stm32f4xx_ll_usb.c ****   HAL_StatusTypeDef ret;
  85:Drivers/STM32F4xx_HAL_Driver/Src/stm32f4xx_ll_usb.c **** 
  86:Drivers/STM32F4xx_HAL_Driver/Src/stm32f4xx_ll_usb.c ****   if (cfg.phy_itface == USB_OTG_ULPI_PHY)
  50              		.loc 1 86 10
  51 0012 3B6B     		ldr	r3, [r7, #48]
  52              		.loc 1 86 6
  53 0014 012B     		cmp	r3, #1
  54 0016 22D1     		bne	.L2
  87:Drivers/STM32F4xx_HAL_Driver/Src/stm32f4xx_ll_usb.c ****   {
  88:Drivers/STM32F4xx_HAL_Driver/Src/stm32f4xx_ll_usb.c ****     USBx->GCCFG &= ~(USB_OTG_GCCFG_PWRDWN);
  55              		.loc 1 88 17
  56 0018 7B68     		ldr	r3, [r7, #4]
  57 001a 9B6B     		ldr	r3, [r3, #56]
  58 001c 23F48032 		bic	r2, r3, #65536
  59 0020 7B68     		ldr	r3, [r7, #4]
  60 0022 9A63     		str	r2, [r3, #56]
  89:Drivers/STM32F4xx_HAL_Driver/Src/stm32f4xx_ll_usb.c **** 
  90:Drivers/STM32F4xx_HAL_Driver/Src/stm32f4xx_ll_usb.c ****     /* Init The ULPI Interface */
  91:Drivers/STM32F4xx_HAL_Driver/Src/stm32f4xx_ll_usb.c ****     USBx->GUSBCFG &= ~(USB_OTG_GUSBCFG_TSDPS | USB_OTG_GUSBCFG_ULPIFSLS | USB_OTG_GUSBCFG_PHYSEL);
  61              		.loc 1 91 19
  62 0024 7B68     		ldr	r3, [r7, #4]
  63 0026 DB68     		ldr	r3, [r3, #12]
  64 0028 23F48403 		bic	r3, r3, #4325376
  65 002c 23F04003 		bic	r3, r3, #64
  66 0030 7A68     		ldr	r2, [r7, #4]
  67 0032 D360     		str	r3, [r2, #12]
  92:Drivers/STM32F4xx_HAL_Driver/Src/stm32f4xx_ll_usb.c **** 
  93:Drivers/STM32F4xx_HAL_Driver/Src/stm32f4xx_ll_usb.c ****     /* Select vbus source */
  94:Drivers/STM32F4xx_HAL_Driver/Src/stm32f4xx_ll_usb.c ****     USBx->GUSBCFG &= ~(USB_OTG_GUSBCFG_ULPIEVBUSD | USB_OTG_GUSBCFG_ULPIEVBUSI);
  68              		.loc 1 94 19
  69 0034 7B68     		ldr	r3, [r7, #4]
  70 0036 DB68     		ldr	r3, [r3, #12]
  71 0038 23F44012 		bic	r2, r3, #3145728
  72 003c 7B68     		ldr	r3, [r7, #4]
  73 003e DA60     		str	r2, [r3, #12]
  95:Drivers/STM32F4xx_HAL_Driver/Src/stm32f4xx_ll_usb.c ****     if (cfg.use_external_vbus == 1U)
  74              		.loc 1 95 12
  75 0040 FB6C     		ldr	r3, [r7, #76]
  76              		.loc 1 95 8
  77 0042 012B     		cmp	r3, #1
ARM GAS  /tmp/ccaXZQ0T.s 			page 4


  78 0044 05D1     		bne	.L3
  96:Drivers/STM32F4xx_HAL_Driver/Src/stm32f4xx_ll_usb.c ****     {
  97:Drivers/STM32F4xx_HAL_Driver/Src/stm32f4xx_ll_usb.c ****       USBx->GUSBCFG |= USB_OTG_GUSBCFG_ULPIEVBUSD;
  79              		.loc 1 97 21
  80 0046 7B68     		ldr	r3, [r7, #4]
  81 0048 DB68     		ldr	r3, [r3, #12]
  82 004a 43F48012 		orr	r2, r3, #1048576
  83 004e 7B68     		ldr	r3, [r7, #4]
  84 0050 DA60     		str	r2, [r3, #12]
  85              	.L3:
  98:Drivers/STM32F4xx_HAL_Driver/Src/stm32f4xx_ll_usb.c ****     }
  99:Drivers/STM32F4xx_HAL_Driver/Src/stm32f4xx_ll_usb.c ****     /* Reset after a PHY select  */
 100:Drivers/STM32F4xx_HAL_Driver/Src/stm32f4xx_ll_usb.c ****     ret = USB_CoreReset(USBx);
  86              		.loc 1 100 11
  87 0052 7868     		ldr	r0, [r7, #4]
  88 0054 FFF7FEFF 		bl	USB_CoreReset
  89 0058 0346     		mov	r3, r0
  90 005a FB73     		strb	r3, [r7, #15]
  91 005c 1AE0     		b	.L4
  92              	.L2:
 101:Drivers/STM32F4xx_HAL_Driver/Src/stm32f4xx_ll_usb.c ****   }
 102:Drivers/STM32F4xx_HAL_Driver/Src/stm32f4xx_ll_usb.c ****   else /* FS interface (embedded Phy) */
 103:Drivers/STM32F4xx_HAL_Driver/Src/stm32f4xx_ll_usb.c ****   {
 104:Drivers/STM32F4xx_HAL_Driver/Src/stm32f4xx_ll_usb.c ****     /* Select FS Embedded PHY */
 105:Drivers/STM32F4xx_HAL_Driver/Src/stm32f4xx_ll_usb.c ****     USBx->GUSBCFG |= USB_OTG_GUSBCFG_PHYSEL;
  93              		.loc 1 105 19
  94 005e 7B68     		ldr	r3, [r7, #4]
  95 0060 DB68     		ldr	r3, [r3, #12]
  96 0062 43F04002 		orr	r2, r3, #64
  97 0066 7B68     		ldr	r3, [r7, #4]
  98 0068 DA60     		str	r2, [r3, #12]
 106:Drivers/STM32F4xx_HAL_Driver/Src/stm32f4xx_ll_usb.c **** 
 107:Drivers/STM32F4xx_HAL_Driver/Src/stm32f4xx_ll_usb.c ****     /* Reset after a PHY select and set Host mode */
 108:Drivers/STM32F4xx_HAL_Driver/Src/stm32f4xx_ll_usb.c ****     ret = USB_CoreReset(USBx);
  99              		.loc 1 108 11
 100 006a 7868     		ldr	r0, [r7, #4]
 101 006c FFF7FEFF 		bl	USB_CoreReset
 102 0070 0346     		mov	r3, r0
 103 0072 FB73     		strb	r3, [r7, #15]
 109:Drivers/STM32F4xx_HAL_Driver/Src/stm32f4xx_ll_usb.c **** 
 110:Drivers/STM32F4xx_HAL_Driver/Src/stm32f4xx_ll_usb.c ****     if (cfg.battery_charging_enable == 0U)
 104              		.loc 1 110 12
 105 0074 3B6C     		ldr	r3, [r7, #64]
 106              		.loc 1 110 8
 107 0076 002B     		cmp	r3, #0
 108 0078 06D1     		bne	.L5
 111:Drivers/STM32F4xx_HAL_Driver/Src/stm32f4xx_ll_usb.c ****     {
 112:Drivers/STM32F4xx_HAL_Driver/Src/stm32f4xx_ll_usb.c ****       /* Activate the USB Transceiver */
 113:Drivers/STM32F4xx_HAL_Driver/Src/stm32f4xx_ll_usb.c ****       USBx->GCCFG |= USB_OTG_GCCFG_PWRDWN;
 109              		.loc 1 113 19
 110 007a 7B68     		ldr	r3, [r7, #4]
 111 007c 9B6B     		ldr	r3, [r3, #56]
 112 007e 43F48032 		orr	r2, r3, #65536
 113 0082 7B68     		ldr	r3, [r7, #4]
 114 0084 9A63     		str	r2, [r3, #56]
 115 0086 05E0     		b	.L4
 116              	.L5:
ARM GAS  /tmp/ccaXZQ0T.s 			page 5


 114:Drivers/STM32F4xx_HAL_Driver/Src/stm32f4xx_ll_usb.c ****     }
 115:Drivers/STM32F4xx_HAL_Driver/Src/stm32f4xx_ll_usb.c ****     else
 116:Drivers/STM32F4xx_HAL_Driver/Src/stm32f4xx_ll_usb.c ****     {
 117:Drivers/STM32F4xx_HAL_Driver/Src/stm32f4xx_ll_usb.c ****       /* Deactivate the USB Transceiver */
 118:Drivers/STM32F4xx_HAL_Driver/Src/stm32f4xx_ll_usb.c ****       USBx->GCCFG &= ~(USB_OTG_GCCFG_PWRDWN);
 117              		.loc 1 118 19
 118 0088 7B68     		ldr	r3, [r7, #4]
 119 008a 9B6B     		ldr	r3, [r3, #56]
 120 008c 23F48032 		bic	r2, r3, #65536
 121 0090 7B68     		ldr	r3, [r7, #4]
 122 0092 9A63     		str	r2, [r3, #56]
 123              	.L4:
 119:Drivers/STM32F4xx_HAL_Driver/Src/stm32f4xx_ll_usb.c ****     }
 120:Drivers/STM32F4xx_HAL_Driver/Src/stm32f4xx_ll_usb.c ****   }
 121:Drivers/STM32F4xx_HAL_Driver/Src/stm32f4xx_ll_usb.c **** 
 122:Drivers/STM32F4xx_HAL_Driver/Src/stm32f4xx_ll_usb.c ****   if (cfg.dma_enable == 1U)
 124              		.loc 1 122 10
 125 0094 BB6A     		ldr	r3, [r7, #40]
 126              		.loc 1 122 6
 127 0096 012B     		cmp	r3, #1
 128 0098 0BD1     		bne	.L6
 123:Drivers/STM32F4xx_HAL_Driver/Src/stm32f4xx_ll_usb.c ****   {
 124:Drivers/STM32F4xx_HAL_Driver/Src/stm32f4xx_ll_usb.c ****     USBx->GAHBCFG |= USB_OTG_GAHBCFG_HBSTLEN_2;
 129              		.loc 1 124 19
 130 009a 7B68     		ldr	r3, [r7, #4]
 131 009c 9B68     		ldr	r3, [r3, #8]
 132 009e 43F00602 		orr	r2, r3, #6
 133 00a2 7B68     		ldr	r3, [r7, #4]
 134 00a4 9A60     		str	r2, [r3, #8]
 125:Drivers/STM32F4xx_HAL_Driver/Src/stm32f4xx_ll_usb.c ****     USBx->GAHBCFG |= USB_OTG_GAHBCFG_DMAEN;
 135              		.loc 1 125 19
 136 00a6 7B68     		ldr	r3, [r7, #4]
 137 00a8 9B68     		ldr	r3, [r3, #8]
 138 00aa 43F02002 		orr	r2, r3, #32
 139 00ae 7B68     		ldr	r3, [r7, #4]
 140 00b0 9A60     		str	r2, [r3, #8]
 141              	.L6:
 126:Drivers/STM32F4xx_HAL_Driver/Src/stm32f4xx_ll_usb.c ****   }
 127:Drivers/STM32F4xx_HAL_Driver/Src/stm32f4xx_ll_usb.c **** 
 128:Drivers/STM32F4xx_HAL_Driver/Src/stm32f4xx_ll_usb.c ****   return ret;
 142              		.loc 1 128 10
 143 00b2 FB7B     		ldrb	r3, [r7, #15]	@ zero_extendqisi2
 129:Drivers/STM32F4xx_HAL_Driver/Src/stm32f4xx_ll_usb.c **** }
 144              		.loc 1 129 1
 145 00b4 1846     		mov	r0, r3
 146 00b6 1037     		adds	r7, r7, #16
 147              	.LCFI4:
 148              		.cfi_def_cfa_offset 24
 149 00b8 BD46     		mov	sp, r7
 150              	.LCFI5:
 151              		.cfi_def_cfa_register 13
 152              		@ sp needed
 153 00ba BDE88040 		pop	{r7, lr}
 154              	.LCFI6:
 155              		.cfi_restore 14
 156              		.cfi_restore 7
 157              		.cfi_def_cfa_offset 16
ARM GAS  /tmp/ccaXZQ0T.s 			page 6


 158 00be 04B0     		add	sp, sp, #16
 159              	.LCFI7:
 160              		.cfi_def_cfa_offset 0
 161 00c0 7047     		bx	lr
 162              		.cfi_endproc
 163              	.LFE130:
 165              		.section	.text.USB_SetTurnaroundTime,"ax",%progbits
 166              		.align	1
 167              		.global	USB_SetTurnaroundTime
 168              		.syntax unified
 169              		.thumb
 170              		.thumb_func
 171              		.fpu fpv4-sp-d16
 173              	USB_SetTurnaroundTime:
 174              	.LFB131:
 130:Drivers/STM32F4xx_HAL_Driver/Src/stm32f4xx_ll_usb.c **** 
 131:Drivers/STM32F4xx_HAL_Driver/Src/stm32f4xx_ll_usb.c **** 
 132:Drivers/STM32F4xx_HAL_Driver/Src/stm32f4xx_ll_usb.c **** /**
 133:Drivers/STM32F4xx_HAL_Driver/Src/stm32f4xx_ll_usb.c ****   * @brief  Set the USB turnaround time
 134:Drivers/STM32F4xx_HAL_Driver/Src/stm32f4xx_ll_usb.c ****   * @param  USBx USB Instance
 135:Drivers/STM32F4xx_HAL_Driver/Src/stm32f4xx_ll_usb.c ****   * @param  hclk: AHB clock frequency
 136:Drivers/STM32F4xx_HAL_Driver/Src/stm32f4xx_ll_usb.c ****   * @retval USB turnaround time In PHY Clocks number
 137:Drivers/STM32F4xx_HAL_Driver/Src/stm32f4xx_ll_usb.c ****   */
 138:Drivers/STM32F4xx_HAL_Driver/Src/stm32f4xx_ll_usb.c **** HAL_StatusTypeDef USB_SetTurnaroundTime(USB_OTG_GlobalTypeDef *USBx,
 139:Drivers/STM32F4xx_HAL_Driver/Src/stm32f4xx_ll_usb.c ****                                         uint32_t hclk, uint8_t speed)
 140:Drivers/STM32F4xx_HAL_Driver/Src/stm32f4xx_ll_usb.c **** {
 175              		.loc 1 140 1
 176              		.cfi_startproc
 177              		@ args = 0, pretend = 0, frame = 24
 178              		@ frame_needed = 1, uses_anonymous_args = 0
 179              		@ link register save eliminated.
 180 0000 80B4     		push	{r7}
 181              	.LCFI8:
 182              		.cfi_def_cfa_offset 4
 183              		.cfi_offset 7, -4
 184 0002 87B0     		sub	sp, sp, #28
 185              	.LCFI9:
 186              		.cfi_def_cfa_offset 32
 187 0004 00AF     		add	r7, sp, #0
 188              	.LCFI10:
 189              		.cfi_def_cfa_register 7
 190 0006 F860     		str	r0, [r7, #12]
 191 0008 B960     		str	r1, [r7, #8]
 192 000a 1346     		mov	r3, r2
 193 000c FB71     		strb	r3, [r7, #7]
 141:Drivers/STM32F4xx_HAL_Driver/Src/stm32f4xx_ll_usb.c ****   uint32_t UsbTrd;
 142:Drivers/STM32F4xx_HAL_Driver/Src/stm32f4xx_ll_usb.c **** 
 143:Drivers/STM32F4xx_HAL_Driver/Src/stm32f4xx_ll_usb.c ****   /* The USBTRD is configured according to the tables below, depending on AHB frequency
 144:Drivers/STM32F4xx_HAL_Driver/Src/stm32f4xx_ll_usb.c ****   used by application. In the low AHB frequency range it is used to stretch enough the USB response
 145:Drivers/STM32F4xx_HAL_Driver/Src/stm32f4xx_ll_usb.c ****   time to IN tokens, the USB turnaround time, so to compensate for the longer AHB read access
 146:Drivers/STM32F4xx_HAL_Driver/Src/stm32f4xx_ll_usb.c ****   latency to the Data FIFO */
 147:Drivers/STM32F4xx_HAL_Driver/Src/stm32f4xx_ll_usb.c ****   if (speed == USBD_FS_SPEED)
 194              		.loc 1 147 6
 195 000e FB79     		ldrb	r3, [r7, #7]	@ zero_extendqisi2
 196 0010 022B     		cmp	r3, #2
 197 0012 65D1     		bne	.L9
 148:Drivers/STM32F4xx_HAL_Driver/Src/stm32f4xx_ll_usb.c ****   {
ARM GAS  /tmp/ccaXZQ0T.s 			page 7


 149:Drivers/STM32F4xx_HAL_Driver/Src/stm32f4xx_ll_usb.c ****     if ((hclk >= 14200000U) && (hclk < 15000000U))
 198              		.loc 1 149 8
 199 0014 BB68     		ldr	r3, [r7, #8]
 200 0016 414A     		ldr	r2, .L23
 201 0018 9342     		cmp	r3, r2
 202 001a 06D9     		bls	.L10
 203              		.loc 1 149 29 discriminator 1
 204 001c BB68     		ldr	r3, [r7, #8]
 205 001e 404A     		ldr	r2, .L23+4
 206 0020 9342     		cmp	r3, r2
 207 0022 02D8     		bhi	.L10
 150:Drivers/STM32F4xx_HAL_Driver/Src/stm32f4xx_ll_usb.c ****     {
 151:Drivers/STM32F4xx_HAL_Driver/Src/stm32f4xx_ll_usb.c ****       /* hclk Clock Range between 14.2-15 MHz */
 152:Drivers/STM32F4xx_HAL_Driver/Src/stm32f4xx_ll_usb.c ****       UsbTrd = 0xFU;
 208              		.loc 1 152 14
 209 0024 0F23     		movs	r3, #15
 210 0026 7B61     		str	r3, [r7, #20]
 211 0028 62E0     		b	.L20
 212              	.L10:
 153:Drivers/STM32F4xx_HAL_Driver/Src/stm32f4xx_ll_usb.c ****     }
 154:Drivers/STM32F4xx_HAL_Driver/Src/stm32f4xx_ll_usb.c ****     else if ((hclk >= 15000000U) && (hclk < 16000000U))
 213              		.loc 1 154 13
 214 002a BB68     		ldr	r3, [r7, #8]
 215 002c 3C4A     		ldr	r2, .L23+4
 216 002e 9342     		cmp	r3, r2
 217 0030 06D9     		bls	.L12
 218              		.loc 1 154 34 discriminator 1
 219 0032 BB68     		ldr	r3, [r7, #8]
 220 0034 3B4A     		ldr	r2, .L23+8
 221 0036 9342     		cmp	r3, r2
 222 0038 02D8     		bhi	.L12
 155:Drivers/STM32F4xx_HAL_Driver/Src/stm32f4xx_ll_usb.c ****     {
 156:Drivers/STM32F4xx_HAL_Driver/Src/stm32f4xx_ll_usb.c ****       /* hclk Clock Range between 15-16 MHz */
 157:Drivers/STM32F4xx_HAL_Driver/Src/stm32f4xx_ll_usb.c ****       UsbTrd = 0xEU;
 223              		.loc 1 157 14
 224 003a 0E23     		movs	r3, #14
 225 003c 7B61     		str	r3, [r7, #20]
 226 003e 57E0     		b	.L20
 227              	.L12:
 158:Drivers/STM32F4xx_HAL_Driver/Src/stm32f4xx_ll_usb.c ****     }
 159:Drivers/STM32F4xx_HAL_Driver/Src/stm32f4xx_ll_usb.c ****     else if ((hclk >= 16000000U) && (hclk < 17200000U))
 228              		.loc 1 159 13
 229 0040 BB68     		ldr	r3, [r7, #8]
 230 0042 384A     		ldr	r2, .L23+8
 231 0044 9342     		cmp	r3, r2
 232 0046 06D9     		bls	.L13
 233              		.loc 1 159 34 discriminator 1
 234 0048 BB68     		ldr	r3, [r7, #8]
 235 004a 374A     		ldr	r2, .L23+12
 236 004c 9342     		cmp	r3, r2
 237 004e 02D8     		bhi	.L13
 160:Drivers/STM32F4xx_HAL_Driver/Src/stm32f4xx_ll_usb.c ****     {
 161:Drivers/STM32F4xx_HAL_Driver/Src/stm32f4xx_ll_usb.c ****       /* hclk Clock Range between 16-17.2 MHz */
 162:Drivers/STM32F4xx_HAL_Driver/Src/stm32f4xx_ll_usb.c ****       UsbTrd = 0xDU;
 238              		.loc 1 162 14
 239 0050 0D23     		movs	r3, #13
 240 0052 7B61     		str	r3, [r7, #20]
ARM GAS  /tmp/ccaXZQ0T.s 			page 8


 241 0054 4CE0     		b	.L20
 242              	.L13:
 163:Drivers/STM32F4xx_HAL_Driver/Src/stm32f4xx_ll_usb.c ****     }
 164:Drivers/STM32F4xx_HAL_Driver/Src/stm32f4xx_ll_usb.c ****     else if ((hclk >= 17200000U) && (hclk < 18500000U))
 243              		.loc 1 164 13
 244 0056 BB68     		ldr	r3, [r7, #8]
 245 0058 334A     		ldr	r2, .L23+12
 246 005a 9342     		cmp	r3, r2
 247 005c 06D9     		bls	.L14
 248              		.loc 1 164 34 discriminator 1
 249 005e BB68     		ldr	r3, [r7, #8]
 250 0060 324A     		ldr	r2, .L23+16
 251 0062 9342     		cmp	r3, r2
 252 0064 02D8     		bhi	.L14
 165:Drivers/STM32F4xx_HAL_Driver/Src/stm32f4xx_ll_usb.c ****     {
 166:Drivers/STM32F4xx_HAL_Driver/Src/stm32f4xx_ll_usb.c ****       /* hclk Clock Range between 17.2-18.5 MHz */
 167:Drivers/STM32F4xx_HAL_Driver/Src/stm32f4xx_ll_usb.c ****       UsbTrd = 0xCU;
 253              		.loc 1 167 14
 254 0066 0C23     		movs	r3, #12
 255 0068 7B61     		str	r3, [r7, #20]
 256 006a 41E0     		b	.L20
 257              	.L14:
 168:Drivers/STM32F4xx_HAL_Driver/Src/stm32f4xx_ll_usb.c ****     }
 169:Drivers/STM32F4xx_HAL_Driver/Src/stm32f4xx_ll_usb.c ****     else if ((hclk >= 18500000U) && (hclk < 20000000U))
 258              		.loc 1 169 13
 259 006c BB68     		ldr	r3, [r7, #8]
 260 006e 2F4A     		ldr	r2, .L23+16
 261 0070 9342     		cmp	r3, r2
 262 0072 06D9     		bls	.L15
 263              		.loc 1 169 34 discriminator 1
 264 0074 BB68     		ldr	r3, [r7, #8]
 265 0076 2E4A     		ldr	r2, .L23+20
 266 0078 9342     		cmp	r3, r2
 267 007a 02D8     		bhi	.L15
 170:Drivers/STM32F4xx_HAL_Driver/Src/stm32f4xx_ll_usb.c ****     {
 171:Drivers/STM32F4xx_HAL_Driver/Src/stm32f4xx_ll_usb.c ****       /* hclk Clock Range between 18.5-20 MHz */
 172:Drivers/STM32F4xx_HAL_Driver/Src/stm32f4xx_ll_usb.c ****       UsbTrd = 0xBU;
 268              		.loc 1 172 14
 269 007c 0B23     		movs	r3, #11
 270 007e 7B61     		str	r3, [r7, #20]
 271 0080 36E0     		b	.L20
 272              	.L15:
 173:Drivers/STM32F4xx_HAL_Driver/Src/stm32f4xx_ll_usb.c ****     }
 174:Drivers/STM32F4xx_HAL_Driver/Src/stm32f4xx_ll_usb.c ****     else if ((hclk >= 20000000U) && (hclk < 21800000U))
 273              		.loc 1 174 13
 274 0082 BB68     		ldr	r3, [r7, #8]
 275 0084 2A4A     		ldr	r2, .L23+20
 276 0086 9342     		cmp	r3, r2
 277 0088 06D9     		bls	.L16
 278              		.loc 1 174 34 discriminator 1
 279 008a BB68     		ldr	r3, [r7, #8]
 280 008c 294A     		ldr	r2, .L23+24
 281 008e 9342     		cmp	r3, r2
 282 0090 02D8     		bhi	.L16
 175:Drivers/STM32F4xx_HAL_Driver/Src/stm32f4xx_ll_usb.c ****     {
 176:Drivers/STM32F4xx_HAL_Driver/Src/stm32f4xx_ll_usb.c ****       /* hclk Clock Range between 20-21.8 MHz */
 177:Drivers/STM32F4xx_HAL_Driver/Src/stm32f4xx_ll_usb.c ****       UsbTrd = 0xAU;
ARM GAS  /tmp/ccaXZQ0T.s 			page 9


 283              		.loc 1 177 14
 284 0092 0A23     		movs	r3, #10
 285 0094 7B61     		str	r3, [r7, #20]
 286 0096 2BE0     		b	.L20
 287              	.L16:
 178:Drivers/STM32F4xx_HAL_Driver/Src/stm32f4xx_ll_usb.c ****     }
 179:Drivers/STM32F4xx_HAL_Driver/Src/stm32f4xx_ll_usb.c ****     else if ((hclk >= 21800000U) && (hclk < 24000000U))
 288              		.loc 1 179 13
 289 0098 BB68     		ldr	r3, [r7, #8]
 290 009a 264A     		ldr	r2, .L23+24
 291 009c 9342     		cmp	r3, r2
 292 009e 06D9     		bls	.L17
 293              		.loc 1 179 34 discriminator 1
 294 00a0 BB68     		ldr	r3, [r7, #8]
 295 00a2 254A     		ldr	r2, .L23+28
 296 00a4 9342     		cmp	r3, r2
 297 00a6 02D8     		bhi	.L17
 180:Drivers/STM32F4xx_HAL_Driver/Src/stm32f4xx_ll_usb.c ****     {
 181:Drivers/STM32F4xx_HAL_Driver/Src/stm32f4xx_ll_usb.c ****       /* hclk Clock Range between 21.8-24 MHz */
 182:Drivers/STM32F4xx_HAL_Driver/Src/stm32f4xx_ll_usb.c ****       UsbTrd = 0x9U;
 298              		.loc 1 182 14
 299 00a8 0923     		movs	r3, #9
 300 00aa 7B61     		str	r3, [r7, #20]
 301 00ac 20E0     		b	.L20
 302              	.L17:
 183:Drivers/STM32F4xx_HAL_Driver/Src/stm32f4xx_ll_usb.c ****     }
 184:Drivers/STM32F4xx_HAL_Driver/Src/stm32f4xx_ll_usb.c ****     else if ((hclk >= 24000000U) && (hclk < 27700000U))
 303              		.loc 1 184 13
 304 00ae BB68     		ldr	r3, [r7, #8]
 305 00b0 214A     		ldr	r2, .L23+28
 306 00b2 9342     		cmp	r3, r2
 307 00b4 06D9     		bls	.L18
 308              		.loc 1 184 34 discriminator 1
 309 00b6 BB68     		ldr	r3, [r7, #8]
 310 00b8 204A     		ldr	r2, .L23+32
 311 00ba 9342     		cmp	r3, r2
 312 00bc 02D8     		bhi	.L18
 185:Drivers/STM32F4xx_HAL_Driver/Src/stm32f4xx_ll_usb.c ****     {
 186:Drivers/STM32F4xx_HAL_Driver/Src/stm32f4xx_ll_usb.c ****       /* hclk Clock Range between 24-27.7 MHz */
 187:Drivers/STM32F4xx_HAL_Driver/Src/stm32f4xx_ll_usb.c ****       UsbTrd = 0x8U;
 313              		.loc 1 187 14
 314 00be 0823     		movs	r3, #8
 315 00c0 7B61     		str	r3, [r7, #20]
 316 00c2 15E0     		b	.L20
 317              	.L18:
 188:Drivers/STM32F4xx_HAL_Driver/Src/stm32f4xx_ll_usb.c ****     }
 189:Drivers/STM32F4xx_HAL_Driver/Src/stm32f4xx_ll_usb.c ****     else if ((hclk >= 27700000U) && (hclk < 32000000U))
 318              		.loc 1 189 13
 319 00c4 BB68     		ldr	r3, [r7, #8]
 320 00c6 1D4A     		ldr	r2, .L23+32
 321 00c8 9342     		cmp	r3, r2
 322 00ca 06D9     		bls	.L19
 323              		.loc 1 189 34 discriminator 1
 324 00cc BB68     		ldr	r3, [r7, #8]
 325 00ce 1C4A     		ldr	r2, .L23+36
 326 00d0 9342     		cmp	r3, r2
 327 00d2 02D8     		bhi	.L19
ARM GAS  /tmp/ccaXZQ0T.s 			page 10


 190:Drivers/STM32F4xx_HAL_Driver/Src/stm32f4xx_ll_usb.c ****     {
 191:Drivers/STM32F4xx_HAL_Driver/Src/stm32f4xx_ll_usb.c ****       /* hclk Clock Range between 27.7-32 MHz */
 192:Drivers/STM32F4xx_HAL_Driver/Src/stm32f4xx_ll_usb.c ****       UsbTrd = 0x7U;
 328              		.loc 1 192 14
 329 00d4 0723     		movs	r3, #7
 330 00d6 7B61     		str	r3, [r7, #20]
 331 00d8 0AE0     		b	.L20
 332              	.L19:
 193:Drivers/STM32F4xx_HAL_Driver/Src/stm32f4xx_ll_usb.c ****     }
 194:Drivers/STM32F4xx_HAL_Driver/Src/stm32f4xx_ll_usb.c ****     else /* if(hclk >= 32000000) */
 195:Drivers/STM32F4xx_HAL_Driver/Src/stm32f4xx_ll_usb.c ****     {
 196:Drivers/STM32F4xx_HAL_Driver/Src/stm32f4xx_ll_usb.c ****       /* hclk Clock Range between 32-200 MHz */
 197:Drivers/STM32F4xx_HAL_Driver/Src/stm32f4xx_ll_usb.c ****       UsbTrd = 0x6U;
 333              		.loc 1 197 14
 334 00da 0623     		movs	r3, #6
 335 00dc 7B61     		str	r3, [r7, #20]
 336 00de 07E0     		b	.L20
 337              	.L9:
 198:Drivers/STM32F4xx_HAL_Driver/Src/stm32f4xx_ll_usb.c ****     }
 199:Drivers/STM32F4xx_HAL_Driver/Src/stm32f4xx_ll_usb.c ****   }
 200:Drivers/STM32F4xx_HAL_Driver/Src/stm32f4xx_ll_usb.c ****   else if (speed == USBD_HS_SPEED)
 338              		.loc 1 200 11
 339 00e0 FB79     		ldrb	r3, [r7, #7]	@ zero_extendqisi2
 340 00e2 002B     		cmp	r3, #0
 341 00e4 02D1     		bne	.L21
 201:Drivers/STM32F4xx_HAL_Driver/Src/stm32f4xx_ll_usb.c ****   {
 202:Drivers/STM32F4xx_HAL_Driver/Src/stm32f4xx_ll_usb.c ****     UsbTrd = USBD_HS_TRDT_VALUE;
 342              		.loc 1 202 12
 343 00e6 0923     		movs	r3, #9
 344 00e8 7B61     		str	r3, [r7, #20]
 345 00ea 01E0     		b	.L20
 346              	.L21:
 203:Drivers/STM32F4xx_HAL_Driver/Src/stm32f4xx_ll_usb.c ****   }
 204:Drivers/STM32F4xx_HAL_Driver/Src/stm32f4xx_ll_usb.c ****   else
 205:Drivers/STM32F4xx_HAL_Driver/Src/stm32f4xx_ll_usb.c ****   {
 206:Drivers/STM32F4xx_HAL_Driver/Src/stm32f4xx_ll_usb.c ****     UsbTrd = USBD_DEFAULT_TRDT_VALUE;
 347              		.loc 1 206 12
 348 00ec 0923     		movs	r3, #9
 349 00ee 7B61     		str	r3, [r7, #20]
 350              	.L20:
 207:Drivers/STM32F4xx_HAL_Driver/Src/stm32f4xx_ll_usb.c ****   }
 208:Drivers/STM32F4xx_HAL_Driver/Src/stm32f4xx_ll_usb.c **** 
 209:Drivers/STM32F4xx_HAL_Driver/Src/stm32f4xx_ll_usb.c ****   USBx->GUSBCFG &= ~USB_OTG_GUSBCFG_TRDT;
 351              		.loc 1 209 17
 352 00f0 FB68     		ldr	r3, [r7, #12]
 353 00f2 DB68     		ldr	r3, [r3, #12]
 354 00f4 23F47052 		bic	r2, r3, #15360
 355 00f8 FB68     		ldr	r3, [r7, #12]
 356 00fa DA60     		str	r2, [r3, #12]
 210:Drivers/STM32F4xx_HAL_Driver/Src/stm32f4xx_ll_usb.c ****   USBx->GUSBCFG |= (uint32_t)((UsbTrd << 10) & USB_OTG_GUSBCFG_TRDT);
 357              		.loc 1 210 17
 358 00fc FB68     		ldr	r3, [r7, #12]
 359 00fe DA68     		ldr	r2, [r3, #12]
 360              		.loc 1 210 39
 361 0100 7B69     		ldr	r3, [r7, #20]
 362 0102 9B02     		lsls	r3, r3, #10
 363              		.loc 1 210 20
ARM GAS  /tmp/ccaXZQ0T.s 			page 11


 364 0104 03F47053 		and	r3, r3, #15360
 365              		.loc 1 210 17
 366 0108 1A43     		orrs	r2, r2, r3
 367 010a FB68     		ldr	r3, [r7, #12]
 368 010c DA60     		str	r2, [r3, #12]
 211:Drivers/STM32F4xx_HAL_Driver/Src/stm32f4xx_ll_usb.c **** 
 212:Drivers/STM32F4xx_HAL_Driver/Src/stm32f4xx_ll_usb.c ****   return HAL_OK;
 369              		.loc 1 212 10
 370 010e 0023     		movs	r3, #0
 213:Drivers/STM32F4xx_HAL_Driver/Src/stm32f4xx_ll_usb.c **** }
 371              		.loc 1 213 1
 372 0110 1846     		mov	r0, r3
 373 0112 1C37     		adds	r7, r7, #28
 374              	.LCFI11:
 375              		.cfi_def_cfa_offset 4
 376 0114 BD46     		mov	sp, r7
 377              	.LCFI12:
 378              		.cfi_def_cfa_register 13
 379              		@ sp needed
 380 0116 5DF8047B 		ldr	r7, [sp], #4
 381              	.LCFI13:
 382              		.cfi_restore 7
 383              		.cfi_def_cfa_offset 0
 384 011a 7047     		bx	lr
 385              	.L24:
 386              		.align	2
 387              	.L23:
 388 011c BFACD800 		.word	14199999
 389 0120 BFE1E400 		.word	14999999
 390 0124 FF23F400 		.word	15999999
 391 0128 7F730601 		.word	17199999
 392 012c 9F491A01 		.word	18499999
 393 0130 FF2C3101 		.word	19999999
 394 0134 3FA44C01 		.word	21799999
 395 0138 FF356E01 		.word	23999999
 396 013c 1FABA601 		.word	27699999
 397 0140 FF47E801 		.word	31999999
 398              		.cfi_endproc
 399              	.LFE131:
 401              		.section	.text.USB_EnableGlobalInt,"ax",%progbits
 402              		.align	1
 403              		.global	USB_EnableGlobalInt
 404              		.syntax unified
 405              		.thumb
 406              		.thumb_func
 407              		.fpu fpv4-sp-d16
 409              	USB_EnableGlobalInt:
 410              	.LFB132:
 214:Drivers/STM32F4xx_HAL_Driver/Src/stm32f4xx_ll_usb.c **** 
 215:Drivers/STM32F4xx_HAL_Driver/Src/stm32f4xx_ll_usb.c **** /**
 216:Drivers/STM32F4xx_HAL_Driver/Src/stm32f4xx_ll_usb.c ****   * @brief  USB_EnableGlobalInt
 217:Drivers/STM32F4xx_HAL_Driver/Src/stm32f4xx_ll_usb.c ****   *         Enables the controller's Global Int in the AHB Config reg
 218:Drivers/STM32F4xx_HAL_Driver/Src/stm32f4xx_ll_usb.c ****   * @param  USBx  Selected device
 219:Drivers/STM32F4xx_HAL_Driver/Src/stm32f4xx_ll_usb.c ****   * @retval HAL status
 220:Drivers/STM32F4xx_HAL_Driver/Src/stm32f4xx_ll_usb.c ****   */
 221:Drivers/STM32F4xx_HAL_Driver/Src/stm32f4xx_ll_usb.c **** HAL_StatusTypeDef USB_EnableGlobalInt(USB_OTG_GlobalTypeDef *USBx)
 222:Drivers/STM32F4xx_HAL_Driver/Src/stm32f4xx_ll_usb.c **** {
ARM GAS  /tmp/ccaXZQ0T.s 			page 12


 411              		.loc 1 222 1
 412              		.cfi_startproc
 413              		@ args = 0, pretend = 0, frame = 8
 414              		@ frame_needed = 1, uses_anonymous_args = 0
 415              		@ link register save eliminated.
 416 0000 80B4     		push	{r7}
 417              	.LCFI14:
 418              		.cfi_def_cfa_offset 4
 419              		.cfi_offset 7, -4
 420 0002 83B0     		sub	sp, sp, #12
 421              	.LCFI15:
 422              		.cfi_def_cfa_offset 16
 423 0004 00AF     		add	r7, sp, #0
 424              	.LCFI16:
 425              		.cfi_def_cfa_register 7
 426 0006 7860     		str	r0, [r7, #4]
 223:Drivers/STM32F4xx_HAL_Driver/Src/stm32f4xx_ll_usb.c ****   USBx->GAHBCFG |= USB_OTG_GAHBCFG_GINT;
 427              		.loc 1 223 17
 428 0008 7B68     		ldr	r3, [r7, #4]
 429 000a 9B68     		ldr	r3, [r3, #8]
 430 000c 43F00102 		orr	r2, r3, #1
 431 0010 7B68     		ldr	r3, [r7, #4]
 432 0012 9A60     		str	r2, [r3, #8]
 224:Drivers/STM32F4xx_HAL_Driver/Src/stm32f4xx_ll_usb.c ****   return HAL_OK;
 433              		.loc 1 224 10
 434 0014 0023     		movs	r3, #0
 225:Drivers/STM32F4xx_HAL_Driver/Src/stm32f4xx_ll_usb.c **** }
 435              		.loc 1 225 1
 436 0016 1846     		mov	r0, r3
 437 0018 0C37     		adds	r7, r7, #12
 438              	.LCFI17:
 439              		.cfi_def_cfa_offset 4
 440 001a BD46     		mov	sp, r7
 441              	.LCFI18:
 442              		.cfi_def_cfa_register 13
 443              		@ sp needed
 444 001c 5DF8047B 		ldr	r7, [sp], #4
 445              	.LCFI19:
 446              		.cfi_restore 7
 447              		.cfi_def_cfa_offset 0
 448 0020 7047     		bx	lr
 449              		.cfi_endproc
 450              	.LFE132:
 452              		.section	.text.USB_DisableGlobalInt,"ax",%progbits
 453              		.align	1
 454              		.global	USB_DisableGlobalInt
 455              		.syntax unified
 456              		.thumb
 457              		.thumb_func
 458              		.fpu fpv4-sp-d16
 460              	USB_DisableGlobalInt:
 461              	.LFB133:
 226:Drivers/STM32F4xx_HAL_Driver/Src/stm32f4xx_ll_usb.c **** 
 227:Drivers/STM32F4xx_HAL_Driver/Src/stm32f4xx_ll_usb.c **** /**
 228:Drivers/STM32F4xx_HAL_Driver/Src/stm32f4xx_ll_usb.c ****   * @brief  USB_DisableGlobalInt
 229:Drivers/STM32F4xx_HAL_Driver/Src/stm32f4xx_ll_usb.c ****   *         Disable the controller's Global Int in the AHB Config reg
 230:Drivers/STM32F4xx_HAL_Driver/Src/stm32f4xx_ll_usb.c ****   * @param  USBx  Selected device
ARM GAS  /tmp/ccaXZQ0T.s 			page 13


 231:Drivers/STM32F4xx_HAL_Driver/Src/stm32f4xx_ll_usb.c ****   * @retval HAL status
 232:Drivers/STM32F4xx_HAL_Driver/Src/stm32f4xx_ll_usb.c **** */
 233:Drivers/STM32F4xx_HAL_Driver/Src/stm32f4xx_ll_usb.c **** HAL_StatusTypeDef USB_DisableGlobalInt(USB_OTG_GlobalTypeDef *USBx)
 234:Drivers/STM32F4xx_HAL_Driver/Src/stm32f4xx_ll_usb.c **** {
 462              		.loc 1 234 1
 463              		.cfi_startproc
 464              		@ args = 0, pretend = 0, frame = 8
 465              		@ frame_needed = 1, uses_anonymous_args = 0
 466              		@ link register save eliminated.
 467 0000 80B4     		push	{r7}
 468              	.LCFI20:
 469              		.cfi_def_cfa_offset 4
 470              		.cfi_offset 7, -4
 471 0002 83B0     		sub	sp, sp, #12
 472              	.LCFI21:
 473              		.cfi_def_cfa_offset 16
 474 0004 00AF     		add	r7, sp, #0
 475              	.LCFI22:
 476              		.cfi_def_cfa_register 7
 477 0006 7860     		str	r0, [r7, #4]
 235:Drivers/STM32F4xx_HAL_Driver/Src/stm32f4xx_ll_usb.c ****   USBx->GAHBCFG &= ~USB_OTG_GAHBCFG_GINT;
 478              		.loc 1 235 17
 479 0008 7B68     		ldr	r3, [r7, #4]
 480 000a 9B68     		ldr	r3, [r3, #8]
 481 000c 23F00102 		bic	r2, r3, #1
 482 0010 7B68     		ldr	r3, [r7, #4]
 483 0012 9A60     		str	r2, [r3, #8]
 236:Drivers/STM32F4xx_HAL_Driver/Src/stm32f4xx_ll_usb.c ****   return HAL_OK;
 484              		.loc 1 236 10
 485 0014 0023     		movs	r3, #0
 237:Drivers/STM32F4xx_HAL_Driver/Src/stm32f4xx_ll_usb.c **** }
 486              		.loc 1 237 1
 487 0016 1846     		mov	r0, r3
 488 0018 0C37     		adds	r7, r7, #12
 489              	.LCFI23:
 490              		.cfi_def_cfa_offset 4
 491 001a BD46     		mov	sp, r7
 492              	.LCFI24:
 493              		.cfi_def_cfa_register 13
 494              		@ sp needed
 495 001c 5DF8047B 		ldr	r7, [sp], #4
 496              	.LCFI25:
 497              		.cfi_restore 7
 498              		.cfi_def_cfa_offset 0
 499 0020 7047     		bx	lr
 500              		.cfi_endproc
 501              	.LFE133:
 503              		.section	.text.USB_SetCurrentMode,"ax",%progbits
 504              		.align	1
 505              		.global	USB_SetCurrentMode
 506              		.syntax unified
 507              		.thumb
 508              		.thumb_func
 509              		.fpu fpv4-sp-d16
 511              	USB_SetCurrentMode:
 512              	.LFB134:
 238:Drivers/STM32F4xx_HAL_Driver/Src/stm32f4xx_ll_usb.c **** 
ARM GAS  /tmp/ccaXZQ0T.s 			page 14


 239:Drivers/STM32F4xx_HAL_Driver/Src/stm32f4xx_ll_usb.c **** /**
 240:Drivers/STM32F4xx_HAL_Driver/Src/stm32f4xx_ll_usb.c ****   * @brief  USB_SetCurrentMode : Set functional mode
 241:Drivers/STM32F4xx_HAL_Driver/Src/stm32f4xx_ll_usb.c ****   * @param  USBx  Selected device
 242:Drivers/STM32F4xx_HAL_Driver/Src/stm32f4xx_ll_usb.c ****   * @param  mode   current core mode
 243:Drivers/STM32F4xx_HAL_Driver/Src/stm32f4xx_ll_usb.c ****   *          This parameter can be one of these values:
 244:Drivers/STM32F4xx_HAL_Driver/Src/stm32f4xx_ll_usb.c ****   *            @arg USB_DEVICE_MODE: Peripheral mode
 245:Drivers/STM32F4xx_HAL_Driver/Src/stm32f4xx_ll_usb.c ****   *            @arg USB_HOST_MODE: Host mode
 246:Drivers/STM32F4xx_HAL_Driver/Src/stm32f4xx_ll_usb.c ****   *            @arg USB_DRD_MODE: Dual Role Device mode
 247:Drivers/STM32F4xx_HAL_Driver/Src/stm32f4xx_ll_usb.c ****   * @retval HAL status
 248:Drivers/STM32F4xx_HAL_Driver/Src/stm32f4xx_ll_usb.c ****   */
 249:Drivers/STM32F4xx_HAL_Driver/Src/stm32f4xx_ll_usb.c **** HAL_StatusTypeDef USB_SetCurrentMode(USB_OTG_GlobalTypeDef *USBx, USB_OTG_ModeTypeDef mode)
 250:Drivers/STM32F4xx_HAL_Driver/Src/stm32f4xx_ll_usb.c **** {
 513              		.loc 1 250 1
 514              		.cfi_startproc
 515              		@ args = 0, pretend = 0, frame = 8
 516              		@ frame_needed = 1, uses_anonymous_args = 0
 517 0000 80B5     		push	{r7, lr}
 518              	.LCFI26:
 519              		.cfi_def_cfa_offset 8
 520              		.cfi_offset 7, -8
 521              		.cfi_offset 14, -4
 522 0002 82B0     		sub	sp, sp, #8
 523              	.LCFI27:
 524              		.cfi_def_cfa_offset 16
 525 0004 00AF     		add	r7, sp, #0
 526              	.LCFI28:
 527              		.cfi_def_cfa_register 7
 528 0006 7860     		str	r0, [r7, #4]
 529 0008 0B46     		mov	r3, r1
 530 000a FB70     		strb	r3, [r7, #3]
 251:Drivers/STM32F4xx_HAL_Driver/Src/stm32f4xx_ll_usb.c ****   USBx->GUSBCFG &= ~(USB_OTG_GUSBCFG_FHMOD | USB_OTG_GUSBCFG_FDMOD);
 531              		.loc 1 251 17
 532 000c 7B68     		ldr	r3, [r7, #4]
 533 000e DB68     		ldr	r3, [r3, #12]
 534 0010 23F0C042 		bic	r2, r3, #1610612736
 535 0014 7B68     		ldr	r3, [r7, #4]
 536 0016 DA60     		str	r2, [r3, #12]
 252:Drivers/STM32F4xx_HAL_Driver/Src/stm32f4xx_ll_usb.c **** 
 253:Drivers/STM32F4xx_HAL_Driver/Src/stm32f4xx_ll_usb.c ****   if (mode == USB_HOST_MODE)
 537              		.loc 1 253 6
 538 0018 FB78     		ldrb	r3, [r7, #3]	@ zero_extendqisi2
 539 001a 012B     		cmp	r3, #1
 540 001c 06D1     		bne	.L30
 254:Drivers/STM32F4xx_HAL_Driver/Src/stm32f4xx_ll_usb.c ****   {
 255:Drivers/STM32F4xx_HAL_Driver/Src/stm32f4xx_ll_usb.c ****     USBx->GUSBCFG |= USB_OTG_GUSBCFG_FHMOD;
 541              		.loc 1 255 19
 542 001e 7B68     		ldr	r3, [r7, #4]
 543 0020 DB68     		ldr	r3, [r3, #12]
 544 0022 43F00052 		orr	r2, r3, #536870912
 545 0026 7B68     		ldr	r3, [r7, #4]
 546 0028 DA60     		str	r2, [r3, #12]
 547 002a 0BE0     		b	.L31
 548              	.L30:
 256:Drivers/STM32F4xx_HAL_Driver/Src/stm32f4xx_ll_usb.c ****   }
 257:Drivers/STM32F4xx_HAL_Driver/Src/stm32f4xx_ll_usb.c ****   else if (mode == USB_DEVICE_MODE)
 549              		.loc 1 257 11
 550 002c FB78     		ldrb	r3, [r7, #3]	@ zero_extendqisi2
ARM GAS  /tmp/ccaXZQ0T.s 			page 15


 551 002e 002B     		cmp	r3, #0
 552 0030 06D1     		bne	.L32
 258:Drivers/STM32F4xx_HAL_Driver/Src/stm32f4xx_ll_usb.c ****   {
 259:Drivers/STM32F4xx_HAL_Driver/Src/stm32f4xx_ll_usb.c ****     USBx->GUSBCFG |= USB_OTG_GUSBCFG_FDMOD;
 553              		.loc 1 259 19
 554 0032 7B68     		ldr	r3, [r7, #4]
 555 0034 DB68     		ldr	r3, [r3, #12]
 556 0036 43F08042 		orr	r2, r3, #1073741824
 557 003a 7B68     		ldr	r3, [r7, #4]
 558 003c DA60     		str	r2, [r3, #12]
 559 003e 01E0     		b	.L31
 560              	.L32:
 260:Drivers/STM32F4xx_HAL_Driver/Src/stm32f4xx_ll_usb.c ****   }
 261:Drivers/STM32F4xx_HAL_Driver/Src/stm32f4xx_ll_usb.c ****   else
 262:Drivers/STM32F4xx_HAL_Driver/Src/stm32f4xx_ll_usb.c ****   {
 263:Drivers/STM32F4xx_HAL_Driver/Src/stm32f4xx_ll_usb.c ****     return HAL_ERROR;
 561              		.loc 1 263 12
 562 0040 0123     		movs	r3, #1
 563 0042 03E0     		b	.L33
 564              	.L31:
 264:Drivers/STM32F4xx_HAL_Driver/Src/stm32f4xx_ll_usb.c ****   }
 265:Drivers/STM32F4xx_HAL_Driver/Src/stm32f4xx_ll_usb.c ****   HAL_Delay(50U);
 565              		.loc 1 265 3
 566 0044 3220     		movs	r0, #50
 567 0046 FFF7FEFF 		bl	HAL_Delay
 266:Drivers/STM32F4xx_HAL_Driver/Src/stm32f4xx_ll_usb.c **** 
 267:Drivers/STM32F4xx_HAL_Driver/Src/stm32f4xx_ll_usb.c ****   return HAL_OK;
 568              		.loc 1 267 10
 569 004a 0023     		movs	r3, #0
 570              	.L33:
 268:Drivers/STM32F4xx_HAL_Driver/Src/stm32f4xx_ll_usb.c **** }
 571              		.loc 1 268 1
 572 004c 1846     		mov	r0, r3
 573 004e 0837     		adds	r7, r7, #8
 574              	.LCFI29:
 575              		.cfi_def_cfa_offset 8
 576 0050 BD46     		mov	sp, r7
 577              	.LCFI30:
 578              		.cfi_def_cfa_register 13
 579              		@ sp needed
 580 0052 80BD     		pop	{r7, pc}
 581              		.cfi_endproc
 582              	.LFE134:
 584              		.section	.text.USB_DevInit,"ax",%progbits
 585              		.align	1
 586              		.global	USB_DevInit
 587              		.syntax unified
 588              		.thumb
 589              		.thumb_func
 590              		.fpu fpv4-sp-d16
 592              	USB_DevInit:
 593              	.LFB135:
 269:Drivers/STM32F4xx_HAL_Driver/Src/stm32f4xx_ll_usb.c **** 
 270:Drivers/STM32F4xx_HAL_Driver/Src/stm32f4xx_ll_usb.c **** /**
 271:Drivers/STM32F4xx_HAL_Driver/Src/stm32f4xx_ll_usb.c ****   * @brief  USB_DevInit : Initializes the USB_OTG controller registers
 272:Drivers/STM32F4xx_HAL_Driver/Src/stm32f4xx_ll_usb.c ****   *         for device mode
 273:Drivers/STM32F4xx_HAL_Driver/Src/stm32f4xx_ll_usb.c ****   * @param  USBx  Selected device
ARM GAS  /tmp/ccaXZQ0T.s 			page 16


 274:Drivers/STM32F4xx_HAL_Driver/Src/stm32f4xx_ll_usb.c ****   * @param  cfg   pointer to a USB_OTG_CfgTypeDef structure that contains
 275:Drivers/STM32F4xx_HAL_Driver/Src/stm32f4xx_ll_usb.c ****   *         the configuration information for the specified USBx peripheral.
 276:Drivers/STM32F4xx_HAL_Driver/Src/stm32f4xx_ll_usb.c ****   * @retval HAL status
 277:Drivers/STM32F4xx_HAL_Driver/Src/stm32f4xx_ll_usb.c ****   */
 278:Drivers/STM32F4xx_HAL_Driver/Src/stm32f4xx_ll_usb.c **** HAL_StatusTypeDef USB_DevInit(USB_OTG_GlobalTypeDef *USBx, USB_OTG_CfgTypeDef cfg)
 279:Drivers/STM32F4xx_HAL_Driver/Src/stm32f4xx_ll_usb.c **** {
 594              		.loc 1 279 1
 595              		.cfi_startproc
 596              		@ args = 56, pretend = 16, frame = 24
 597              		@ frame_needed = 1, uses_anonymous_args = 0
 598 0000 84B0     		sub	sp, sp, #16
 599              	.LCFI31:
 600              		.cfi_def_cfa_offset 16
 601 0002 80B5     		push	{r7, lr}
 602              	.LCFI32:
 603              		.cfi_def_cfa_offset 24
 604              		.cfi_offset 7, -24
 605              		.cfi_offset 14, -20
 606 0004 86B0     		sub	sp, sp, #24
 607              	.LCFI33:
 608              		.cfi_def_cfa_offset 48
 609 0006 00AF     		add	r7, sp, #0
 610              	.LCFI34:
 611              		.cfi_def_cfa_register 7
 612 0008 7860     		str	r0, [r7, #4]
 613 000a 07F12400 		add	r0, r7, #36
 614 000e 80E80E00 		stm	r0, {r1, r2, r3}
 280:Drivers/STM32F4xx_HAL_Driver/Src/stm32f4xx_ll_usb.c ****   HAL_StatusTypeDef ret = HAL_OK;
 615              		.loc 1 280 21
 616 0012 0023     		movs	r3, #0
 617 0014 FB75     		strb	r3, [r7, #23]
 281:Drivers/STM32F4xx_HAL_Driver/Src/stm32f4xx_ll_usb.c ****   uint32_t USBx_BASE = (uint32_t)USBx;
 618              		.loc 1 281 12
 619 0016 7B68     		ldr	r3, [r7, #4]
 620 0018 FB60     		str	r3, [r7, #12]
 282:Drivers/STM32F4xx_HAL_Driver/Src/stm32f4xx_ll_usb.c ****   uint32_t i;
 283:Drivers/STM32F4xx_HAL_Driver/Src/stm32f4xx_ll_usb.c **** 
 284:Drivers/STM32F4xx_HAL_Driver/Src/stm32f4xx_ll_usb.c ****   for (i = 0U; i < 15U; i++)
 621              		.loc 1 284 10
 622 001a 0023     		movs	r3, #0
 623 001c 3B61     		str	r3, [r7, #16]
 624              		.loc 1 284 3
 625 001e 09E0     		b	.L35
 626              	.L36:
 285:Drivers/STM32F4xx_HAL_Driver/Src/stm32f4xx_ll_usb.c ****   {
 286:Drivers/STM32F4xx_HAL_Driver/Src/stm32f4xx_ll_usb.c ****     USBx->DIEPTXF[i] = 0U;
 627              		.loc 1 286 22 discriminator 3
 628 0020 7A68     		ldr	r2, [r7, #4]
 629 0022 3B69     		ldr	r3, [r7, #16]
 630 0024 4033     		adds	r3, r3, #64
 631 0026 9B00     		lsls	r3, r3, #2
 632 0028 1344     		add	r3, r3, r2
 633 002a 0022     		movs	r2, #0
 634 002c 5A60     		str	r2, [r3, #4]
 284:Drivers/STM32F4xx_HAL_Driver/Src/stm32f4xx_ll_usb.c ****   {
 635              		.loc 1 284 26 discriminator 3
 636 002e 3B69     		ldr	r3, [r7, #16]
ARM GAS  /tmp/ccaXZQ0T.s 			page 17


 637 0030 0133     		adds	r3, r3, #1
 638 0032 3B61     		str	r3, [r7, #16]
 639              	.L35:
 284:Drivers/STM32F4xx_HAL_Driver/Src/stm32f4xx_ll_usb.c ****   {
 640              		.loc 1 284 3 discriminator 1
 641 0034 3B69     		ldr	r3, [r7, #16]
 642 0036 0E2B     		cmp	r3, #14
 643 0038 F2D9     		bls	.L36
 287:Drivers/STM32F4xx_HAL_Driver/Src/stm32f4xx_ll_usb.c ****   }
 288:Drivers/STM32F4xx_HAL_Driver/Src/stm32f4xx_ll_usb.c **** 
 289:Drivers/STM32F4xx_HAL_Driver/Src/stm32f4xx_ll_usb.c **** #if defined(STM32F446xx) || defined(STM32F469xx) || defined(STM32F479xx) || defined(STM32F412Zx) ||
 290:Drivers/STM32F4xx_HAL_Driver/Src/stm32f4xx_ll_usb.c ****   /* VBUS Sensing setup */
 291:Drivers/STM32F4xx_HAL_Driver/Src/stm32f4xx_ll_usb.c ****   if (cfg.vbus_sensing_enable == 0U)
 292:Drivers/STM32F4xx_HAL_Driver/Src/stm32f4xx_ll_usb.c ****   {
 293:Drivers/STM32F4xx_HAL_Driver/Src/stm32f4xx_ll_usb.c ****     USBx_DEVICE->DCTL |= USB_OTG_DCTL_SDIS;
 294:Drivers/STM32F4xx_HAL_Driver/Src/stm32f4xx_ll_usb.c **** 
 295:Drivers/STM32F4xx_HAL_Driver/Src/stm32f4xx_ll_usb.c ****     /* Deactivate VBUS Sensing B */
 296:Drivers/STM32F4xx_HAL_Driver/Src/stm32f4xx_ll_usb.c ****     USBx->GCCFG &= ~USB_OTG_GCCFG_VBDEN;
 297:Drivers/STM32F4xx_HAL_Driver/Src/stm32f4xx_ll_usb.c **** 
 298:Drivers/STM32F4xx_HAL_Driver/Src/stm32f4xx_ll_usb.c ****     /* B-peripheral session valid override enable */
 299:Drivers/STM32F4xx_HAL_Driver/Src/stm32f4xx_ll_usb.c ****     USBx->GOTGCTL |= USB_OTG_GOTGCTL_BVALOEN;
 300:Drivers/STM32F4xx_HAL_Driver/Src/stm32f4xx_ll_usb.c ****     USBx->GOTGCTL |= USB_OTG_GOTGCTL_BVALOVAL;
 301:Drivers/STM32F4xx_HAL_Driver/Src/stm32f4xx_ll_usb.c ****   }
 302:Drivers/STM32F4xx_HAL_Driver/Src/stm32f4xx_ll_usb.c ****   else
 303:Drivers/STM32F4xx_HAL_Driver/Src/stm32f4xx_ll_usb.c ****   {
 304:Drivers/STM32F4xx_HAL_Driver/Src/stm32f4xx_ll_usb.c ****     /* Enable HW VBUS sensing */
 305:Drivers/STM32F4xx_HAL_Driver/Src/stm32f4xx_ll_usb.c ****     USBx->GCCFG |= USB_OTG_GCCFG_VBDEN;
 306:Drivers/STM32F4xx_HAL_Driver/Src/stm32f4xx_ll_usb.c ****   }
 307:Drivers/STM32F4xx_HAL_Driver/Src/stm32f4xx_ll_usb.c **** #else
 308:Drivers/STM32F4xx_HAL_Driver/Src/stm32f4xx_ll_usb.c ****   /* VBUS Sensing setup */
 309:Drivers/STM32F4xx_HAL_Driver/Src/stm32f4xx_ll_usb.c ****   if (cfg.vbus_sensing_enable == 0U)
 644              		.loc 1 309 10
 645 003a FB6C     		ldr	r3, [r7, #76]
 646              		.loc 1 309 6
 647 003c 002B     		cmp	r3, #0
 648 003e 1CD1     		bne	.L37
 310:Drivers/STM32F4xx_HAL_Driver/Src/stm32f4xx_ll_usb.c ****   {
 311:Drivers/STM32F4xx_HAL_Driver/Src/stm32f4xx_ll_usb.c ****     /*
 312:Drivers/STM32F4xx_HAL_Driver/Src/stm32f4xx_ll_usb.c ****      * Disable HW VBUS sensing. VBUS is internally considered to be always
 313:Drivers/STM32F4xx_HAL_Driver/Src/stm32f4xx_ll_usb.c ****      * at VBUS-Valid level (5V).
 314:Drivers/STM32F4xx_HAL_Driver/Src/stm32f4xx_ll_usb.c ****      */
 315:Drivers/STM32F4xx_HAL_Driver/Src/stm32f4xx_ll_usb.c ****     USBx_DEVICE->DCTL |= USB_OTG_DCTL_SDIS;
 649              		.loc 1 315 23
 650 0040 FB68     		ldr	r3, [r7, #12]
 651 0042 03F50063 		add	r3, r3, #2048
 652 0046 5B68     		ldr	r3, [r3, #4]
 653 0048 FA68     		ldr	r2, [r7, #12]
 654 004a 02F50062 		add	r2, r2, #2048
 655 004e 43F00203 		orr	r3, r3, #2
 656 0052 5360     		str	r3, [r2, #4]
 316:Drivers/STM32F4xx_HAL_Driver/Src/stm32f4xx_ll_usb.c ****     USBx->GCCFG |= USB_OTG_GCCFG_NOVBUSSENS;
 657              		.loc 1 316 17
 658 0054 7B68     		ldr	r3, [r7, #4]
 659 0056 9B6B     		ldr	r3, [r3, #56]
 660 0058 43F40012 		orr	r2, r3, #2097152
 661 005c 7B68     		ldr	r3, [r7, #4]
 662 005e 9A63     		str	r2, [r3, #56]
ARM GAS  /tmp/ccaXZQ0T.s 			page 18


 317:Drivers/STM32F4xx_HAL_Driver/Src/stm32f4xx_ll_usb.c ****     USBx->GCCFG &= ~USB_OTG_GCCFG_VBUSBSEN;
 663              		.loc 1 317 17
 664 0060 7B68     		ldr	r3, [r7, #4]
 665 0062 9B6B     		ldr	r3, [r3, #56]
 666 0064 23F40022 		bic	r2, r3, #524288
 667 0068 7B68     		ldr	r3, [r7, #4]
 668 006a 9A63     		str	r2, [r3, #56]
 318:Drivers/STM32F4xx_HAL_Driver/Src/stm32f4xx_ll_usb.c ****     USBx->GCCFG &= ~USB_OTG_GCCFG_VBUSASEN;
 669              		.loc 1 318 17
 670 006c 7B68     		ldr	r3, [r7, #4]
 671 006e 9B6B     		ldr	r3, [r3, #56]
 672 0070 23F48022 		bic	r2, r3, #262144
 673 0074 7B68     		ldr	r3, [r7, #4]
 674 0076 9A63     		str	r2, [r3, #56]
 675 0078 0BE0     		b	.L38
 676              	.L37:
 319:Drivers/STM32F4xx_HAL_Driver/Src/stm32f4xx_ll_usb.c ****   }
 320:Drivers/STM32F4xx_HAL_Driver/Src/stm32f4xx_ll_usb.c ****   else
 321:Drivers/STM32F4xx_HAL_Driver/Src/stm32f4xx_ll_usb.c ****   {
 322:Drivers/STM32F4xx_HAL_Driver/Src/stm32f4xx_ll_usb.c ****     /* Enable HW VBUS sensing */
 323:Drivers/STM32F4xx_HAL_Driver/Src/stm32f4xx_ll_usb.c ****     USBx->GCCFG &= ~USB_OTG_GCCFG_NOVBUSSENS;
 677              		.loc 1 323 17
 678 007a 7B68     		ldr	r3, [r7, #4]
 679 007c 9B6B     		ldr	r3, [r3, #56]
 680 007e 23F40012 		bic	r2, r3, #2097152
 681 0082 7B68     		ldr	r3, [r7, #4]
 682 0084 9A63     		str	r2, [r3, #56]
 324:Drivers/STM32F4xx_HAL_Driver/Src/stm32f4xx_ll_usb.c ****     USBx->GCCFG |= USB_OTG_GCCFG_VBUSBSEN;
 683              		.loc 1 324 17
 684 0086 7B68     		ldr	r3, [r7, #4]
 685 0088 9B6B     		ldr	r3, [r3, #56]
 686 008a 43F40022 		orr	r2, r3, #524288
 687 008e 7B68     		ldr	r3, [r7, #4]
 688 0090 9A63     		str	r2, [r3, #56]
 689              	.L38:
 325:Drivers/STM32F4xx_HAL_Driver/Src/stm32f4xx_ll_usb.c ****   }
 326:Drivers/STM32F4xx_HAL_Driver/Src/stm32f4xx_ll_usb.c **** #endif /* defined(STM32F446xx) || defined(STM32F469xx) || defined(STM32F479xx) || defined(STM32F412
 327:Drivers/STM32F4xx_HAL_Driver/Src/stm32f4xx_ll_usb.c **** 
 328:Drivers/STM32F4xx_HAL_Driver/Src/stm32f4xx_ll_usb.c ****   /* Restart the Phy Clock */
 329:Drivers/STM32F4xx_HAL_Driver/Src/stm32f4xx_ll_usb.c ****   USBx_PCGCCTL = 0U;
 690              		.loc 1 329 3
 691 0092 FB68     		ldr	r3, [r7, #12]
 692 0094 03F56063 		add	r3, r3, #3584
 693 0098 1A46     		mov	r2, r3
 694              		.loc 1 329 16
 695 009a 0023     		movs	r3, #0
 696 009c 1360     		str	r3, [r2]
 330:Drivers/STM32F4xx_HAL_Driver/Src/stm32f4xx_ll_usb.c **** 
 331:Drivers/STM32F4xx_HAL_Driver/Src/stm32f4xx_ll_usb.c ****   /* Device mode configuration */
 332:Drivers/STM32F4xx_HAL_Driver/Src/stm32f4xx_ll_usb.c ****   USBx_DEVICE->DCFG |= DCFG_FRAME_INTERVAL_80;
 697              		.loc 1 332 21
 698 009e FB68     		ldr	r3, [r7, #12]
 699 00a0 03F50063 		add	r3, r3, #2048
 700 00a4 1946     		mov	r1, r3
 701 00a6 FB68     		ldr	r3, [r7, #12]
 702 00a8 03F50063 		add	r3, r3, #2048
 703 00ac 1A46     		mov	r2, r3
ARM GAS  /tmp/ccaXZQ0T.s 			page 19


 704 00ae 0B68     		ldr	r3, [r1]
 705 00b0 1360     		str	r3, [r2]
 333:Drivers/STM32F4xx_HAL_Driver/Src/stm32f4xx_ll_usb.c **** 
 334:Drivers/STM32F4xx_HAL_Driver/Src/stm32f4xx_ll_usb.c ****   if (cfg.phy_itface == USB_OTG_ULPI_PHY)
 706              		.loc 1 334 10
 707 00b2 BB6B     		ldr	r3, [r7, #56]
 708              		.loc 1 334 6
 709 00b4 012B     		cmp	r3, #1
 710 00b6 0CD1     		bne	.L39
 335:Drivers/STM32F4xx_HAL_Driver/Src/stm32f4xx_ll_usb.c ****   {
 336:Drivers/STM32F4xx_HAL_Driver/Src/stm32f4xx_ll_usb.c ****     if (cfg.speed == USBD_HS_SPEED)
 711              		.loc 1 336 12
 712 00b8 FB6A     		ldr	r3, [r7, #44]
 713              		.loc 1 336 8
 714 00ba 002B     		cmp	r3, #0
 715 00bc 04D1     		bne	.L40
 337:Drivers/STM32F4xx_HAL_Driver/Src/stm32f4xx_ll_usb.c ****     {
 338:Drivers/STM32F4xx_HAL_Driver/Src/stm32f4xx_ll_usb.c ****       /* Set Core speed to High speed mode */
 339:Drivers/STM32F4xx_HAL_Driver/Src/stm32f4xx_ll_usb.c ****       (void)USB_SetDevSpeed(USBx, USB_OTG_SPEED_HIGH);
 716              		.loc 1 339 13
 717 00be 0021     		movs	r1, #0
 718 00c0 7868     		ldr	r0, [r7, #4]
 719 00c2 FFF7FEFF 		bl	USB_SetDevSpeed
 720 00c6 08E0     		b	.L42
 721              	.L40:
 340:Drivers/STM32F4xx_HAL_Driver/Src/stm32f4xx_ll_usb.c ****     }
 341:Drivers/STM32F4xx_HAL_Driver/Src/stm32f4xx_ll_usb.c ****     else
 342:Drivers/STM32F4xx_HAL_Driver/Src/stm32f4xx_ll_usb.c ****     {
 343:Drivers/STM32F4xx_HAL_Driver/Src/stm32f4xx_ll_usb.c ****       /* Set Core speed to Full speed mode */
 344:Drivers/STM32F4xx_HAL_Driver/Src/stm32f4xx_ll_usb.c ****       (void)USB_SetDevSpeed(USBx, USB_OTG_SPEED_HIGH_IN_FULL);
 722              		.loc 1 344 13
 723 00c8 0121     		movs	r1, #1
 724 00ca 7868     		ldr	r0, [r7, #4]
 725 00cc FFF7FEFF 		bl	USB_SetDevSpeed
 726 00d0 03E0     		b	.L42
 727              	.L39:
 345:Drivers/STM32F4xx_HAL_Driver/Src/stm32f4xx_ll_usb.c ****     }
 346:Drivers/STM32F4xx_HAL_Driver/Src/stm32f4xx_ll_usb.c ****   }
 347:Drivers/STM32F4xx_HAL_Driver/Src/stm32f4xx_ll_usb.c ****   else
 348:Drivers/STM32F4xx_HAL_Driver/Src/stm32f4xx_ll_usb.c ****   {
 349:Drivers/STM32F4xx_HAL_Driver/Src/stm32f4xx_ll_usb.c ****     /* Set Core speed to Full speed mode */
 350:Drivers/STM32F4xx_HAL_Driver/Src/stm32f4xx_ll_usb.c ****     (void)USB_SetDevSpeed(USBx, USB_OTG_SPEED_FULL);
 728              		.loc 1 350 11
 729 00d2 0321     		movs	r1, #3
 730 00d4 7868     		ldr	r0, [r7, #4]
 731 00d6 FFF7FEFF 		bl	USB_SetDevSpeed
 732              	.L42:
 351:Drivers/STM32F4xx_HAL_Driver/Src/stm32f4xx_ll_usb.c ****   }
 352:Drivers/STM32F4xx_HAL_Driver/Src/stm32f4xx_ll_usb.c **** 
 353:Drivers/STM32F4xx_HAL_Driver/Src/stm32f4xx_ll_usb.c ****   /* Flush the FIFOs */
 354:Drivers/STM32F4xx_HAL_Driver/Src/stm32f4xx_ll_usb.c ****   if (USB_FlushTxFifo(USBx, 0x10U) != HAL_OK) /* all Tx FIFOs */
 733              		.loc 1 354 7
 734 00da 1021     		movs	r1, #16
 735 00dc 7868     		ldr	r0, [r7, #4]
 736 00de FFF7FEFF 		bl	USB_FlushTxFifo
 737 00e2 0346     		mov	r3, r0
 738              		.loc 1 354 6
ARM GAS  /tmp/ccaXZQ0T.s 			page 20


 739 00e4 002B     		cmp	r3, #0
 740 00e6 01D0     		beq	.L43
 355:Drivers/STM32F4xx_HAL_Driver/Src/stm32f4xx_ll_usb.c ****   {
 356:Drivers/STM32F4xx_HAL_Driver/Src/stm32f4xx_ll_usb.c ****     ret = HAL_ERROR;
 741              		.loc 1 356 9
 742 00e8 0123     		movs	r3, #1
 743 00ea FB75     		strb	r3, [r7, #23]
 744              	.L43:
 357:Drivers/STM32F4xx_HAL_Driver/Src/stm32f4xx_ll_usb.c ****   }
 358:Drivers/STM32F4xx_HAL_Driver/Src/stm32f4xx_ll_usb.c **** 
 359:Drivers/STM32F4xx_HAL_Driver/Src/stm32f4xx_ll_usb.c ****   if (USB_FlushRxFifo(USBx) != HAL_OK)
 745              		.loc 1 359 7
 746 00ec 7868     		ldr	r0, [r7, #4]
 747 00ee FFF7FEFF 		bl	USB_FlushRxFifo
 748 00f2 0346     		mov	r3, r0
 749              		.loc 1 359 6
 750 00f4 002B     		cmp	r3, #0
 751 00f6 01D0     		beq	.L44
 360:Drivers/STM32F4xx_HAL_Driver/Src/stm32f4xx_ll_usb.c ****   {
 361:Drivers/STM32F4xx_HAL_Driver/Src/stm32f4xx_ll_usb.c ****     ret = HAL_ERROR;
 752              		.loc 1 361 9
 753 00f8 0123     		movs	r3, #1
 754 00fa FB75     		strb	r3, [r7, #23]
 755              	.L44:
 362:Drivers/STM32F4xx_HAL_Driver/Src/stm32f4xx_ll_usb.c ****   }
 363:Drivers/STM32F4xx_HAL_Driver/Src/stm32f4xx_ll_usb.c **** 
 364:Drivers/STM32F4xx_HAL_Driver/Src/stm32f4xx_ll_usb.c ****   /* Clear all pending Device Interrupts */
 365:Drivers/STM32F4xx_HAL_Driver/Src/stm32f4xx_ll_usb.c ****   USBx_DEVICE->DIEPMSK = 0U;
 756              		.loc 1 365 3
 757 00fc FB68     		ldr	r3, [r7, #12]
 758 00fe 03F50063 		add	r3, r3, #2048
 759 0102 1A46     		mov	r2, r3
 760              		.loc 1 365 24
 761 0104 0023     		movs	r3, #0
 762 0106 1361     		str	r3, [r2, #16]
 366:Drivers/STM32F4xx_HAL_Driver/Src/stm32f4xx_ll_usb.c ****   USBx_DEVICE->DOEPMSK = 0U;
 763              		.loc 1 366 3
 764 0108 FB68     		ldr	r3, [r7, #12]
 765 010a 03F50063 		add	r3, r3, #2048
 766 010e 1A46     		mov	r2, r3
 767              		.loc 1 366 24
 768 0110 0023     		movs	r3, #0
 769 0112 5361     		str	r3, [r2, #20]
 367:Drivers/STM32F4xx_HAL_Driver/Src/stm32f4xx_ll_usb.c ****   USBx_DEVICE->DAINTMSK = 0U;
 770              		.loc 1 367 3
 771 0114 FB68     		ldr	r3, [r7, #12]
 772 0116 03F50063 		add	r3, r3, #2048
 773 011a 1A46     		mov	r2, r3
 774              		.loc 1 367 25
 775 011c 0023     		movs	r3, #0
 776 011e D361     		str	r3, [r2, #28]
 368:Drivers/STM32F4xx_HAL_Driver/Src/stm32f4xx_ll_usb.c **** 
 369:Drivers/STM32F4xx_HAL_Driver/Src/stm32f4xx_ll_usb.c ****   for (i = 0U; i < cfg.dev_endpoints; i++)
 777              		.loc 1 369 10
 778 0120 0023     		movs	r3, #0
 779 0122 3B61     		str	r3, [r7, #16]
 780              		.loc 1 369 3
ARM GAS  /tmp/ccaXZQ0T.s 			page 21


 781 0124 43E0     		b	.L45
 782              	.L50:
 370:Drivers/STM32F4xx_HAL_Driver/Src/stm32f4xx_ll_usb.c ****   {
 371:Drivers/STM32F4xx_HAL_Driver/Src/stm32f4xx_ll_usb.c ****     if ((USBx_INEP(i)->DIEPCTL & USB_OTG_DIEPCTL_EPENA) == USB_OTG_DIEPCTL_EPENA)
 783              		.loc 1 371 10
 784 0126 3B69     		ldr	r3, [r7, #16]
 785 0128 5A01     		lsls	r2, r3, #5
 786 012a FB68     		ldr	r3, [r7, #12]
 787 012c 1344     		add	r3, r3, r2
 788 012e 03F51063 		add	r3, r3, #2304
 789              		.loc 1 371 22
 790 0132 1B68     		ldr	r3, [r3]
 791              		.loc 1 371 32
 792 0134 03F00043 		and	r3, r3, #-2147483648
 793              		.loc 1 371 8
 794 0138 B3F1004F 		cmp	r3, #-2147483648
 795 013c 18D1     		bne	.L46
 372:Drivers/STM32F4xx_HAL_Driver/Src/stm32f4xx_ll_usb.c ****     {
 373:Drivers/STM32F4xx_HAL_Driver/Src/stm32f4xx_ll_usb.c ****       if (i == 0U)
 796              		.loc 1 373 10
 797 013e 3B69     		ldr	r3, [r7, #16]
 798 0140 002B     		cmp	r3, #0
 799 0142 0AD1     		bne	.L47
 374:Drivers/STM32F4xx_HAL_Driver/Src/stm32f4xx_ll_usb.c ****       {
 375:Drivers/STM32F4xx_HAL_Driver/Src/stm32f4xx_ll_usb.c ****         USBx_INEP(i)->DIEPCTL = USB_OTG_DIEPCTL_SNAK;
 800              		.loc 1 375 9
 801 0144 3B69     		ldr	r3, [r7, #16]
 802 0146 5A01     		lsls	r2, r3, #5
 803 0148 FB68     		ldr	r3, [r7, #12]
 804 014a 1344     		add	r3, r3, r2
 805 014c 03F51063 		add	r3, r3, #2304
 806 0150 1A46     		mov	r2, r3
 807              		.loc 1 375 31
 808 0152 4FF00063 		mov	r3, #134217728
 809 0156 1360     		str	r3, [r2]
 810 0158 13E0     		b	.L49
 811              	.L47:
 376:Drivers/STM32F4xx_HAL_Driver/Src/stm32f4xx_ll_usb.c ****       }
 377:Drivers/STM32F4xx_HAL_Driver/Src/stm32f4xx_ll_usb.c ****       else
 378:Drivers/STM32F4xx_HAL_Driver/Src/stm32f4xx_ll_usb.c ****       {
 379:Drivers/STM32F4xx_HAL_Driver/Src/stm32f4xx_ll_usb.c ****         USBx_INEP(i)->DIEPCTL = USB_OTG_DIEPCTL_EPDIS | USB_OTG_DIEPCTL_SNAK;
 812              		.loc 1 379 9
 813 015a 3B69     		ldr	r3, [r7, #16]
 814 015c 5A01     		lsls	r2, r3, #5
 815 015e FB68     		ldr	r3, [r7, #12]
 816 0160 1344     		add	r3, r3, r2
 817 0162 03F51063 		add	r3, r3, #2304
 818 0166 1A46     		mov	r2, r3
 819              		.loc 1 379 31
 820 0168 4FF09043 		mov	r3, #1207959552
 821 016c 1360     		str	r3, [r2]
 822 016e 08E0     		b	.L49
 823              	.L46:
 380:Drivers/STM32F4xx_HAL_Driver/Src/stm32f4xx_ll_usb.c ****       }
 381:Drivers/STM32F4xx_HAL_Driver/Src/stm32f4xx_ll_usb.c ****     }
 382:Drivers/STM32F4xx_HAL_Driver/Src/stm32f4xx_ll_usb.c ****     else
 383:Drivers/STM32F4xx_HAL_Driver/Src/stm32f4xx_ll_usb.c ****     {
ARM GAS  /tmp/ccaXZQ0T.s 			page 22


 384:Drivers/STM32F4xx_HAL_Driver/Src/stm32f4xx_ll_usb.c ****       USBx_INEP(i)->DIEPCTL = 0U;
 824              		.loc 1 384 7
 825 0170 3B69     		ldr	r3, [r7, #16]
 826 0172 5A01     		lsls	r2, r3, #5
 827 0174 FB68     		ldr	r3, [r7, #12]
 828 0176 1344     		add	r3, r3, r2
 829 0178 03F51063 		add	r3, r3, #2304
 830 017c 1A46     		mov	r2, r3
 831              		.loc 1 384 29
 832 017e 0023     		movs	r3, #0
 833 0180 1360     		str	r3, [r2]
 834              	.L49:
 385:Drivers/STM32F4xx_HAL_Driver/Src/stm32f4xx_ll_usb.c ****     }
 386:Drivers/STM32F4xx_HAL_Driver/Src/stm32f4xx_ll_usb.c **** 
 387:Drivers/STM32F4xx_HAL_Driver/Src/stm32f4xx_ll_usb.c ****     USBx_INEP(i)->DIEPTSIZ = 0U;
 835              		.loc 1 387 5 discriminator 2
 836 0182 3B69     		ldr	r3, [r7, #16]
 837 0184 5A01     		lsls	r2, r3, #5
 838 0186 FB68     		ldr	r3, [r7, #12]
 839 0188 1344     		add	r3, r3, r2
 840 018a 03F51063 		add	r3, r3, #2304
 841 018e 1A46     		mov	r2, r3
 842              		.loc 1 387 28 discriminator 2
 843 0190 0023     		movs	r3, #0
 844 0192 1361     		str	r3, [r2, #16]
 388:Drivers/STM32F4xx_HAL_Driver/Src/stm32f4xx_ll_usb.c ****     USBx_INEP(i)->DIEPINT  = 0xFB7FU;
 845              		.loc 1 388 5 discriminator 2
 846 0194 3B69     		ldr	r3, [r7, #16]
 847 0196 5A01     		lsls	r2, r3, #5
 848 0198 FB68     		ldr	r3, [r7, #12]
 849 019a 1344     		add	r3, r3, r2
 850 019c 03F51063 		add	r3, r3, #2304
 851 01a0 1A46     		mov	r2, r3
 852              		.loc 1 388 28 discriminator 2
 853 01a2 4FF67F33 		movw	r3, #64383
 854 01a6 9360     		str	r3, [r2, #8]
 369:Drivers/STM32F4xx_HAL_Driver/Src/stm32f4xx_ll_usb.c ****   {
 855              		.loc 1 369 40 discriminator 2
 856 01a8 3B69     		ldr	r3, [r7, #16]
 857 01aa 0133     		adds	r3, r3, #1
 858 01ac 3B61     		str	r3, [r7, #16]
 859              	.L45:
 369:Drivers/STM32F4xx_HAL_Driver/Src/stm32f4xx_ll_usb.c ****   {
 860              		.loc 1 369 23 discriminator 1
 861 01ae 7B6A     		ldr	r3, [r7, #36]
 369:Drivers/STM32F4xx_HAL_Driver/Src/stm32f4xx_ll_usb.c ****   {
 862              		.loc 1 369 3 discriminator 1
 863 01b0 3A69     		ldr	r2, [r7, #16]
 864 01b2 9A42     		cmp	r2, r3
 865 01b4 B7D3     		bcc	.L50
 389:Drivers/STM32F4xx_HAL_Driver/Src/stm32f4xx_ll_usb.c ****   }
 390:Drivers/STM32F4xx_HAL_Driver/Src/stm32f4xx_ll_usb.c **** 
 391:Drivers/STM32F4xx_HAL_Driver/Src/stm32f4xx_ll_usb.c ****   for (i = 0U; i < cfg.dev_endpoints; i++)
 866              		.loc 1 391 10
 867 01b6 0023     		movs	r3, #0
 868 01b8 3B61     		str	r3, [r7, #16]
 869              		.loc 1 391 3
ARM GAS  /tmp/ccaXZQ0T.s 			page 23


 870 01ba 43E0     		b	.L51
 871              	.L56:
 392:Drivers/STM32F4xx_HAL_Driver/Src/stm32f4xx_ll_usb.c ****   {
 393:Drivers/STM32F4xx_HAL_Driver/Src/stm32f4xx_ll_usb.c ****     if ((USBx_OUTEP(i)->DOEPCTL & USB_OTG_DOEPCTL_EPENA) == USB_OTG_DOEPCTL_EPENA)
 872              		.loc 1 393 10
 873 01bc 3B69     		ldr	r3, [r7, #16]
 874 01be 5A01     		lsls	r2, r3, #5
 875 01c0 FB68     		ldr	r3, [r7, #12]
 876 01c2 1344     		add	r3, r3, r2
 877 01c4 03F53063 		add	r3, r3, #2816
 878              		.loc 1 393 23
 879 01c8 1B68     		ldr	r3, [r3]
 880              		.loc 1 393 33
 881 01ca 03F00043 		and	r3, r3, #-2147483648
 882              		.loc 1 393 8
 883 01ce B3F1004F 		cmp	r3, #-2147483648
 884 01d2 18D1     		bne	.L52
 394:Drivers/STM32F4xx_HAL_Driver/Src/stm32f4xx_ll_usb.c ****     {
 395:Drivers/STM32F4xx_HAL_Driver/Src/stm32f4xx_ll_usb.c ****       if (i == 0U)
 885              		.loc 1 395 10
 886 01d4 3B69     		ldr	r3, [r7, #16]
 887 01d6 002B     		cmp	r3, #0
 888 01d8 0AD1     		bne	.L53
 396:Drivers/STM32F4xx_HAL_Driver/Src/stm32f4xx_ll_usb.c ****       {
 397:Drivers/STM32F4xx_HAL_Driver/Src/stm32f4xx_ll_usb.c ****         USBx_OUTEP(i)->DOEPCTL = USB_OTG_DOEPCTL_SNAK;
 889              		.loc 1 397 9
 890 01da 3B69     		ldr	r3, [r7, #16]
 891 01dc 5A01     		lsls	r2, r3, #5
 892 01de FB68     		ldr	r3, [r7, #12]
 893 01e0 1344     		add	r3, r3, r2
 894 01e2 03F53063 		add	r3, r3, #2816
 895 01e6 1A46     		mov	r2, r3
 896              		.loc 1 397 32
 897 01e8 4FF00063 		mov	r3, #134217728
 898 01ec 1360     		str	r3, [r2]
 899 01ee 13E0     		b	.L55
 900              	.L53:
 398:Drivers/STM32F4xx_HAL_Driver/Src/stm32f4xx_ll_usb.c ****       }
 399:Drivers/STM32F4xx_HAL_Driver/Src/stm32f4xx_ll_usb.c ****       else
 400:Drivers/STM32F4xx_HAL_Driver/Src/stm32f4xx_ll_usb.c ****       {
 401:Drivers/STM32F4xx_HAL_Driver/Src/stm32f4xx_ll_usb.c ****         USBx_OUTEP(i)->DOEPCTL = USB_OTG_DOEPCTL_EPDIS | USB_OTG_DOEPCTL_SNAK;
 901              		.loc 1 401 9
 902 01f0 3B69     		ldr	r3, [r7, #16]
 903 01f2 5A01     		lsls	r2, r3, #5
 904 01f4 FB68     		ldr	r3, [r7, #12]
 905 01f6 1344     		add	r3, r3, r2
 906 01f8 03F53063 		add	r3, r3, #2816
 907 01fc 1A46     		mov	r2, r3
 908              		.loc 1 401 32
 909 01fe 4FF09043 		mov	r3, #1207959552
 910 0202 1360     		str	r3, [r2]
 911 0204 08E0     		b	.L55
 912              	.L52:
 402:Drivers/STM32F4xx_HAL_Driver/Src/stm32f4xx_ll_usb.c ****       }
 403:Drivers/STM32F4xx_HAL_Driver/Src/stm32f4xx_ll_usb.c ****     }
 404:Drivers/STM32F4xx_HAL_Driver/Src/stm32f4xx_ll_usb.c ****     else
 405:Drivers/STM32F4xx_HAL_Driver/Src/stm32f4xx_ll_usb.c ****     {
ARM GAS  /tmp/ccaXZQ0T.s 			page 24


 406:Drivers/STM32F4xx_HAL_Driver/Src/stm32f4xx_ll_usb.c ****       USBx_OUTEP(i)->DOEPCTL = 0U;
 913              		.loc 1 406 7
 914 0206 3B69     		ldr	r3, [r7, #16]
 915 0208 5A01     		lsls	r2, r3, #5
 916 020a FB68     		ldr	r3, [r7, #12]
 917 020c 1344     		add	r3, r3, r2
 918 020e 03F53063 		add	r3, r3, #2816
 919 0212 1A46     		mov	r2, r3
 920              		.loc 1 406 30
 921 0214 0023     		movs	r3, #0
 922 0216 1360     		str	r3, [r2]
 923              	.L55:
 407:Drivers/STM32F4xx_HAL_Driver/Src/stm32f4xx_ll_usb.c ****     }
 408:Drivers/STM32F4xx_HAL_Driver/Src/stm32f4xx_ll_usb.c **** 
 409:Drivers/STM32F4xx_HAL_Driver/Src/stm32f4xx_ll_usb.c ****     USBx_OUTEP(i)->DOEPTSIZ = 0U;
 924              		.loc 1 409 5 discriminator 2
 925 0218 3B69     		ldr	r3, [r7, #16]
 926 021a 5A01     		lsls	r2, r3, #5
 927 021c FB68     		ldr	r3, [r7, #12]
 928 021e 1344     		add	r3, r3, r2
 929 0220 03F53063 		add	r3, r3, #2816
 930 0224 1A46     		mov	r2, r3
 931              		.loc 1 409 29 discriminator 2
 932 0226 0023     		movs	r3, #0
 933 0228 1361     		str	r3, [r2, #16]
 410:Drivers/STM32F4xx_HAL_Driver/Src/stm32f4xx_ll_usb.c ****     USBx_OUTEP(i)->DOEPINT  = 0xFB7FU;
 934              		.loc 1 410 5 discriminator 2
 935 022a 3B69     		ldr	r3, [r7, #16]
 936 022c 5A01     		lsls	r2, r3, #5
 937 022e FB68     		ldr	r3, [r7, #12]
 938 0230 1344     		add	r3, r3, r2
 939 0232 03F53063 		add	r3, r3, #2816
 940 0236 1A46     		mov	r2, r3
 941              		.loc 1 410 29 discriminator 2
 942 0238 4FF67F33 		movw	r3, #64383
 943 023c 9360     		str	r3, [r2, #8]
 391:Drivers/STM32F4xx_HAL_Driver/Src/stm32f4xx_ll_usb.c ****   {
 944              		.loc 1 391 40 discriminator 2
 945 023e 3B69     		ldr	r3, [r7, #16]
 946 0240 0133     		adds	r3, r3, #1
 947 0242 3B61     		str	r3, [r7, #16]
 948              	.L51:
 391:Drivers/STM32F4xx_HAL_Driver/Src/stm32f4xx_ll_usb.c ****   {
 949              		.loc 1 391 23 discriminator 1
 950 0244 7B6A     		ldr	r3, [r7, #36]
 391:Drivers/STM32F4xx_HAL_Driver/Src/stm32f4xx_ll_usb.c ****   {
 951              		.loc 1 391 3 discriminator 1
 952 0246 3A69     		ldr	r2, [r7, #16]
 953 0248 9A42     		cmp	r2, r3
 954 024a B7D3     		bcc	.L56
 411:Drivers/STM32F4xx_HAL_Driver/Src/stm32f4xx_ll_usb.c ****   }
 412:Drivers/STM32F4xx_HAL_Driver/Src/stm32f4xx_ll_usb.c **** 
 413:Drivers/STM32F4xx_HAL_Driver/Src/stm32f4xx_ll_usb.c ****   USBx_DEVICE->DIEPMSK &= ~(USB_OTG_DIEPMSK_TXFURM);
 955              		.loc 1 413 24
 956 024c FB68     		ldr	r3, [r7, #12]
 957 024e 03F50063 		add	r3, r3, #2048
 958 0252 1B69     		ldr	r3, [r3, #16]
ARM GAS  /tmp/ccaXZQ0T.s 			page 25


 959 0254 FA68     		ldr	r2, [r7, #12]
 960 0256 02F50062 		add	r2, r2, #2048
 961 025a 23F48073 		bic	r3, r3, #256
 962 025e 1361     		str	r3, [r2, #16]
 414:Drivers/STM32F4xx_HAL_Driver/Src/stm32f4xx_ll_usb.c **** 
 415:Drivers/STM32F4xx_HAL_Driver/Src/stm32f4xx_ll_usb.c ****   /* Disable all interrupts. */
 416:Drivers/STM32F4xx_HAL_Driver/Src/stm32f4xx_ll_usb.c ****   USBx->GINTMSK = 0U;
 963              		.loc 1 416 17
 964 0260 7B68     		ldr	r3, [r7, #4]
 965 0262 0022     		movs	r2, #0
 966 0264 9A61     		str	r2, [r3, #24]
 417:Drivers/STM32F4xx_HAL_Driver/Src/stm32f4xx_ll_usb.c **** 
 418:Drivers/STM32F4xx_HAL_Driver/Src/stm32f4xx_ll_usb.c ****   /* Clear any pending interrupts */
 419:Drivers/STM32F4xx_HAL_Driver/Src/stm32f4xx_ll_usb.c ****   USBx->GINTSTS = 0xBFFFFFFFU;
 967              		.loc 1 419 17
 968 0266 7B68     		ldr	r3, [r7, #4]
 969 0268 6FF08042 		mvn	r2, #1073741824
 970 026c 5A61     		str	r2, [r3, #20]
 420:Drivers/STM32F4xx_HAL_Driver/Src/stm32f4xx_ll_usb.c **** 
 421:Drivers/STM32F4xx_HAL_Driver/Src/stm32f4xx_ll_usb.c ****   /* Enable the common interrupts */
 422:Drivers/STM32F4xx_HAL_Driver/Src/stm32f4xx_ll_usb.c ****   if (cfg.dma_enable == 0U)
 971              		.loc 1 422 10
 972 026e 3B6B     		ldr	r3, [r7, #48]
 973              		.loc 1 422 6
 974 0270 002B     		cmp	r3, #0
 975 0272 05D1     		bne	.L57
 423:Drivers/STM32F4xx_HAL_Driver/Src/stm32f4xx_ll_usb.c ****   {
 424:Drivers/STM32F4xx_HAL_Driver/Src/stm32f4xx_ll_usb.c ****     USBx->GINTMSK |= USB_OTG_GINTMSK_RXFLVLM;
 976              		.loc 1 424 19
 977 0274 7B68     		ldr	r3, [r7, #4]
 978 0276 9B69     		ldr	r3, [r3, #24]
 979 0278 43F01002 		orr	r2, r3, #16
 980 027c 7B68     		ldr	r3, [r7, #4]
 981 027e 9A61     		str	r2, [r3, #24]
 982              	.L57:
 425:Drivers/STM32F4xx_HAL_Driver/Src/stm32f4xx_ll_usb.c ****   }
 426:Drivers/STM32F4xx_HAL_Driver/Src/stm32f4xx_ll_usb.c **** 
 427:Drivers/STM32F4xx_HAL_Driver/Src/stm32f4xx_ll_usb.c ****   /* Enable interrupts matching to the Device mode ONLY */
 428:Drivers/STM32F4xx_HAL_Driver/Src/stm32f4xx_ll_usb.c ****   USBx->GINTMSK |= USB_OTG_GINTMSK_USBSUSPM | USB_OTG_GINTMSK_USBRST |
 983              		.loc 1 428 17
 984 0280 7B68     		ldr	r3, [r7, #4]
 985 0282 9A69     		ldr	r2, [r3, #24]
 986 0284 0F4B     		ldr	r3, .L61
 987 0286 1343     		orrs	r3, r3, r2
 988 0288 7A68     		ldr	r2, [r7, #4]
 989 028a 9361     		str	r3, [r2, #24]
 429:Drivers/STM32F4xx_HAL_Driver/Src/stm32f4xx_ll_usb.c ****                    USB_OTG_GINTMSK_ENUMDNEM | USB_OTG_GINTMSK_IEPINT |
 430:Drivers/STM32F4xx_HAL_Driver/Src/stm32f4xx_ll_usb.c ****                    USB_OTG_GINTMSK_OEPINT   | USB_OTG_GINTMSK_IISOIXFRM |
 431:Drivers/STM32F4xx_HAL_Driver/Src/stm32f4xx_ll_usb.c ****                    USB_OTG_GINTMSK_PXFRM_IISOOXFRM | USB_OTG_GINTMSK_WUIM;
 432:Drivers/STM32F4xx_HAL_Driver/Src/stm32f4xx_ll_usb.c **** 
 433:Drivers/STM32F4xx_HAL_Driver/Src/stm32f4xx_ll_usb.c ****   if (cfg.Sof_enable != 0U)
 990              		.loc 1 433 10
 991 028c FB6B     		ldr	r3, [r7, #60]
 992              		.loc 1 433 6
 993 028e 002B     		cmp	r3, #0
 994 0290 05D0     		beq	.L58
 434:Drivers/STM32F4xx_HAL_Driver/Src/stm32f4xx_ll_usb.c ****   {
ARM GAS  /tmp/ccaXZQ0T.s 			page 26


 435:Drivers/STM32F4xx_HAL_Driver/Src/stm32f4xx_ll_usb.c ****     USBx->GINTMSK |= USB_OTG_GINTMSK_SOFM;
 995              		.loc 1 435 19
 996 0292 7B68     		ldr	r3, [r7, #4]
 997 0294 9B69     		ldr	r3, [r3, #24]
 998 0296 43F00802 		orr	r2, r3, #8
 999 029a 7B68     		ldr	r3, [r7, #4]
 1000 029c 9A61     		str	r2, [r3, #24]
 1001              	.L58:
 436:Drivers/STM32F4xx_HAL_Driver/Src/stm32f4xx_ll_usb.c ****   }
 437:Drivers/STM32F4xx_HAL_Driver/Src/stm32f4xx_ll_usb.c **** 
 438:Drivers/STM32F4xx_HAL_Driver/Src/stm32f4xx_ll_usb.c ****   if (cfg.vbus_sensing_enable == 1U)
 1002              		.loc 1 438 10
 1003 029e FB6C     		ldr	r3, [r7, #76]
 1004              		.loc 1 438 6
 1005 02a0 012B     		cmp	r3, #1
 1006 02a2 07D1     		bne	.L59
 439:Drivers/STM32F4xx_HAL_Driver/Src/stm32f4xx_ll_usb.c ****   {
 440:Drivers/STM32F4xx_HAL_Driver/Src/stm32f4xx_ll_usb.c ****     USBx->GINTMSK |= (USB_OTG_GINTMSK_SRQIM | USB_OTG_GINTMSK_OTGINT);
 1007              		.loc 1 440 19
 1008 02a4 7B68     		ldr	r3, [r7, #4]
 1009 02a6 9B69     		ldr	r3, [r3, #24]
 1010 02a8 43F08043 		orr	r3, r3, #1073741824
 1011 02ac 43F00403 		orr	r3, r3, #4
 1012 02b0 7A68     		ldr	r2, [r7, #4]
 1013 02b2 9361     		str	r3, [r2, #24]
 1014              	.L59:
 441:Drivers/STM32F4xx_HAL_Driver/Src/stm32f4xx_ll_usb.c ****   }
 442:Drivers/STM32F4xx_HAL_Driver/Src/stm32f4xx_ll_usb.c **** 
 443:Drivers/STM32F4xx_HAL_Driver/Src/stm32f4xx_ll_usb.c ****   return ret;
 1015              		.loc 1 443 10
 1016 02b4 FB7D     		ldrb	r3, [r7, #23]	@ zero_extendqisi2
 444:Drivers/STM32F4xx_HAL_Driver/Src/stm32f4xx_ll_usb.c **** }
 1017              		.loc 1 444 1
 1018 02b6 1846     		mov	r0, r3
 1019 02b8 1837     		adds	r7, r7, #24
 1020              	.LCFI35:
 1021              		.cfi_def_cfa_offset 24
 1022 02ba BD46     		mov	sp, r7
 1023              	.LCFI36:
 1024              		.cfi_def_cfa_register 13
 1025              		@ sp needed
 1026 02bc BDE88040 		pop	{r7, lr}
 1027              	.LCFI37:
 1028              		.cfi_restore 14
 1029              		.cfi_restore 7
 1030              		.cfi_def_cfa_offset 16
 1031 02c0 04B0     		add	sp, sp, #16
 1032              	.LCFI38:
 1033              		.cfi_def_cfa_offset 0
 1034 02c2 7047     		bx	lr
 1035              	.L62:
 1036              		.align	2
 1037              	.L61:
 1038 02c4 00383C80 		.word	-2143537152
 1039              		.cfi_endproc
 1040              	.LFE135:
 1042              		.section	.text.USB_FlushTxFifo,"ax",%progbits
ARM GAS  /tmp/ccaXZQ0T.s 			page 27


 1043              		.align	1
 1044              		.global	USB_FlushTxFifo
 1045              		.syntax unified
 1046              		.thumb
 1047              		.thumb_func
 1048              		.fpu fpv4-sp-d16
 1050              	USB_FlushTxFifo:
 1051              	.LFB136:
 445:Drivers/STM32F4xx_HAL_Driver/Src/stm32f4xx_ll_usb.c **** 
 446:Drivers/STM32F4xx_HAL_Driver/Src/stm32f4xx_ll_usb.c **** /**
 447:Drivers/STM32F4xx_HAL_Driver/Src/stm32f4xx_ll_usb.c ****   * @brief  USB_OTG_FlushTxFifo : Flush a Tx FIFO
 448:Drivers/STM32F4xx_HAL_Driver/Src/stm32f4xx_ll_usb.c ****   * @param  USBx  Selected device
 449:Drivers/STM32F4xx_HAL_Driver/Src/stm32f4xx_ll_usb.c ****   * @param  num  FIFO number
 450:Drivers/STM32F4xx_HAL_Driver/Src/stm32f4xx_ll_usb.c ****   *         This parameter can be a value from 1 to 15
 451:Drivers/STM32F4xx_HAL_Driver/Src/stm32f4xx_ll_usb.c ****             15 means Flush all Tx FIFOs
 452:Drivers/STM32F4xx_HAL_Driver/Src/stm32f4xx_ll_usb.c ****   * @retval HAL status
 453:Drivers/STM32F4xx_HAL_Driver/Src/stm32f4xx_ll_usb.c ****   */
 454:Drivers/STM32F4xx_HAL_Driver/Src/stm32f4xx_ll_usb.c **** HAL_StatusTypeDef USB_FlushTxFifo(USB_OTG_GlobalTypeDef *USBx, uint32_t num)
 455:Drivers/STM32F4xx_HAL_Driver/Src/stm32f4xx_ll_usb.c **** {
 1052              		.loc 1 455 1
 1053              		.cfi_startproc
 1054              		@ args = 0, pretend = 0, frame = 16
 1055              		@ frame_needed = 1, uses_anonymous_args = 0
 1056              		@ link register save eliminated.
 1057 0000 80B4     		push	{r7}
 1058              	.LCFI39:
 1059              		.cfi_def_cfa_offset 4
 1060              		.cfi_offset 7, -4
 1061 0002 85B0     		sub	sp, sp, #20
 1062              	.LCFI40:
 1063              		.cfi_def_cfa_offset 24
 1064 0004 00AF     		add	r7, sp, #0
 1065              	.LCFI41:
 1066              		.cfi_def_cfa_register 7
 1067 0006 7860     		str	r0, [r7, #4]
 1068 0008 3960     		str	r1, [r7]
 456:Drivers/STM32F4xx_HAL_Driver/Src/stm32f4xx_ll_usb.c ****   uint32_t count = 0U;
 1069              		.loc 1 456 12
 1070 000a 0023     		movs	r3, #0
 1071 000c FB60     		str	r3, [r7, #12]
 457:Drivers/STM32F4xx_HAL_Driver/Src/stm32f4xx_ll_usb.c **** 
 458:Drivers/STM32F4xx_HAL_Driver/Src/stm32f4xx_ll_usb.c ****   USBx->GRSTCTL = (USB_OTG_GRSTCTL_TXFFLSH | (num << 6));
 1072              		.loc 1 458 51
 1073 000e 3B68     		ldr	r3, [r7]
 1074 0010 9B01     		lsls	r3, r3, #6
 1075              		.loc 1 458 44
 1076 0012 43F02002 		orr	r2, r3, #32
 1077              		.loc 1 458 17
 1078 0016 7B68     		ldr	r3, [r7, #4]
 1079 0018 1A61     		str	r2, [r3, #16]
 1080              	.L66:
 459:Drivers/STM32F4xx_HAL_Driver/Src/stm32f4xx_ll_usb.c **** 
 460:Drivers/STM32F4xx_HAL_Driver/Src/stm32f4xx_ll_usb.c ****   do
 461:Drivers/STM32F4xx_HAL_Driver/Src/stm32f4xx_ll_usb.c ****   {
 462:Drivers/STM32F4xx_HAL_Driver/Src/stm32f4xx_ll_usb.c ****     if (++count > 200000U)
 1081              		.loc 1 462 8
 1082 001a FB68     		ldr	r3, [r7, #12]
ARM GAS  /tmp/ccaXZQ0T.s 			page 28


 1083 001c 0133     		adds	r3, r3, #1
 1084 001e FB60     		str	r3, [r7, #12]
 1085 0020 FB68     		ldr	r3, [r7, #12]
 1086 0022 094A     		ldr	r2, .L67
 1087 0024 9342     		cmp	r3, r2
 1088 0026 01D9     		bls	.L64
 463:Drivers/STM32F4xx_HAL_Driver/Src/stm32f4xx_ll_usb.c ****     {
 464:Drivers/STM32F4xx_HAL_Driver/Src/stm32f4xx_ll_usb.c ****       return HAL_TIMEOUT;
 1089              		.loc 1 464 14
 1090 0028 0323     		movs	r3, #3
 1091 002a 06E0     		b	.L65
 1092              	.L64:
 465:Drivers/STM32F4xx_HAL_Driver/Src/stm32f4xx_ll_usb.c ****     }
 466:Drivers/STM32F4xx_HAL_Driver/Src/stm32f4xx_ll_usb.c ****   }
 467:Drivers/STM32F4xx_HAL_Driver/Src/stm32f4xx_ll_usb.c ****   while ((USBx->GRSTCTL & USB_OTG_GRSTCTL_TXFFLSH) == USB_OTG_GRSTCTL_TXFFLSH);
 1093              		.loc 1 467 15
 1094 002c 7B68     		ldr	r3, [r7, #4]
 1095 002e 1B69     		ldr	r3, [r3, #16]
 1096              		.loc 1 467 25
 1097 0030 03F02003 		and	r3, r3, #32
 1098              		.loc 1 467 3
 1099 0034 202B     		cmp	r3, #32
 1100 0036 F0D0     		beq	.L66
 468:Drivers/STM32F4xx_HAL_Driver/Src/stm32f4xx_ll_usb.c **** 
 469:Drivers/STM32F4xx_HAL_Driver/Src/stm32f4xx_ll_usb.c ****   return HAL_OK;
 1101              		.loc 1 469 10
 1102 0038 0023     		movs	r3, #0
 1103              	.L65:
 470:Drivers/STM32F4xx_HAL_Driver/Src/stm32f4xx_ll_usb.c **** }
 1104              		.loc 1 470 1
 1105 003a 1846     		mov	r0, r3
 1106 003c 1437     		adds	r7, r7, #20
 1107              	.LCFI42:
 1108              		.cfi_def_cfa_offset 4
 1109 003e BD46     		mov	sp, r7
 1110              	.LCFI43:
 1111              		.cfi_def_cfa_register 13
 1112              		@ sp needed
 1113 0040 5DF8047B 		ldr	r7, [sp], #4
 1114              	.LCFI44:
 1115              		.cfi_restore 7
 1116              		.cfi_def_cfa_offset 0
 1117 0044 7047     		bx	lr
 1118              	.L68:
 1119 0046 00BF     		.align	2
 1120              	.L67:
 1121 0048 400D0300 		.word	200000
 1122              		.cfi_endproc
 1123              	.LFE136:
 1125              		.section	.text.USB_FlushRxFifo,"ax",%progbits
 1126              		.align	1
 1127              		.global	USB_FlushRxFifo
 1128              		.syntax unified
 1129              		.thumb
 1130              		.thumb_func
 1131              		.fpu fpv4-sp-d16
 1133              	USB_FlushRxFifo:
ARM GAS  /tmp/ccaXZQ0T.s 			page 29


 1134              	.LFB137:
 471:Drivers/STM32F4xx_HAL_Driver/Src/stm32f4xx_ll_usb.c **** 
 472:Drivers/STM32F4xx_HAL_Driver/Src/stm32f4xx_ll_usb.c **** /**
 473:Drivers/STM32F4xx_HAL_Driver/Src/stm32f4xx_ll_usb.c ****   * @brief  USB_FlushRxFifo : Flush Rx FIFO
 474:Drivers/STM32F4xx_HAL_Driver/Src/stm32f4xx_ll_usb.c ****   * @param  USBx  Selected device
 475:Drivers/STM32F4xx_HAL_Driver/Src/stm32f4xx_ll_usb.c ****   * @retval HAL status
 476:Drivers/STM32F4xx_HAL_Driver/Src/stm32f4xx_ll_usb.c ****   */
 477:Drivers/STM32F4xx_HAL_Driver/Src/stm32f4xx_ll_usb.c **** HAL_StatusTypeDef USB_FlushRxFifo(USB_OTG_GlobalTypeDef *USBx)
 478:Drivers/STM32F4xx_HAL_Driver/Src/stm32f4xx_ll_usb.c **** {
 1135              		.loc 1 478 1
 1136              		.cfi_startproc
 1137              		@ args = 0, pretend = 0, frame = 16
 1138              		@ frame_needed = 1, uses_anonymous_args = 0
 1139              		@ link register save eliminated.
 1140 0000 80B4     		push	{r7}
 1141              	.LCFI45:
 1142              		.cfi_def_cfa_offset 4
 1143              		.cfi_offset 7, -4
 1144 0002 85B0     		sub	sp, sp, #20
 1145              	.LCFI46:
 1146              		.cfi_def_cfa_offset 24
 1147 0004 00AF     		add	r7, sp, #0
 1148              	.LCFI47:
 1149              		.cfi_def_cfa_register 7
 1150 0006 7860     		str	r0, [r7, #4]
 479:Drivers/STM32F4xx_HAL_Driver/Src/stm32f4xx_ll_usb.c ****   uint32_t count = 0;
 1151              		.loc 1 479 12
 1152 0008 0023     		movs	r3, #0
 1153 000a FB60     		str	r3, [r7, #12]
 480:Drivers/STM32F4xx_HAL_Driver/Src/stm32f4xx_ll_usb.c **** 
 481:Drivers/STM32F4xx_HAL_Driver/Src/stm32f4xx_ll_usb.c ****   USBx->GRSTCTL = USB_OTG_GRSTCTL_RXFFLSH;
 1154              		.loc 1 481 17
 1155 000c 7B68     		ldr	r3, [r7, #4]
 1156 000e 1022     		movs	r2, #16
 1157 0010 1A61     		str	r2, [r3, #16]
 1158              	.L72:
 482:Drivers/STM32F4xx_HAL_Driver/Src/stm32f4xx_ll_usb.c **** 
 483:Drivers/STM32F4xx_HAL_Driver/Src/stm32f4xx_ll_usb.c ****   do
 484:Drivers/STM32F4xx_HAL_Driver/Src/stm32f4xx_ll_usb.c ****   {
 485:Drivers/STM32F4xx_HAL_Driver/Src/stm32f4xx_ll_usb.c ****     if (++count > 200000U)
 1159              		.loc 1 485 8
 1160 0012 FB68     		ldr	r3, [r7, #12]
 1161 0014 0133     		adds	r3, r3, #1
 1162 0016 FB60     		str	r3, [r7, #12]
 1163 0018 FB68     		ldr	r3, [r7, #12]
 1164 001a 094A     		ldr	r2, .L73
 1165 001c 9342     		cmp	r3, r2
 1166 001e 01D9     		bls	.L70
 486:Drivers/STM32F4xx_HAL_Driver/Src/stm32f4xx_ll_usb.c ****     {
 487:Drivers/STM32F4xx_HAL_Driver/Src/stm32f4xx_ll_usb.c ****       return HAL_TIMEOUT;
 1167              		.loc 1 487 14
 1168 0020 0323     		movs	r3, #3
 1169 0022 06E0     		b	.L71
 1170              	.L70:
 488:Drivers/STM32F4xx_HAL_Driver/Src/stm32f4xx_ll_usb.c ****     }
 489:Drivers/STM32F4xx_HAL_Driver/Src/stm32f4xx_ll_usb.c ****   }
 490:Drivers/STM32F4xx_HAL_Driver/Src/stm32f4xx_ll_usb.c ****   while ((USBx->GRSTCTL & USB_OTG_GRSTCTL_RXFFLSH) == USB_OTG_GRSTCTL_RXFFLSH);
ARM GAS  /tmp/ccaXZQ0T.s 			page 30


 1171              		.loc 1 490 15
 1172 0024 7B68     		ldr	r3, [r7, #4]
 1173 0026 1B69     		ldr	r3, [r3, #16]
 1174              		.loc 1 490 25
 1175 0028 03F01003 		and	r3, r3, #16
 1176              		.loc 1 490 3
 1177 002c 102B     		cmp	r3, #16
 1178 002e F0D0     		beq	.L72
 491:Drivers/STM32F4xx_HAL_Driver/Src/stm32f4xx_ll_usb.c **** 
 492:Drivers/STM32F4xx_HAL_Driver/Src/stm32f4xx_ll_usb.c ****   return HAL_OK;
 1179              		.loc 1 492 10
 1180 0030 0023     		movs	r3, #0
 1181              	.L71:
 493:Drivers/STM32F4xx_HAL_Driver/Src/stm32f4xx_ll_usb.c **** }
 1182              		.loc 1 493 1
 1183 0032 1846     		mov	r0, r3
 1184 0034 1437     		adds	r7, r7, #20
 1185              	.LCFI48:
 1186              		.cfi_def_cfa_offset 4
 1187 0036 BD46     		mov	sp, r7
 1188              	.LCFI49:
 1189              		.cfi_def_cfa_register 13
 1190              		@ sp needed
 1191 0038 5DF8047B 		ldr	r7, [sp], #4
 1192              	.LCFI50:
 1193              		.cfi_restore 7
 1194              		.cfi_def_cfa_offset 0
 1195 003c 7047     		bx	lr
 1196              	.L74:
 1197 003e 00BF     		.align	2
 1198              	.L73:
 1199 0040 400D0300 		.word	200000
 1200              		.cfi_endproc
 1201              	.LFE137:
 1203              		.section	.text.USB_SetDevSpeed,"ax",%progbits
 1204              		.align	1
 1205              		.global	USB_SetDevSpeed
 1206              		.syntax unified
 1207              		.thumb
 1208              		.thumb_func
 1209              		.fpu fpv4-sp-d16
 1211              	USB_SetDevSpeed:
 1212              	.LFB138:
 494:Drivers/STM32F4xx_HAL_Driver/Src/stm32f4xx_ll_usb.c **** 
 495:Drivers/STM32F4xx_HAL_Driver/Src/stm32f4xx_ll_usb.c **** /**
 496:Drivers/STM32F4xx_HAL_Driver/Src/stm32f4xx_ll_usb.c ****   * @brief  USB_SetDevSpeed  Initializes the DevSpd field of DCFG register
 497:Drivers/STM32F4xx_HAL_Driver/Src/stm32f4xx_ll_usb.c ****   *         depending the PHY type and the enumeration speed of the device.
 498:Drivers/STM32F4xx_HAL_Driver/Src/stm32f4xx_ll_usb.c ****   * @param  USBx  Selected device
 499:Drivers/STM32F4xx_HAL_Driver/Src/stm32f4xx_ll_usb.c ****   * @param  speed  device speed
 500:Drivers/STM32F4xx_HAL_Driver/Src/stm32f4xx_ll_usb.c ****   *          This parameter can be one of these values:
 501:Drivers/STM32F4xx_HAL_Driver/Src/stm32f4xx_ll_usb.c ****   *            @arg USB_OTG_SPEED_HIGH: High speed mode
 502:Drivers/STM32F4xx_HAL_Driver/Src/stm32f4xx_ll_usb.c ****   *            @arg USB_OTG_SPEED_HIGH_IN_FULL: High speed core in Full Speed mode
 503:Drivers/STM32F4xx_HAL_Driver/Src/stm32f4xx_ll_usb.c ****   *            @arg USB_OTG_SPEED_FULL: Full speed mode
 504:Drivers/STM32F4xx_HAL_Driver/Src/stm32f4xx_ll_usb.c ****   * @retval  Hal status
 505:Drivers/STM32F4xx_HAL_Driver/Src/stm32f4xx_ll_usb.c ****   */
 506:Drivers/STM32F4xx_HAL_Driver/Src/stm32f4xx_ll_usb.c **** HAL_StatusTypeDef USB_SetDevSpeed(USB_OTG_GlobalTypeDef *USBx, uint8_t speed)
 507:Drivers/STM32F4xx_HAL_Driver/Src/stm32f4xx_ll_usb.c **** {
ARM GAS  /tmp/ccaXZQ0T.s 			page 31


 1213              		.loc 1 507 1
 1214              		.cfi_startproc
 1215              		@ args = 0, pretend = 0, frame = 16
 1216              		@ frame_needed = 1, uses_anonymous_args = 0
 1217              		@ link register save eliminated.
 1218 0000 80B4     		push	{r7}
 1219              	.LCFI51:
 1220              		.cfi_def_cfa_offset 4
 1221              		.cfi_offset 7, -4
 1222 0002 85B0     		sub	sp, sp, #20
 1223              	.LCFI52:
 1224              		.cfi_def_cfa_offset 24
 1225 0004 00AF     		add	r7, sp, #0
 1226              	.LCFI53:
 1227              		.cfi_def_cfa_register 7
 1228 0006 7860     		str	r0, [r7, #4]
 1229 0008 0B46     		mov	r3, r1
 1230 000a FB70     		strb	r3, [r7, #3]
 508:Drivers/STM32F4xx_HAL_Driver/Src/stm32f4xx_ll_usb.c ****   uint32_t USBx_BASE = (uint32_t)USBx;
 1231              		.loc 1 508 12
 1232 000c 7B68     		ldr	r3, [r7, #4]
 1233 000e FB60     		str	r3, [r7, #12]
 509:Drivers/STM32F4xx_HAL_Driver/Src/stm32f4xx_ll_usb.c **** 
 510:Drivers/STM32F4xx_HAL_Driver/Src/stm32f4xx_ll_usb.c ****   USBx_DEVICE->DCFG |= speed;
 1234              		.loc 1 510 21
 1235 0010 FB68     		ldr	r3, [r7, #12]
 1236 0012 03F50063 		add	r3, r3, #2048
 1237 0016 1A68     		ldr	r2, [r3]
 1238 0018 FB78     		ldrb	r3, [r7, #3]	@ zero_extendqisi2
 1239 001a F968     		ldr	r1, [r7, #12]
 1240 001c 01F50061 		add	r1, r1, #2048
 1241 0020 1343     		orrs	r3, r3, r2
 1242 0022 0B60     		str	r3, [r1]
 511:Drivers/STM32F4xx_HAL_Driver/Src/stm32f4xx_ll_usb.c ****   return HAL_OK;
 1243              		.loc 1 511 10
 1244 0024 0023     		movs	r3, #0
 512:Drivers/STM32F4xx_HAL_Driver/Src/stm32f4xx_ll_usb.c **** }
 1245              		.loc 1 512 1
 1246 0026 1846     		mov	r0, r3
 1247 0028 1437     		adds	r7, r7, #20
 1248              	.LCFI54:
 1249              		.cfi_def_cfa_offset 4
 1250 002a BD46     		mov	sp, r7
 1251              	.LCFI55:
 1252              		.cfi_def_cfa_register 13
 1253              		@ sp needed
 1254 002c 5DF8047B 		ldr	r7, [sp], #4
 1255              	.LCFI56:
 1256              		.cfi_restore 7
 1257              		.cfi_def_cfa_offset 0
 1258 0030 7047     		bx	lr
 1259              		.cfi_endproc
 1260              	.LFE138:
 1262              		.section	.text.USB_GetDevSpeed,"ax",%progbits
 1263              		.align	1
 1264              		.global	USB_GetDevSpeed
 1265              		.syntax unified
ARM GAS  /tmp/ccaXZQ0T.s 			page 32


 1266              		.thumb
 1267              		.thumb_func
 1268              		.fpu fpv4-sp-d16
 1270              	USB_GetDevSpeed:
 1271              	.LFB139:
 513:Drivers/STM32F4xx_HAL_Driver/Src/stm32f4xx_ll_usb.c **** 
 514:Drivers/STM32F4xx_HAL_Driver/Src/stm32f4xx_ll_usb.c **** /**
 515:Drivers/STM32F4xx_HAL_Driver/Src/stm32f4xx_ll_usb.c ****   * @brief  USB_GetDevSpeed  Return the Dev Speed
 516:Drivers/STM32F4xx_HAL_Driver/Src/stm32f4xx_ll_usb.c ****   * @param  USBx  Selected device
 517:Drivers/STM32F4xx_HAL_Driver/Src/stm32f4xx_ll_usb.c ****   * @retval speed  device speed
 518:Drivers/STM32F4xx_HAL_Driver/Src/stm32f4xx_ll_usb.c ****   *          This parameter can be one of these values:
 519:Drivers/STM32F4xx_HAL_Driver/Src/stm32f4xx_ll_usb.c ****   *            @arg PCD_SPEED_HIGH: High speed mode
 520:Drivers/STM32F4xx_HAL_Driver/Src/stm32f4xx_ll_usb.c ****   *            @arg PCD_SPEED_FULL: Full speed mode
 521:Drivers/STM32F4xx_HAL_Driver/Src/stm32f4xx_ll_usb.c ****   */
 522:Drivers/STM32F4xx_HAL_Driver/Src/stm32f4xx_ll_usb.c **** uint8_t USB_GetDevSpeed(USB_OTG_GlobalTypeDef *USBx)
 523:Drivers/STM32F4xx_HAL_Driver/Src/stm32f4xx_ll_usb.c **** {
 1272              		.loc 1 523 1
 1273              		.cfi_startproc
 1274              		@ args = 0, pretend = 0, frame = 24
 1275              		@ frame_needed = 1, uses_anonymous_args = 0
 1276              		@ link register save eliminated.
 1277 0000 80B4     		push	{r7}
 1278              	.LCFI57:
 1279              		.cfi_def_cfa_offset 4
 1280              		.cfi_offset 7, -4
 1281 0002 87B0     		sub	sp, sp, #28
 1282              	.LCFI58:
 1283              		.cfi_def_cfa_offset 32
 1284 0004 00AF     		add	r7, sp, #0
 1285              	.LCFI59:
 1286              		.cfi_def_cfa_register 7
 1287 0006 7860     		str	r0, [r7, #4]
 524:Drivers/STM32F4xx_HAL_Driver/Src/stm32f4xx_ll_usb.c ****   uint32_t USBx_BASE = (uint32_t)USBx;
 1288              		.loc 1 524 12
 1289 0008 7B68     		ldr	r3, [r7, #4]
 1290 000a 3B61     		str	r3, [r7, #16]
 525:Drivers/STM32F4xx_HAL_Driver/Src/stm32f4xx_ll_usb.c ****   uint8_t speed;
 526:Drivers/STM32F4xx_HAL_Driver/Src/stm32f4xx_ll_usb.c ****   uint32_t DevEnumSpeed = USBx_DEVICE->DSTS & USB_OTG_DSTS_ENUMSPD;
 1291              		.loc 1 526 27
 1292 000c 3B69     		ldr	r3, [r7, #16]
 1293 000e 03F50063 		add	r3, r3, #2048
 1294              		.loc 1 526 38
 1295 0012 9B68     		ldr	r3, [r3, #8]
 1296              		.loc 1 526 12
 1297 0014 03F00603 		and	r3, r3, #6
 1298 0018 FB60     		str	r3, [r7, #12]
 527:Drivers/STM32F4xx_HAL_Driver/Src/stm32f4xx_ll_usb.c **** 
 528:Drivers/STM32F4xx_HAL_Driver/Src/stm32f4xx_ll_usb.c ****   if (DevEnumSpeed == DSTS_ENUMSPD_HS_PHY_30MHZ_OR_60MHZ)
 1299              		.loc 1 528 6
 1300 001a FB68     		ldr	r3, [r7, #12]
 1301 001c 002B     		cmp	r3, #0
 1302 001e 02D1     		bne	.L78
 529:Drivers/STM32F4xx_HAL_Driver/Src/stm32f4xx_ll_usb.c ****   {
 530:Drivers/STM32F4xx_HAL_Driver/Src/stm32f4xx_ll_usb.c ****     speed = USBD_HS_SPEED;
 1303              		.loc 1 530 11
 1304 0020 0023     		movs	r3, #0
 1305 0022 FB75     		strb	r3, [r7, #23]
ARM GAS  /tmp/ccaXZQ0T.s 			page 33


 1306 0024 0AE0     		b	.L79
 1307              	.L78:
 531:Drivers/STM32F4xx_HAL_Driver/Src/stm32f4xx_ll_usb.c ****   }
 532:Drivers/STM32F4xx_HAL_Driver/Src/stm32f4xx_ll_usb.c ****   else if ((DevEnumSpeed == DSTS_ENUMSPD_FS_PHY_30MHZ_OR_60MHZ) ||
 1308              		.loc 1 532 11
 1309 0026 FB68     		ldr	r3, [r7, #12]
 1310 0028 022B     		cmp	r3, #2
 1311 002a 02D0     		beq	.L80
 1312              		.loc 1 532 65 discriminator 1
 1313 002c FB68     		ldr	r3, [r7, #12]
 1314 002e 062B     		cmp	r3, #6
 1315 0030 02D1     		bne	.L81
 1316              	.L80:
 533:Drivers/STM32F4xx_HAL_Driver/Src/stm32f4xx_ll_usb.c ****            (DevEnumSpeed == DSTS_ENUMSPD_FS_PHY_48MHZ))
 534:Drivers/STM32F4xx_HAL_Driver/Src/stm32f4xx_ll_usb.c ****   {
 535:Drivers/STM32F4xx_HAL_Driver/Src/stm32f4xx_ll_usb.c ****     speed = USBD_FS_SPEED;
 1317              		.loc 1 535 11
 1318 0032 0223     		movs	r3, #2
 1319 0034 FB75     		strb	r3, [r7, #23]
 1320 0036 01E0     		b	.L79
 1321              	.L81:
 536:Drivers/STM32F4xx_HAL_Driver/Src/stm32f4xx_ll_usb.c ****   }
 537:Drivers/STM32F4xx_HAL_Driver/Src/stm32f4xx_ll_usb.c ****   else
 538:Drivers/STM32F4xx_HAL_Driver/Src/stm32f4xx_ll_usb.c ****   {
 539:Drivers/STM32F4xx_HAL_Driver/Src/stm32f4xx_ll_usb.c ****     speed = 0xFU;
 1322              		.loc 1 539 11
 1323 0038 0F23     		movs	r3, #15
 1324 003a FB75     		strb	r3, [r7, #23]
 1325              	.L79:
 540:Drivers/STM32F4xx_HAL_Driver/Src/stm32f4xx_ll_usb.c ****   }
 541:Drivers/STM32F4xx_HAL_Driver/Src/stm32f4xx_ll_usb.c **** 
 542:Drivers/STM32F4xx_HAL_Driver/Src/stm32f4xx_ll_usb.c ****   return speed;
 1326              		.loc 1 542 10
 1327 003c FB7D     		ldrb	r3, [r7, #23]	@ zero_extendqisi2
 543:Drivers/STM32F4xx_HAL_Driver/Src/stm32f4xx_ll_usb.c **** }
 1328              		.loc 1 543 1
 1329 003e 1846     		mov	r0, r3
 1330 0040 1C37     		adds	r7, r7, #28
 1331              	.LCFI60:
 1332              		.cfi_def_cfa_offset 4
 1333 0042 BD46     		mov	sp, r7
 1334              	.LCFI61:
 1335              		.cfi_def_cfa_register 13
 1336              		@ sp needed
 1337 0044 5DF8047B 		ldr	r7, [sp], #4
 1338              	.LCFI62:
 1339              		.cfi_restore 7
 1340              		.cfi_def_cfa_offset 0
 1341 0048 7047     		bx	lr
 1342              		.cfi_endproc
 1343              	.LFE139:
 1345              		.section	.text.USB_ActivateEndpoint,"ax",%progbits
 1346              		.align	1
 1347              		.global	USB_ActivateEndpoint
 1348              		.syntax unified
 1349              		.thumb
 1350              		.thumb_func
ARM GAS  /tmp/ccaXZQ0T.s 			page 34


 1351              		.fpu fpv4-sp-d16
 1353              	USB_ActivateEndpoint:
 1354              	.LFB140:
 544:Drivers/STM32F4xx_HAL_Driver/Src/stm32f4xx_ll_usb.c **** 
 545:Drivers/STM32F4xx_HAL_Driver/Src/stm32f4xx_ll_usb.c **** /**
 546:Drivers/STM32F4xx_HAL_Driver/Src/stm32f4xx_ll_usb.c ****   * @brief  Activate and configure an endpoint
 547:Drivers/STM32F4xx_HAL_Driver/Src/stm32f4xx_ll_usb.c ****   * @param  USBx  Selected device
 548:Drivers/STM32F4xx_HAL_Driver/Src/stm32f4xx_ll_usb.c ****   * @param  ep pointer to endpoint structure
 549:Drivers/STM32F4xx_HAL_Driver/Src/stm32f4xx_ll_usb.c ****   * @retval HAL status
 550:Drivers/STM32F4xx_HAL_Driver/Src/stm32f4xx_ll_usb.c ****   */
 551:Drivers/STM32F4xx_HAL_Driver/Src/stm32f4xx_ll_usb.c **** HAL_StatusTypeDef USB_ActivateEndpoint(USB_OTG_GlobalTypeDef *USBx, USB_OTG_EPTypeDef *ep)
 552:Drivers/STM32F4xx_HAL_Driver/Src/stm32f4xx_ll_usb.c **** {
 1355              		.loc 1 552 1
 1356              		.cfi_startproc
 1357              		@ args = 0, pretend = 0, frame = 16
 1358              		@ frame_needed = 1, uses_anonymous_args = 0
 1359              		@ link register save eliminated.
 1360 0000 80B4     		push	{r7}
 1361              	.LCFI63:
 1362              		.cfi_def_cfa_offset 4
 1363              		.cfi_offset 7, -4
 1364 0002 85B0     		sub	sp, sp, #20
 1365              	.LCFI64:
 1366              		.cfi_def_cfa_offset 24
 1367 0004 00AF     		add	r7, sp, #0
 1368              	.LCFI65:
 1369              		.cfi_def_cfa_register 7
 1370 0006 7860     		str	r0, [r7, #4]
 1371 0008 3960     		str	r1, [r7]
 553:Drivers/STM32F4xx_HAL_Driver/Src/stm32f4xx_ll_usb.c ****   uint32_t USBx_BASE = (uint32_t)USBx;
 1372              		.loc 1 553 12
 1373 000a 7B68     		ldr	r3, [r7, #4]
 1374 000c FB60     		str	r3, [r7, #12]
 554:Drivers/STM32F4xx_HAL_Driver/Src/stm32f4xx_ll_usb.c ****   uint32_t epnum = (uint32_t)ep->num;
 1375              		.loc 1 554 32
 1376 000e 3B68     		ldr	r3, [r7]
 1377 0010 1B78     		ldrb	r3, [r3]	@ zero_extendqisi2
 1378              		.loc 1 554 12
 1379 0012 BB60     		str	r3, [r7, #8]
 555:Drivers/STM32F4xx_HAL_Driver/Src/stm32f4xx_ll_usb.c **** 
 556:Drivers/STM32F4xx_HAL_Driver/Src/stm32f4xx_ll_usb.c ****   if (ep->is_in == 1U)
 1380              		.loc 1 556 9
 1381 0014 3B68     		ldr	r3, [r7]
 1382 0016 5B78     		ldrb	r3, [r3, #1]	@ zero_extendqisi2
 1383              		.loc 1 556 6
 1384 0018 012B     		cmp	r3, #1
 1385 001a 3AD1     		bne	.L84
 557:Drivers/STM32F4xx_HAL_Driver/Src/stm32f4xx_ll_usb.c ****   {
 558:Drivers/STM32F4xx_HAL_Driver/Src/stm32f4xx_ll_usb.c ****     USBx_DEVICE->DAINTMSK |= USB_OTG_DAINTMSK_IEPM & (uint32_t)(1UL << (ep->num & EP_ADDR_MSK));
 1386              		.loc 1 558 27
 1387 001c FB68     		ldr	r3, [r7, #12]
 1388 001e 03F50063 		add	r3, r3, #2048
 1389 0022 DA69     		ldr	r2, [r3, #28]
 1390              		.loc 1 558 75
 1391 0024 3B68     		ldr	r3, [r7]
 1392 0026 1B78     		ldrb	r3, [r3]	@ zero_extendqisi2
 1393              		.loc 1 558 81
ARM GAS  /tmp/ccaXZQ0T.s 			page 35


 1394 0028 03F00F03 		and	r3, r3, #15
 1395              		.loc 1 558 54
 1396 002c 0121     		movs	r1, #1
 1397 002e 01FA03F3 		lsl	r3, r1, r3
 1398              		.loc 1 558 52
 1399 0032 9BB2     		uxth	r3, r3
 1400              		.loc 1 558 27
 1401 0034 F968     		ldr	r1, [r7, #12]
 1402 0036 01F50061 		add	r1, r1, #2048
 1403 003a 1343     		orrs	r3, r3, r2
 1404 003c CB61     		str	r3, [r1, #28]
 559:Drivers/STM32F4xx_HAL_Driver/Src/stm32f4xx_ll_usb.c **** 
 560:Drivers/STM32F4xx_HAL_Driver/Src/stm32f4xx_ll_usb.c ****     if ((USBx_INEP(epnum)->DIEPCTL & USB_OTG_DIEPCTL_USBAEP) == 0U)
 1405              		.loc 1 560 10
 1406 003e BB68     		ldr	r3, [r7, #8]
 1407 0040 5A01     		lsls	r2, r3, #5
 1408 0042 FB68     		ldr	r3, [r7, #12]
 1409 0044 1344     		add	r3, r3, r2
 1410 0046 03F51063 		add	r3, r3, #2304
 1411              		.loc 1 560 26
 1412 004a 1B68     		ldr	r3, [r3]
 1413              		.loc 1 560 36
 1414 004c 03F40043 		and	r3, r3, #32768
 1415              		.loc 1 560 8
 1416 0050 002B     		cmp	r3, #0
 1417 0052 55D1     		bne	.L86
 561:Drivers/STM32F4xx_HAL_Driver/Src/stm32f4xx_ll_usb.c ****     {
 562:Drivers/STM32F4xx_HAL_Driver/Src/stm32f4xx_ll_usb.c ****       USBx_INEP(epnum)->DIEPCTL |= (ep->maxpacket & USB_OTG_DIEPCTL_MPSIZ) |
 1418              		.loc 1 562 33
 1419 0054 BB68     		ldr	r3, [r7, #8]
 1420 0056 5A01     		lsls	r2, r3, #5
 1421 0058 FB68     		ldr	r3, [r7, #12]
 1422 005a 1344     		add	r3, r3, r2
 1423 005c 03F51063 		add	r3, r3, #2304
 1424 0060 1A68     		ldr	r2, [r3]
 1425              		.loc 1 562 39
 1426 0062 3B68     		ldr	r3, [r7]
 1427 0064 9B68     		ldr	r3, [r3, #8]
 1428              		.loc 1 562 51
 1429 0066 C3F30A01 		ubfx	r1, r3, #0, #11
 563:Drivers/STM32F4xx_HAL_Driver/Src/stm32f4xx_ll_usb.c ****                                    ((uint32_t)ep->type << 18) | (epnum << 22) |
 1430              		.loc 1 563 49
 1431 006a 3B68     		ldr	r3, [r7]
 1432 006c DB78     		ldrb	r3, [r3, #3]	@ zero_extendqisi2
 1433              		.loc 1 563 56
 1434 006e 9B04     		lsls	r3, r3, #18
 562:Drivers/STM32F4xx_HAL_Driver/Src/stm32f4xx_ll_usb.c ****                                    ((uint32_t)ep->type << 18) | (epnum << 22) |
 1435              		.loc 1 562 76
 1436 0070 1943     		orrs	r1, r1, r3
 1437              		.loc 1 563 72
 1438 0072 BB68     		ldr	r3, [r7, #8]
 1439 0074 9B05     		lsls	r3, r3, #22
 1440              		.loc 1 563 63
 1441 0076 0B43     		orrs	r3, r3, r1
 562:Drivers/STM32F4xx_HAL_Driver/Src/stm32f4xx_ll_usb.c ****                                    ((uint32_t)ep->type << 18) | (epnum << 22) |
 1442              		.loc 1 562 33
 1443 0078 1343     		orrs	r3, r3, r2
ARM GAS  /tmp/ccaXZQ0T.s 			page 36


 1444 007a BA68     		ldr	r2, [r7, #8]
 1445 007c 5101     		lsls	r1, r2, #5
 1446 007e FA68     		ldr	r2, [r7, #12]
 1447 0080 0A44     		add	r2, r2, r1
 1448 0082 02F51062 		add	r2, r2, #2304
 1449 0086 43F08053 		orr	r3, r3, #268435456
 1450 008a 43F40043 		orr	r3, r3, #32768
 1451 008e 1360     		str	r3, [r2]
 1452 0090 36E0     		b	.L86
 1453              	.L84:
 564:Drivers/STM32F4xx_HAL_Driver/Src/stm32f4xx_ll_usb.c ****                                    USB_OTG_DIEPCTL_SD0PID_SEVNFRM |
 565:Drivers/STM32F4xx_HAL_Driver/Src/stm32f4xx_ll_usb.c ****                                    USB_OTG_DIEPCTL_USBAEP;
 566:Drivers/STM32F4xx_HAL_Driver/Src/stm32f4xx_ll_usb.c ****     }
 567:Drivers/STM32F4xx_HAL_Driver/Src/stm32f4xx_ll_usb.c ****   }
 568:Drivers/STM32F4xx_HAL_Driver/Src/stm32f4xx_ll_usb.c ****   else
 569:Drivers/STM32F4xx_HAL_Driver/Src/stm32f4xx_ll_usb.c ****   {
 570:Drivers/STM32F4xx_HAL_Driver/Src/stm32f4xx_ll_usb.c ****     USBx_DEVICE->DAINTMSK |= USB_OTG_DAINTMSK_OEPM & ((uint32_t)(1UL << (ep->num & EP_ADDR_MSK)) <<
 1454              		.loc 1 570 27
 1455 0092 FB68     		ldr	r3, [r7, #12]
 1456 0094 03F50063 		add	r3, r3, #2048
 1457 0098 DA69     		ldr	r2, [r3, #28]
 1458              		.loc 1 570 76
 1459 009a 3B68     		ldr	r3, [r7]
 1460 009c 1B78     		ldrb	r3, [r3]	@ zero_extendqisi2
 1461              		.loc 1 570 82
 1462 009e 03F00F03 		and	r3, r3, #15
 1463              		.loc 1 570 55
 1464 00a2 0121     		movs	r1, #1
 1465 00a4 01FA03F3 		lsl	r3, r1, r3
 1466              		.loc 1 570 52
 1467 00a8 1B04     		lsls	r3, r3, #16
 1468              		.loc 1 570 27
 1469 00aa F968     		ldr	r1, [r7, #12]
 1470 00ac 01F50061 		add	r1, r1, #2048
 1471 00b0 1343     		orrs	r3, r3, r2
 1472 00b2 CB61     		str	r3, [r1, #28]
 571:Drivers/STM32F4xx_HAL_Driver/Src/stm32f4xx_ll_usb.c **** 
 572:Drivers/STM32F4xx_HAL_Driver/Src/stm32f4xx_ll_usb.c ****     if (((USBx_OUTEP(epnum)->DOEPCTL) & USB_OTG_DOEPCTL_USBAEP) == 0U)
 1473              		.loc 1 572 11
 1474 00b4 BB68     		ldr	r3, [r7, #8]
 1475 00b6 5A01     		lsls	r2, r3, #5
 1476 00b8 FB68     		ldr	r3, [r7, #12]
 1477 00ba 1344     		add	r3, r3, r2
 1478 00bc 03F53063 		add	r3, r3, #2816
 1479              		.loc 1 572 28
 1480 00c0 1B68     		ldr	r3, [r3]
 1481              		.loc 1 572 39
 1482 00c2 03F40043 		and	r3, r3, #32768
 1483              		.loc 1 572 8
 1484 00c6 002B     		cmp	r3, #0
 1485 00c8 1AD1     		bne	.L86
 573:Drivers/STM32F4xx_HAL_Driver/Src/stm32f4xx_ll_usb.c ****     {
 574:Drivers/STM32F4xx_HAL_Driver/Src/stm32f4xx_ll_usb.c ****       USBx_OUTEP(epnum)->DOEPCTL |= (ep->maxpacket & USB_OTG_DOEPCTL_MPSIZ) |
 1486              		.loc 1 574 34
 1487 00ca BB68     		ldr	r3, [r7, #8]
 1488 00cc 5A01     		lsls	r2, r3, #5
 1489 00ce FB68     		ldr	r3, [r7, #12]
ARM GAS  /tmp/ccaXZQ0T.s 			page 37


 1490 00d0 1344     		add	r3, r3, r2
 1491 00d2 03F53063 		add	r3, r3, #2816
 1492 00d6 1A68     		ldr	r2, [r3]
 1493              		.loc 1 574 40
 1494 00d8 3B68     		ldr	r3, [r7]
 1495 00da 9B68     		ldr	r3, [r3, #8]
 1496              		.loc 1 574 52
 1497 00dc C3F30A01 		ubfx	r1, r3, #0, #11
 575:Drivers/STM32F4xx_HAL_Driver/Src/stm32f4xx_ll_usb.c ****                                     ((uint32_t)ep->type << 18) |
 1498              		.loc 1 575 50
 1499 00e0 3B68     		ldr	r3, [r7]
 1500 00e2 DB78     		ldrb	r3, [r3, #3]	@ zero_extendqisi2
 1501              		.loc 1 575 57
 1502 00e4 9B04     		lsls	r3, r3, #18
 574:Drivers/STM32F4xx_HAL_Driver/Src/stm32f4xx_ll_usb.c ****                                     ((uint32_t)ep->type << 18) |
 1503              		.loc 1 574 77
 1504 00e6 0B43     		orrs	r3, r3, r1
 574:Drivers/STM32F4xx_HAL_Driver/Src/stm32f4xx_ll_usb.c ****                                     ((uint32_t)ep->type << 18) |
 1505              		.loc 1 574 34
 1506 00e8 1343     		orrs	r3, r3, r2
 1507 00ea BA68     		ldr	r2, [r7, #8]
 1508 00ec 5101     		lsls	r1, r2, #5
 1509 00ee FA68     		ldr	r2, [r7, #12]
 1510 00f0 0A44     		add	r2, r2, r1
 1511 00f2 02F53062 		add	r2, r2, #2816
 1512 00f6 43F08053 		orr	r3, r3, #268435456
 1513 00fa 43F40043 		orr	r3, r3, #32768
 1514 00fe 1360     		str	r3, [r2]
 1515              	.L86:
 576:Drivers/STM32F4xx_HAL_Driver/Src/stm32f4xx_ll_usb.c ****                                     USB_OTG_DIEPCTL_SD0PID_SEVNFRM |
 577:Drivers/STM32F4xx_HAL_Driver/Src/stm32f4xx_ll_usb.c ****                                     USB_OTG_DOEPCTL_USBAEP;
 578:Drivers/STM32F4xx_HAL_Driver/Src/stm32f4xx_ll_usb.c ****     }
 579:Drivers/STM32F4xx_HAL_Driver/Src/stm32f4xx_ll_usb.c ****   }
 580:Drivers/STM32F4xx_HAL_Driver/Src/stm32f4xx_ll_usb.c ****   return HAL_OK;
 1516              		.loc 1 580 10
 1517 0100 0023     		movs	r3, #0
 581:Drivers/STM32F4xx_HAL_Driver/Src/stm32f4xx_ll_usb.c **** }
 1518              		.loc 1 581 1
 1519 0102 1846     		mov	r0, r3
 1520 0104 1437     		adds	r7, r7, #20
 1521              	.LCFI66:
 1522              		.cfi_def_cfa_offset 4
 1523 0106 BD46     		mov	sp, r7
 1524              	.LCFI67:
 1525              		.cfi_def_cfa_register 13
 1526              		@ sp needed
 1527 0108 5DF8047B 		ldr	r7, [sp], #4
 1528              	.LCFI68:
 1529              		.cfi_restore 7
 1530              		.cfi_def_cfa_offset 0
 1531 010c 7047     		bx	lr
 1532              		.cfi_endproc
 1533              	.LFE140:
 1535              		.section	.text.USB_ActivateDedicatedEndpoint,"ax",%progbits
 1536              		.align	1
 1537              		.global	USB_ActivateDedicatedEndpoint
 1538              		.syntax unified
ARM GAS  /tmp/ccaXZQ0T.s 			page 38


 1539              		.thumb
 1540              		.thumb_func
 1541              		.fpu fpv4-sp-d16
 1543              	USB_ActivateDedicatedEndpoint:
 1544              	.LFB141:
 582:Drivers/STM32F4xx_HAL_Driver/Src/stm32f4xx_ll_usb.c **** 
 583:Drivers/STM32F4xx_HAL_Driver/Src/stm32f4xx_ll_usb.c **** /**
 584:Drivers/STM32F4xx_HAL_Driver/Src/stm32f4xx_ll_usb.c ****   * @brief  Activate and configure a dedicated endpoint
 585:Drivers/STM32F4xx_HAL_Driver/Src/stm32f4xx_ll_usb.c ****   * @param  USBx  Selected device
 586:Drivers/STM32F4xx_HAL_Driver/Src/stm32f4xx_ll_usb.c ****   * @param  ep pointer to endpoint structure
 587:Drivers/STM32F4xx_HAL_Driver/Src/stm32f4xx_ll_usb.c ****   * @retval HAL status
 588:Drivers/STM32F4xx_HAL_Driver/Src/stm32f4xx_ll_usb.c ****   */
 589:Drivers/STM32F4xx_HAL_Driver/Src/stm32f4xx_ll_usb.c **** HAL_StatusTypeDef USB_ActivateDedicatedEndpoint(USB_OTG_GlobalTypeDef *USBx, USB_OTG_EPTypeDef *ep)
 590:Drivers/STM32F4xx_HAL_Driver/Src/stm32f4xx_ll_usb.c **** {
 1545              		.loc 1 590 1
 1546              		.cfi_startproc
 1547              		@ args = 0, pretend = 0, frame = 16
 1548              		@ frame_needed = 1, uses_anonymous_args = 0
 1549              		@ link register save eliminated.
 1550 0000 80B4     		push	{r7}
 1551              	.LCFI69:
 1552              		.cfi_def_cfa_offset 4
 1553              		.cfi_offset 7, -4
 1554 0002 85B0     		sub	sp, sp, #20
 1555              	.LCFI70:
 1556              		.cfi_def_cfa_offset 24
 1557 0004 00AF     		add	r7, sp, #0
 1558              	.LCFI71:
 1559              		.cfi_def_cfa_register 7
 1560 0006 7860     		str	r0, [r7, #4]
 1561 0008 3960     		str	r1, [r7]
 591:Drivers/STM32F4xx_HAL_Driver/Src/stm32f4xx_ll_usb.c ****   uint32_t USBx_BASE = (uint32_t)USBx;
 1562              		.loc 1 591 12
 1563 000a 7B68     		ldr	r3, [r7, #4]
 1564 000c FB60     		str	r3, [r7, #12]
 592:Drivers/STM32F4xx_HAL_Driver/Src/stm32f4xx_ll_usb.c ****   uint32_t epnum = (uint32_t)ep->num;
 1565              		.loc 1 592 32
 1566 000e 3B68     		ldr	r3, [r7]
 1567 0010 1B78     		ldrb	r3, [r3]	@ zero_extendqisi2
 1568              		.loc 1 592 12
 1569 0012 BB60     		str	r3, [r7, #8]
 593:Drivers/STM32F4xx_HAL_Driver/Src/stm32f4xx_ll_usb.c **** 
 594:Drivers/STM32F4xx_HAL_Driver/Src/stm32f4xx_ll_usb.c ****   /* Read DEPCTLn register */
 595:Drivers/STM32F4xx_HAL_Driver/Src/stm32f4xx_ll_usb.c ****   if (ep->is_in == 1U)
 1570              		.loc 1 595 9
 1571 0014 3B68     		ldr	r3, [r7]
 1572 0016 5B78     		ldrb	r3, [r3, #1]	@ zero_extendqisi2
 1573              		.loc 1 595 6
 1574 0018 012B     		cmp	r3, #1
 1575 001a 3AD1     		bne	.L89
 596:Drivers/STM32F4xx_HAL_Driver/Src/stm32f4xx_ll_usb.c ****   {
 597:Drivers/STM32F4xx_HAL_Driver/Src/stm32f4xx_ll_usb.c ****     if (((USBx_INEP(epnum)->DIEPCTL) & USB_OTG_DIEPCTL_USBAEP) == 0U)
 1576              		.loc 1 597 11
 1577 001c BB68     		ldr	r3, [r7, #8]
 1578 001e 5A01     		lsls	r2, r3, #5
 1579 0020 FB68     		ldr	r3, [r7, #12]
 1580 0022 1344     		add	r3, r3, r2
ARM GAS  /tmp/ccaXZQ0T.s 			page 39


 1581 0024 03F51063 		add	r3, r3, #2304
 1582              		.loc 1 597 27
 1583 0028 1B68     		ldr	r3, [r3]
 1584              		.loc 1 597 38
 1585 002a 03F40043 		and	r3, r3, #32768
 1586              		.loc 1 597 8
 1587 002e 002B     		cmp	r3, #0
 1588 0030 1DD1     		bne	.L90
 598:Drivers/STM32F4xx_HAL_Driver/Src/stm32f4xx_ll_usb.c ****     {
 599:Drivers/STM32F4xx_HAL_Driver/Src/stm32f4xx_ll_usb.c ****       USBx_INEP(epnum)->DIEPCTL |= (ep->maxpacket & USB_OTG_DIEPCTL_MPSIZ) |
 1589              		.loc 1 599 33
 1590 0032 BB68     		ldr	r3, [r7, #8]
 1591 0034 5A01     		lsls	r2, r3, #5
 1592 0036 FB68     		ldr	r3, [r7, #12]
 1593 0038 1344     		add	r3, r3, r2
 1594 003a 03F51063 		add	r3, r3, #2304
 1595 003e 1A68     		ldr	r2, [r3]
 1596              		.loc 1 599 39
 1597 0040 3B68     		ldr	r3, [r7]
 1598 0042 9B68     		ldr	r3, [r3, #8]
 1599              		.loc 1 599 51
 1600 0044 C3F30A01 		ubfx	r1, r3, #0, #11
 600:Drivers/STM32F4xx_HAL_Driver/Src/stm32f4xx_ll_usb.c ****                                    ((uint32_t)ep->type << 18) | (epnum << 22) |
 1601              		.loc 1 600 49
 1602 0048 3B68     		ldr	r3, [r7]
 1603 004a DB78     		ldrb	r3, [r3, #3]	@ zero_extendqisi2
 1604              		.loc 1 600 56
 1605 004c 9B04     		lsls	r3, r3, #18
 599:Drivers/STM32F4xx_HAL_Driver/Src/stm32f4xx_ll_usb.c ****                                    ((uint32_t)ep->type << 18) | (epnum << 22) |
 1606              		.loc 1 599 76
 1607 004e 1943     		orrs	r1, r1, r3
 1608              		.loc 1 600 72
 1609 0050 BB68     		ldr	r3, [r7, #8]
 1610 0052 9B05     		lsls	r3, r3, #22
 1611              		.loc 1 600 63
 1612 0054 0B43     		orrs	r3, r3, r1
 599:Drivers/STM32F4xx_HAL_Driver/Src/stm32f4xx_ll_usb.c ****                                    ((uint32_t)ep->type << 18) | (epnum << 22) |
 1613              		.loc 1 599 33
 1614 0056 1343     		orrs	r3, r3, r2
 1615 0058 BA68     		ldr	r2, [r7, #8]
 1616 005a 5101     		lsls	r1, r2, #5
 1617 005c FA68     		ldr	r2, [r7, #12]
 1618 005e 0A44     		add	r2, r2, r1
 1619 0060 02F51062 		add	r2, r2, #2304
 1620 0064 43F08053 		orr	r3, r3, #268435456
 1621 0068 43F40043 		orr	r3, r3, #32768
 1622 006c 1360     		str	r3, [r2]
 1623              	.L90:
 601:Drivers/STM32F4xx_HAL_Driver/Src/stm32f4xx_ll_usb.c ****                                    USB_OTG_DIEPCTL_SD0PID_SEVNFRM |
 602:Drivers/STM32F4xx_HAL_Driver/Src/stm32f4xx_ll_usb.c ****                                    USB_OTG_DIEPCTL_USBAEP;
 603:Drivers/STM32F4xx_HAL_Driver/Src/stm32f4xx_ll_usb.c ****     }
 604:Drivers/STM32F4xx_HAL_Driver/Src/stm32f4xx_ll_usb.c **** 
 605:Drivers/STM32F4xx_HAL_Driver/Src/stm32f4xx_ll_usb.c ****     USBx_DEVICE->DEACHMSK |= USB_OTG_DAINTMSK_IEPM & (uint32_t)(1UL << (ep->num & EP_ADDR_MSK));
 1624              		.loc 1 605 27
 1625 006e FB68     		ldr	r3, [r7, #12]
 1626 0070 03F50063 		add	r3, r3, #2048
 1627 0074 DA6B     		ldr	r2, [r3, #60]
ARM GAS  /tmp/ccaXZQ0T.s 			page 40


 1628              		.loc 1 605 75
 1629 0076 3B68     		ldr	r3, [r7]
 1630 0078 1B78     		ldrb	r3, [r3]	@ zero_extendqisi2
 1631              		.loc 1 605 81
 1632 007a 03F00F03 		and	r3, r3, #15
 1633              		.loc 1 605 54
 1634 007e 0121     		movs	r1, #1
 1635 0080 01FA03F3 		lsl	r3, r1, r3
 1636              		.loc 1 605 52
 1637 0084 9BB2     		uxth	r3, r3
 1638              		.loc 1 605 27
 1639 0086 F968     		ldr	r1, [r7, #12]
 1640 0088 01F50061 		add	r1, r1, #2048
 1641 008c 1343     		orrs	r3, r3, r2
 1642 008e CB63     		str	r3, [r1, #60]
 1643 0090 37E0     		b	.L91
 1644              	.L89:
 606:Drivers/STM32F4xx_HAL_Driver/Src/stm32f4xx_ll_usb.c ****   }
 607:Drivers/STM32F4xx_HAL_Driver/Src/stm32f4xx_ll_usb.c ****   else
 608:Drivers/STM32F4xx_HAL_Driver/Src/stm32f4xx_ll_usb.c ****   {
 609:Drivers/STM32F4xx_HAL_Driver/Src/stm32f4xx_ll_usb.c ****     if (((USBx_OUTEP(epnum)->DOEPCTL) & USB_OTG_DOEPCTL_USBAEP) == 0U)
 1645              		.loc 1 609 11
 1646 0092 BB68     		ldr	r3, [r7, #8]
 1647 0094 5A01     		lsls	r2, r3, #5
 1648 0096 FB68     		ldr	r3, [r7, #12]
 1649 0098 1344     		add	r3, r3, r2
 1650 009a 03F53063 		add	r3, r3, #2816
 1651              		.loc 1 609 28
 1652 009e 1B68     		ldr	r3, [r3]
 1653              		.loc 1 609 39
 1654 00a0 03F40043 		and	r3, r3, #32768
 1655              		.loc 1 609 8
 1656 00a4 002B     		cmp	r3, #0
 1657 00a6 1BD1     		bne	.L92
 610:Drivers/STM32F4xx_HAL_Driver/Src/stm32f4xx_ll_usb.c ****     {
 611:Drivers/STM32F4xx_HAL_Driver/Src/stm32f4xx_ll_usb.c ****       USBx_OUTEP(epnum)->DOEPCTL |= (ep->maxpacket & USB_OTG_DOEPCTL_MPSIZ) |
 1658              		.loc 1 611 34
 1659 00a8 BB68     		ldr	r3, [r7, #8]
 1660 00aa 5A01     		lsls	r2, r3, #5
 1661 00ac FB68     		ldr	r3, [r7, #12]
 1662 00ae 1344     		add	r3, r3, r2
 1663 00b0 03F53063 		add	r3, r3, #2816
 1664 00b4 1A68     		ldr	r2, [r3]
 1665              		.loc 1 611 40
 1666 00b6 3B68     		ldr	r3, [r7]
 1667 00b8 9B68     		ldr	r3, [r3, #8]
 1668              		.loc 1 611 52
 1669 00ba C3F30A01 		ubfx	r1, r3, #0, #11
 612:Drivers/STM32F4xx_HAL_Driver/Src/stm32f4xx_ll_usb.c ****                                     ((uint32_t)ep->type << 18) | (epnum << 22) |
 1670              		.loc 1 612 50
 1671 00be 3B68     		ldr	r3, [r7]
 1672 00c0 DB78     		ldrb	r3, [r3, #3]	@ zero_extendqisi2
 1673              		.loc 1 612 57
 1674 00c2 9B04     		lsls	r3, r3, #18
 611:Drivers/STM32F4xx_HAL_Driver/Src/stm32f4xx_ll_usb.c ****                                     ((uint32_t)ep->type << 18) | (epnum << 22) |
 1675              		.loc 1 611 77
 1676 00c4 1943     		orrs	r1, r1, r3
ARM GAS  /tmp/ccaXZQ0T.s 			page 41


 1677              		.loc 1 612 73
 1678 00c6 BB68     		ldr	r3, [r7, #8]
 1679 00c8 9B05     		lsls	r3, r3, #22
 1680              		.loc 1 612 64
 1681 00ca 0B43     		orrs	r3, r3, r1
 611:Drivers/STM32F4xx_HAL_Driver/Src/stm32f4xx_ll_usb.c ****                                     ((uint32_t)ep->type << 18) | (epnum << 22) |
 1682              		.loc 1 611 34
 1683 00cc 1343     		orrs	r3, r3, r2
 1684 00ce BA68     		ldr	r2, [r7, #8]
 1685 00d0 5101     		lsls	r1, r2, #5
 1686 00d2 FA68     		ldr	r2, [r7, #12]
 1687 00d4 0A44     		add	r2, r2, r1
 1688 00d6 02F53062 		add	r2, r2, #2816
 1689 00da 43F40043 		orr	r3, r3, #32768
 1690 00de 1360     		str	r3, [r2]
 1691              	.L92:
 613:Drivers/STM32F4xx_HAL_Driver/Src/stm32f4xx_ll_usb.c ****                                     USB_OTG_DOEPCTL_USBAEP;
 614:Drivers/STM32F4xx_HAL_Driver/Src/stm32f4xx_ll_usb.c ****     }
 615:Drivers/STM32F4xx_HAL_Driver/Src/stm32f4xx_ll_usb.c **** 
 616:Drivers/STM32F4xx_HAL_Driver/Src/stm32f4xx_ll_usb.c ****     USBx_DEVICE->DEACHMSK |= USB_OTG_DAINTMSK_OEPM & ((uint32_t)(1UL << (ep->num & EP_ADDR_MSK)) <<
 1692              		.loc 1 616 27
 1693 00e0 FB68     		ldr	r3, [r7, #12]
 1694 00e2 03F50063 		add	r3, r3, #2048
 1695 00e6 DA6B     		ldr	r2, [r3, #60]
 1696              		.loc 1 616 76
 1697 00e8 3B68     		ldr	r3, [r7]
 1698 00ea 1B78     		ldrb	r3, [r3]	@ zero_extendqisi2
 1699              		.loc 1 616 82
 1700 00ec 03F00F03 		and	r3, r3, #15
 1701              		.loc 1 616 55
 1702 00f0 0121     		movs	r1, #1
 1703 00f2 01FA03F3 		lsl	r3, r1, r3
 1704              		.loc 1 616 52
 1705 00f6 1B04     		lsls	r3, r3, #16
 1706              		.loc 1 616 27
 1707 00f8 F968     		ldr	r1, [r7, #12]
 1708 00fa 01F50061 		add	r1, r1, #2048
 1709 00fe 1343     		orrs	r3, r3, r2
 1710 0100 CB63     		str	r3, [r1, #60]
 1711              	.L91:
 617:Drivers/STM32F4xx_HAL_Driver/Src/stm32f4xx_ll_usb.c ****   }
 618:Drivers/STM32F4xx_HAL_Driver/Src/stm32f4xx_ll_usb.c **** 
 619:Drivers/STM32F4xx_HAL_Driver/Src/stm32f4xx_ll_usb.c ****   return HAL_OK;
 1712              		.loc 1 619 10
 1713 0102 0023     		movs	r3, #0
 620:Drivers/STM32F4xx_HAL_Driver/Src/stm32f4xx_ll_usb.c **** }
 1714              		.loc 1 620 1
 1715 0104 1846     		mov	r0, r3
 1716 0106 1437     		adds	r7, r7, #20
 1717              	.LCFI72:
 1718              		.cfi_def_cfa_offset 4
 1719 0108 BD46     		mov	sp, r7
 1720              	.LCFI73:
 1721              		.cfi_def_cfa_register 13
 1722              		@ sp needed
 1723 010a 5DF8047B 		ldr	r7, [sp], #4
 1724              	.LCFI74:
ARM GAS  /tmp/ccaXZQ0T.s 			page 42


 1725              		.cfi_restore 7
 1726              		.cfi_def_cfa_offset 0
 1727 010e 7047     		bx	lr
 1728              		.cfi_endproc
 1729              	.LFE141:
 1731              		.section	.text.USB_DeactivateEndpoint,"ax",%progbits
 1732              		.align	1
 1733              		.global	USB_DeactivateEndpoint
 1734              		.syntax unified
 1735              		.thumb
 1736              		.thumb_func
 1737              		.fpu fpv4-sp-d16
 1739              	USB_DeactivateEndpoint:
 1740              	.LFB142:
 621:Drivers/STM32F4xx_HAL_Driver/Src/stm32f4xx_ll_usb.c **** 
 622:Drivers/STM32F4xx_HAL_Driver/Src/stm32f4xx_ll_usb.c **** /**
 623:Drivers/STM32F4xx_HAL_Driver/Src/stm32f4xx_ll_usb.c ****   * @brief  De-activate and de-initialize an endpoint
 624:Drivers/STM32F4xx_HAL_Driver/Src/stm32f4xx_ll_usb.c ****   * @param  USBx  Selected device
 625:Drivers/STM32F4xx_HAL_Driver/Src/stm32f4xx_ll_usb.c ****   * @param  ep pointer to endpoint structure
 626:Drivers/STM32F4xx_HAL_Driver/Src/stm32f4xx_ll_usb.c ****   * @retval HAL status
 627:Drivers/STM32F4xx_HAL_Driver/Src/stm32f4xx_ll_usb.c ****   */
 628:Drivers/STM32F4xx_HAL_Driver/Src/stm32f4xx_ll_usb.c **** HAL_StatusTypeDef USB_DeactivateEndpoint(USB_OTG_GlobalTypeDef *USBx, USB_OTG_EPTypeDef *ep)
 629:Drivers/STM32F4xx_HAL_Driver/Src/stm32f4xx_ll_usb.c **** {
 1741              		.loc 1 629 1
 1742              		.cfi_startproc
 1743              		@ args = 0, pretend = 0, frame = 16
 1744              		@ frame_needed = 1, uses_anonymous_args = 0
 1745              		@ link register save eliminated.
 1746 0000 80B4     		push	{r7}
 1747              	.LCFI75:
 1748              		.cfi_def_cfa_offset 4
 1749              		.cfi_offset 7, -4
 1750 0002 85B0     		sub	sp, sp, #20
 1751              	.LCFI76:
 1752              		.cfi_def_cfa_offset 24
 1753 0004 00AF     		add	r7, sp, #0
 1754              	.LCFI77:
 1755              		.cfi_def_cfa_register 7
 1756 0006 7860     		str	r0, [r7, #4]
 1757 0008 3960     		str	r1, [r7]
 630:Drivers/STM32F4xx_HAL_Driver/Src/stm32f4xx_ll_usb.c ****   uint32_t USBx_BASE = (uint32_t)USBx;
 1758              		.loc 1 630 12
 1759 000a 7B68     		ldr	r3, [r7, #4]
 1760 000c FB60     		str	r3, [r7, #12]
 631:Drivers/STM32F4xx_HAL_Driver/Src/stm32f4xx_ll_usb.c ****   uint32_t epnum = (uint32_t)ep->num;
 1761              		.loc 1 631 32
 1762 000e 3B68     		ldr	r3, [r7]
 1763 0010 1B78     		ldrb	r3, [r3]	@ zero_extendqisi2
 1764              		.loc 1 631 12
 1765 0012 BB60     		str	r3, [r7, #8]
 632:Drivers/STM32F4xx_HAL_Driver/Src/stm32f4xx_ll_usb.c **** 
 633:Drivers/STM32F4xx_HAL_Driver/Src/stm32f4xx_ll_usb.c ****   /* Read DEPCTLn register */
 634:Drivers/STM32F4xx_HAL_Driver/Src/stm32f4xx_ll_usb.c ****   if (ep->is_in == 1U)
 1766              		.loc 1 634 9
 1767 0014 3B68     		ldr	r3, [r7]
 1768 0016 5B78     		ldrb	r3, [r3, #1]	@ zero_extendqisi2
 1769              		.loc 1 634 6
ARM GAS  /tmp/ccaXZQ0T.s 			page 43


 1770 0018 012B     		cmp	r3, #1
 1771 001a 61D1     		bne	.L95
 635:Drivers/STM32F4xx_HAL_Driver/Src/stm32f4xx_ll_usb.c ****   {
 636:Drivers/STM32F4xx_HAL_Driver/Src/stm32f4xx_ll_usb.c ****     if ((USBx_INEP(epnum)->DIEPCTL & USB_OTG_DIEPCTL_EPENA) == USB_OTG_DIEPCTL_EPENA)
 1772              		.loc 1 636 10
 1773 001c BB68     		ldr	r3, [r7, #8]
 1774 001e 5A01     		lsls	r2, r3, #5
 1775 0020 FB68     		ldr	r3, [r7, #12]
 1776 0022 1344     		add	r3, r3, r2
 1777 0024 03F51063 		add	r3, r3, #2304
 1778              		.loc 1 636 26
 1779 0028 1B68     		ldr	r3, [r3]
 1780              		.loc 1 636 36
 1781 002a 03F00043 		and	r3, r3, #-2147483648
 1782              		.loc 1 636 8
 1783 002e B3F1004F 		cmp	r3, #-2147483648
 1784 0032 1FD1     		bne	.L96
 637:Drivers/STM32F4xx_HAL_Driver/Src/stm32f4xx_ll_usb.c ****     {
 638:Drivers/STM32F4xx_HAL_Driver/Src/stm32f4xx_ll_usb.c ****       USBx_INEP(epnum)->DIEPCTL |= USB_OTG_DIEPCTL_SNAK;
 1785              		.loc 1 638 33
 1786 0034 BB68     		ldr	r3, [r7, #8]
 1787 0036 5A01     		lsls	r2, r3, #5
 1788 0038 FB68     		ldr	r3, [r7, #12]
 1789 003a 1344     		add	r3, r3, r2
 1790 003c 03F51063 		add	r3, r3, #2304
 1791 0040 1B68     		ldr	r3, [r3]
 1792 0042 BA68     		ldr	r2, [r7, #8]
 1793 0044 5101     		lsls	r1, r2, #5
 1794 0046 FA68     		ldr	r2, [r7, #12]
 1795 0048 0A44     		add	r2, r2, r1
 1796 004a 02F51062 		add	r2, r2, #2304
 1797 004e 43F00063 		orr	r3, r3, #134217728
 1798 0052 1360     		str	r3, [r2]
 639:Drivers/STM32F4xx_HAL_Driver/Src/stm32f4xx_ll_usb.c ****       USBx_INEP(epnum)->DIEPCTL |= USB_OTG_DIEPCTL_EPDIS;
 1799              		.loc 1 639 33
 1800 0054 BB68     		ldr	r3, [r7, #8]
 1801 0056 5A01     		lsls	r2, r3, #5
 1802 0058 FB68     		ldr	r3, [r7, #12]
 1803 005a 1344     		add	r3, r3, r2
 1804 005c 03F51063 		add	r3, r3, #2304
 1805 0060 1B68     		ldr	r3, [r3]
 1806 0062 BA68     		ldr	r2, [r7, #8]
 1807 0064 5101     		lsls	r1, r2, #5
 1808 0066 FA68     		ldr	r2, [r7, #12]
 1809 0068 0A44     		add	r2, r2, r1
 1810 006a 02F51062 		add	r2, r2, #2304
 1811 006e 43F08043 		orr	r3, r3, #1073741824
 1812 0072 1360     		str	r3, [r2]
 1813              	.L96:
 640:Drivers/STM32F4xx_HAL_Driver/Src/stm32f4xx_ll_usb.c ****     }
 641:Drivers/STM32F4xx_HAL_Driver/Src/stm32f4xx_ll_usb.c **** 
 642:Drivers/STM32F4xx_HAL_Driver/Src/stm32f4xx_ll_usb.c ****     USBx_DEVICE->DEACHMSK &= ~(USB_OTG_DAINTMSK_IEPM & (uint32_t)(1UL << (ep->num & EP_ADDR_MSK)));
 1814              		.loc 1 642 27
 1815 0074 FB68     		ldr	r3, [r7, #12]
 1816 0076 03F50063 		add	r3, r3, #2048
 1817 007a DA6B     		ldr	r2, [r3, #60]
 1818              		.loc 1 642 77
ARM GAS  /tmp/ccaXZQ0T.s 			page 44


 1819 007c 3B68     		ldr	r3, [r7]
 1820 007e 1B78     		ldrb	r3, [r3]	@ zero_extendqisi2
 1821              		.loc 1 642 83
 1822 0080 03F00F03 		and	r3, r3, #15
 1823              		.loc 1 642 56
 1824 0084 0121     		movs	r1, #1
 1825 0086 01FA03F3 		lsl	r3, r1, r3
 1826              		.loc 1 642 54
 1827 008a 9BB2     		uxth	r3, r3
 1828              		.loc 1 642 30
 1829 008c DB43     		mvns	r3, r3
 1830              		.loc 1 642 27
 1831 008e F968     		ldr	r1, [r7, #12]
 1832 0090 01F50061 		add	r1, r1, #2048
 1833 0094 1340     		ands	r3, r3, r2
 1834 0096 CB63     		str	r3, [r1, #60]
 643:Drivers/STM32F4xx_HAL_Driver/Src/stm32f4xx_ll_usb.c ****     USBx_DEVICE->DAINTMSK &= ~(USB_OTG_DAINTMSK_IEPM & (uint32_t)(1UL << (ep->num & EP_ADDR_MSK)));
 1835              		.loc 1 643 27
 1836 0098 FB68     		ldr	r3, [r7, #12]
 1837 009a 03F50063 		add	r3, r3, #2048
 1838 009e DA69     		ldr	r2, [r3, #28]
 1839              		.loc 1 643 77
 1840 00a0 3B68     		ldr	r3, [r7]
 1841 00a2 1B78     		ldrb	r3, [r3]	@ zero_extendqisi2
 1842              		.loc 1 643 83
 1843 00a4 03F00F03 		and	r3, r3, #15
 1844              		.loc 1 643 56
 1845 00a8 0121     		movs	r1, #1
 1846 00aa 01FA03F3 		lsl	r3, r1, r3
 1847              		.loc 1 643 54
 1848 00ae 9BB2     		uxth	r3, r3
 1849              		.loc 1 643 30
 1850 00b0 DB43     		mvns	r3, r3
 1851              		.loc 1 643 27
 1852 00b2 F968     		ldr	r1, [r7, #12]
 1853 00b4 01F50061 		add	r1, r1, #2048
 1854 00b8 1340     		ands	r3, r3, r2
 1855 00ba CB61     		str	r3, [r1, #28]
 644:Drivers/STM32F4xx_HAL_Driver/Src/stm32f4xx_ll_usb.c ****     USBx_INEP(epnum)->DIEPCTL &= ~(USB_OTG_DIEPCTL_USBAEP |
 1856              		.loc 1 644 31
 1857 00bc BB68     		ldr	r3, [r7, #8]
 1858 00be 5A01     		lsls	r2, r3, #5
 1859 00c0 FB68     		ldr	r3, [r7, #12]
 1860 00c2 1344     		add	r3, r3, r2
 1861 00c4 03F51063 		add	r3, r3, #2304
 1862 00c8 1A68     		ldr	r2, [r3]
 1863 00ca BB68     		ldr	r3, [r7, #8]
 1864 00cc 5901     		lsls	r1, r3, #5
 1865 00ce FB68     		ldr	r3, [r7, #12]
 1866 00d0 0B44     		add	r3, r3, r1
 1867 00d2 03F51063 		add	r3, r3, #2304
 1868 00d6 1946     		mov	r1, r3
 1869 00d8 354B     		ldr	r3, .L100
 1870 00da 1340     		ands	r3, r3, r2
 1871 00dc 0B60     		str	r3, [r1]
 1872 00de 60E0     		b	.L97
 1873              	.L95:
ARM GAS  /tmp/ccaXZQ0T.s 			page 45


 645:Drivers/STM32F4xx_HAL_Driver/Src/stm32f4xx_ll_usb.c ****                                    USB_OTG_DIEPCTL_MPSIZ |
 646:Drivers/STM32F4xx_HAL_Driver/Src/stm32f4xx_ll_usb.c ****                                    USB_OTG_DIEPCTL_TXFNUM |
 647:Drivers/STM32F4xx_HAL_Driver/Src/stm32f4xx_ll_usb.c ****                                    USB_OTG_DIEPCTL_SD0PID_SEVNFRM |
 648:Drivers/STM32F4xx_HAL_Driver/Src/stm32f4xx_ll_usb.c ****                                    USB_OTG_DIEPCTL_EPTYP);
 649:Drivers/STM32F4xx_HAL_Driver/Src/stm32f4xx_ll_usb.c ****   }
 650:Drivers/STM32F4xx_HAL_Driver/Src/stm32f4xx_ll_usb.c ****   else
 651:Drivers/STM32F4xx_HAL_Driver/Src/stm32f4xx_ll_usb.c ****   {
 652:Drivers/STM32F4xx_HAL_Driver/Src/stm32f4xx_ll_usb.c ****     if ((USBx_OUTEP(epnum)->DOEPCTL & USB_OTG_DOEPCTL_EPENA) == USB_OTG_DOEPCTL_EPENA)
 1874              		.loc 1 652 10
 1875 00e0 BB68     		ldr	r3, [r7, #8]
 1876 00e2 5A01     		lsls	r2, r3, #5
 1877 00e4 FB68     		ldr	r3, [r7, #12]
 1878 00e6 1344     		add	r3, r3, r2
 1879 00e8 03F53063 		add	r3, r3, #2816
 1880              		.loc 1 652 27
 1881 00ec 1B68     		ldr	r3, [r3]
 1882              		.loc 1 652 37
 1883 00ee 03F00043 		and	r3, r3, #-2147483648
 1884              		.loc 1 652 8
 1885 00f2 B3F1004F 		cmp	r3, #-2147483648
 1886 00f6 1FD1     		bne	.L98
 653:Drivers/STM32F4xx_HAL_Driver/Src/stm32f4xx_ll_usb.c ****     {
 654:Drivers/STM32F4xx_HAL_Driver/Src/stm32f4xx_ll_usb.c ****       USBx_OUTEP(epnum)->DOEPCTL |= USB_OTG_DOEPCTL_SNAK;
 1887              		.loc 1 654 34
 1888 00f8 BB68     		ldr	r3, [r7, #8]
 1889 00fa 5A01     		lsls	r2, r3, #5
 1890 00fc FB68     		ldr	r3, [r7, #12]
 1891 00fe 1344     		add	r3, r3, r2
 1892 0100 03F53063 		add	r3, r3, #2816
 1893 0104 1B68     		ldr	r3, [r3]
 1894 0106 BA68     		ldr	r2, [r7, #8]
 1895 0108 5101     		lsls	r1, r2, #5
 1896 010a FA68     		ldr	r2, [r7, #12]
 1897 010c 0A44     		add	r2, r2, r1
 1898 010e 02F53062 		add	r2, r2, #2816
 1899 0112 43F00063 		orr	r3, r3, #134217728
 1900 0116 1360     		str	r3, [r2]
 655:Drivers/STM32F4xx_HAL_Driver/Src/stm32f4xx_ll_usb.c ****       USBx_OUTEP(epnum)->DOEPCTL |= USB_OTG_DOEPCTL_EPDIS;
 1901              		.loc 1 655 34
 1902 0118 BB68     		ldr	r3, [r7, #8]
 1903 011a 5A01     		lsls	r2, r3, #5
 1904 011c FB68     		ldr	r3, [r7, #12]
 1905 011e 1344     		add	r3, r3, r2
 1906 0120 03F53063 		add	r3, r3, #2816
 1907 0124 1B68     		ldr	r3, [r3]
 1908 0126 BA68     		ldr	r2, [r7, #8]
 1909 0128 5101     		lsls	r1, r2, #5
 1910 012a FA68     		ldr	r2, [r7, #12]
 1911 012c 0A44     		add	r2, r2, r1
 1912 012e 02F53062 		add	r2, r2, #2816
 1913 0132 43F08043 		orr	r3, r3, #1073741824
 1914 0136 1360     		str	r3, [r2]
 1915              	.L98:
 656:Drivers/STM32F4xx_HAL_Driver/Src/stm32f4xx_ll_usb.c ****     }
 657:Drivers/STM32F4xx_HAL_Driver/Src/stm32f4xx_ll_usb.c **** 
 658:Drivers/STM32F4xx_HAL_Driver/Src/stm32f4xx_ll_usb.c ****     USBx_DEVICE->DEACHMSK &= ~(USB_OTG_DAINTMSK_OEPM & ((uint32_t)(1UL << (ep->num & EP_ADDR_MSK)) 
 1916              		.loc 1 658 27
ARM GAS  /tmp/ccaXZQ0T.s 			page 46


 1917 0138 FB68     		ldr	r3, [r7, #12]
 1918 013a 03F50063 		add	r3, r3, #2048
 1919 013e DA6B     		ldr	r2, [r3, #60]
 1920              		.loc 1 658 78
 1921 0140 3B68     		ldr	r3, [r7]
 1922 0142 1B78     		ldrb	r3, [r3]	@ zero_extendqisi2
 1923              		.loc 1 658 84
 1924 0144 03F00F03 		and	r3, r3, #15
 1925              		.loc 1 658 57
 1926 0148 0121     		movs	r1, #1
 1927 014a 01FA03F3 		lsl	r3, r1, r3
 1928              		.loc 1 658 54
 1929 014e 1B04     		lsls	r3, r3, #16
 1930              		.loc 1 658 30
 1931 0150 DB43     		mvns	r3, r3
 1932              		.loc 1 658 27
 1933 0152 F968     		ldr	r1, [r7, #12]
 1934 0154 01F50061 		add	r1, r1, #2048
 1935 0158 1340     		ands	r3, r3, r2
 1936 015a CB63     		str	r3, [r1, #60]
 659:Drivers/STM32F4xx_HAL_Driver/Src/stm32f4xx_ll_usb.c ****     USBx_DEVICE->DAINTMSK &= ~(USB_OTG_DAINTMSK_OEPM & ((uint32_t)(1UL << (ep->num & EP_ADDR_MSK)) 
 1937              		.loc 1 659 27
 1938 015c FB68     		ldr	r3, [r7, #12]
 1939 015e 03F50063 		add	r3, r3, #2048
 1940 0162 DA69     		ldr	r2, [r3, #28]
 1941              		.loc 1 659 78
 1942 0164 3B68     		ldr	r3, [r7]
 1943 0166 1B78     		ldrb	r3, [r3]	@ zero_extendqisi2
 1944              		.loc 1 659 84
 1945 0168 03F00F03 		and	r3, r3, #15
 1946              		.loc 1 659 57
 1947 016c 0121     		movs	r1, #1
 1948 016e 01FA03F3 		lsl	r3, r1, r3
 1949              		.loc 1 659 54
 1950 0172 1B04     		lsls	r3, r3, #16
 1951              		.loc 1 659 30
 1952 0174 DB43     		mvns	r3, r3
 1953              		.loc 1 659 27
 1954 0176 F968     		ldr	r1, [r7, #12]
 1955 0178 01F50061 		add	r1, r1, #2048
 1956 017c 1340     		ands	r3, r3, r2
 1957 017e CB61     		str	r3, [r1, #28]
 660:Drivers/STM32F4xx_HAL_Driver/Src/stm32f4xx_ll_usb.c ****     USBx_OUTEP(epnum)->DOEPCTL &= ~(USB_OTG_DOEPCTL_USBAEP |
 1958              		.loc 1 660 32
 1959 0180 BB68     		ldr	r3, [r7, #8]
 1960 0182 5A01     		lsls	r2, r3, #5
 1961 0184 FB68     		ldr	r3, [r7, #12]
 1962 0186 1344     		add	r3, r3, r2
 1963 0188 03F53063 		add	r3, r3, #2816
 1964 018c 1A68     		ldr	r2, [r3]
 1965 018e BB68     		ldr	r3, [r7, #8]
 1966 0190 5901     		lsls	r1, r3, #5
 1967 0192 FB68     		ldr	r3, [r7, #12]
 1968 0194 0B44     		add	r3, r3, r1
 1969 0196 03F53063 		add	r3, r3, #2816
 1970 019a 1946     		mov	r1, r3
 1971 019c 054B     		ldr	r3, .L100+4
ARM GAS  /tmp/ccaXZQ0T.s 			page 47


 1972 019e 1340     		ands	r3, r3, r2
 1973 01a0 0B60     		str	r3, [r1]
 1974              	.L97:
 661:Drivers/STM32F4xx_HAL_Driver/Src/stm32f4xx_ll_usb.c ****                                     USB_OTG_DOEPCTL_MPSIZ |
 662:Drivers/STM32F4xx_HAL_Driver/Src/stm32f4xx_ll_usb.c ****                                     USB_OTG_DOEPCTL_SD0PID_SEVNFRM |
 663:Drivers/STM32F4xx_HAL_Driver/Src/stm32f4xx_ll_usb.c ****                                     USB_OTG_DOEPCTL_EPTYP);
 664:Drivers/STM32F4xx_HAL_Driver/Src/stm32f4xx_ll_usb.c ****   }
 665:Drivers/STM32F4xx_HAL_Driver/Src/stm32f4xx_ll_usb.c **** 
 666:Drivers/STM32F4xx_HAL_Driver/Src/stm32f4xx_ll_usb.c ****   return HAL_OK;
 1975              		.loc 1 666 10
 1976 01a2 0023     		movs	r3, #0
 667:Drivers/STM32F4xx_HAL_Driver/Src/stm32f4xx_ll_usb.c **** }
 1977              		.loc 1 667 1
 1978 01a4 1846     		mov	r0, r3
 1979 01a6 1437     		adds	r7, r7, #20
 1980              	.LCFI78:
 1981              		.cfi_def_cfa_offset 4
 1982 01a8 BD46     		mov	sp, r7
 1983              	.LCFI79:
 1984              		.cfi_def_cfa_register 13
 1985              		@ sp needed
 1986 01aa 5DF8047B 		ldr	r7, [sp], #4
 1987              	.LCFI80:
 1988              		.cfi_restore 7
 1989              		.cfi_def_cfa_offset 0
 1990 01ae 7047     		bx	lr
 1991              	.L101:
 1992              		.align	2
 1993              	.L100:
 1994 01b0 007833EC 		.word	-332171264
 1995 01b4 0078F3EF 		.word	-269256704
 1996              		.cfi_endproc
 1997              	.LFE142:
 1999              		.section	.text.USB_DeactivateDedicatedEndpoint,"ax",%progbits
 2000              		.align	1
 2001              		.global	USB_DeactivateDedicatedEndpoint
 2002              		.syntax unified
 2003              		.thumb
 2004              		.thumb_func
 2005              		.fpu fpv4-sp-d16
 2007              	USB_DeactivateDedicatedEndpoint:
 2008              	.LFB143:
 668:Drivers/STM32F4xx_HAL_Driver/Src/stm32f4xx_ll_usb.c **** 
 669:Drivers/STM32F4xx_HAL_Driver/Src/stm32f4xx_ll_usb.c **** /**
 670:Drivers/STM32F4xx_HAL_Driver/Src/stm32f4xx_ll_usb.c ****   * @brief  De-activate and de-initialize a dedicated endpoint
 671:Drivers/STM32F4xx_HAL_Driver/Src/stm32f4xx_ll_usb.c ****   * @param  USBx  Selected device
 672:Drivers/STM32F4xx_HAL_Driver/Src/stm32f4xx_ll_usb.c ****   * @param  ep pointer to endpoint structure
 673:Drivers/STM32F4xx_HAL_Driver/Src/stm32f4xx_ll_usb.c ****   * @retval HAL status
 674:Drivers/STM32F4xx_HAL_Driver/Src/stm32f4xx_ll_usb.c ****   */
 675:Drivers/STM32F4xx_HAL_Driver/Src/stm32f4xx_ll_usb.c **** HAL_StatusTypeDef USB_DeactivateDedicatedEndpoint(USB_OTG_GlobalTypeDef *USBx, USB_OTG_EPTypeDef *e
 676:Drivers/STM32F4xx_HAL_Driver/Src/stm32f4xx_ll_usb.c **** {
 2009              		.loc 1 676 1
 2010              		.cfi_startproc
 2011              		@ args = 0, pretend = 0, frame = 16
 2012              		@ frame_needed = 1, uses_anonymous_args = 0
 2013              		@ link register save eliminated.
 2014 0000 80B4     		push	{r7}
ARM GAS  /tmp/ccaXZQ0T.s 			page 48


 2015              	.LCFI81:
 2016              		.cfi_def_cfa_offset 4
 2017              		.cfi_offset 7, -4
 2018 0002 85B0     		sub	sp, sp, #20
 2019              	.LCFI82:
 2020              		.cfi_def_cfa_offset 24
 2021 0004 00AF     		add	r7, sp, #0
 2022              	.LCFI83:
 2023              		.cfi_def_cfa_register 7
 2024 0006 7860     		str	r0, [r7, #4]
 2025 0008 3960     		str	r1, [r7]
 677:Drivers/STM32F4xx_HAL_Driver/Src/stm32f4xx_ll_usb.c ****   uint32_t USBx_BASE = (uint32_t)USBx;
 2026              		.loc 1 677 12
 2027 000a 7B68     		ldr	r3, [r7, #4]
 2028 000c FB60     		str	r3, [r7, #12]
 678:Drivers/STM32F4xx_HAL_Driver/Src/stm32f4xx_ll_usb.c ****   uint32_t epnum = (uint32_t)ep->num;
 2029              		.loc 1 678 32
 2030 000e 3B68     		ldr	r3, [r7]
 2031 0010 1B78     		ldrb	r3, [r3]	@ zero_extendqisi2
 2032              		.loc 1 678 12
 2033 0012 BB60     		str	r3, [r7, #8]
 679:Drivers/STM32F4xx_HAL_Driver/Src/stm32f4xx_ll_usb.c **** 
 680:Drivers/STM32F4xx_HAL_Driver/Src/stm32f4xx_ll_usb.c ****   /* Read DEPCTLn register */
 681:Drivers/STM32F4xx_HAL_Driver/Src/stm32f4xx_ll_usb.c ****   if (ep->is_in == 1U)
 2034              		.loc 1 681 9
 2035 0014 3B68     		ldr	r3, [r7]
 2036 0016 5B78     		ldrb	r3, [r3, #1]	@ zero_extendqisi2
 2037              		.loc 1 681 6
 2038 0018 012B     		cmp	r3, #1
 2039 001a 4ED1     		bne	.L103
 682:Drivers/STM32F4xx_HAL_Driver/Src/stm32f4xx_ll_usb.c ****   {
 683:Drivers/STM32F4xx_HAL_Driver/Src/stm32f4xx_ll_usb.c ****     if ((USBx_INEP(epnum)->DIEPCTL & USB_OTG_DIEPCTL_EPENA) == USB_OTG_DIEPCTL_EPENA)
 2040              		.loc 1 683 10
 2041 001c BB68     		ldr	r3, [r7, #8]
 2042 001e 5A01     		lsls	r2, r3, #5
 2043 0020 FB68     		ldr	r3, [r7, #12]
 2044 0022 1344     		add	r3, r3, r2
 2045 0024 03F51063 		add	r3, r3, #2304
 2046              		.loc 1 683 26
 2047 0028 1B68     		ldr	r3, [r3]
 2048              		.loc 1 683 36
 2049 002a 03F00043 		and	r3, r3, #-2147483648
 2050              		.loc 1 683 8
 2051 002e B3F1004F 		cmp	r3, #-2147483648
 2052 0032 1FD1     		bne	.L104
 684:Drivers/STM32F4xx_HAL_Driver/Src/stm32f4xx_ll_usb.c ****     {
 685:Drivers/STM32F4xx_HAL_Driver/Src/stm32f4xx_ll_usb.c ****       USBx_INEP(epnum)->DIEPCTL  |= USB_OTG_DIEPCTL_SNAK;
 2053              		.loc 1 685 34
 2054 0034 BB68     		ldr	r3, [r7, #8]
 2055 0036 5A01     		lsls	r2, r3, #5
 2056 0038 FB68     		ldr	r3, [r7, #12]
 2057 003a 1344     		add	r3, r3, r2
 2058 003c 03F51063 		add	r3, r3, #2304
 2059 0040 1B68     		ldr	r3, [r3]
 2060 0042 BA68     		ldr	r2, [r7, #8]
 2061 0044 5101     		lsls	r1, r2, #5
 2062 0046 FA68     		ldr	r2, [r7, #12]
ARM GAS  /tmp/ccaXZQ0T.s 			page 49


 2063 0048 0A44     		add	r2, r2, r1
 2064 004a 02F51062 		add	r2, r2, #2304
 2065 004e 43F00063 		orr	r3, r3, #134217728
 2066 0052 1360     		str	r3, [r2]
 686:Drivers/STM32F4xx_HAL_Driver/Src/stm32f4xx_ll_usb.c ****       USBx_INEP(epnum)->DIEPCTL  |= USB_OTG_DIEPCTL_EPDIS;
 2067              		.loc 1 686 34
 2068 0054 BB68     		ldr	r3, [r7, #8]
 2069 0056 5A01     		lsls	r2, r3, #5
 2070 0058 FB68     		ldr	r3, [r7, #12]
 2071 005a 1344     		add	r3, r3, r2
 2072 005c 03F51063 		add	r3, r3, #2304
 2073 0060 1B68     		ldr	r3, [r3]
 2074 0062 BA68     		ldr	r2, [r7, #8]
 2075 0064 5101     		lsls	r1, r2, #5
 2076 0066 FA68     		ldr	r2, [r7, #12]
 2077 0068 0A44     		add	r2, r2, r1
 2078 006a 02F51062 		add	r2, r2, #2304
 2079 006e 43F08043 		orr	r3, r3, #1073741824
 2080 0072 1360     		str	r3, [r2]
 2081              	.L104:
 687:Drivers/STM32F4xx_HAL_Driver/Src/stm32f4xx_ll_usb.c ****     }
 688:Drivers/STM32F4xx_HAL_Driver/Src/stm32f4xx_ll_usb.c **** 
 689:Drivers/STM32F4xx_HAL_Driver/Src/stm32f4xx_ll_usb.c ****     USBx_INEP(epnum)->DIEPCTL &= ~ USB_OTG_DIEPCTL_USBAEP;
 2082              		.loc 1 689 31
 2083 0074 BB68     		ldr	r3, [r7, #8]
 2084 0076 5A01     		lsls	r2, r3, #5
 2085 0078 FB68     		ldr	r3, [r7, #12]
 2086 007a 1344     		add	r3, r3, r2
 2087 007c 03F51063 		add	r3, r3, #2304
 2088 0080 1B68     		ldr	r3, [r3]
 2089 0082 BA68     		ldr	r2, [r7, #8]
 2090 0084 5101     		lsls	r1, r2, #5
 2091 0086 FA68     		ldr	r2, [r7, #12]
 2092 0088 0A44     		add	r2, r2, r1
 2093 008a 02F51062 		add	r2, r2, #2304
 2094 008e 23F40043 		bic	r3, r3, #32768
 2095 0092 1360     		str	r3, [r2]
 690:Drivers/STM32F4xx_HAL_Driver/Src/stm32f4xx_ll_usb.c ****     USBx_DEVICE->DAINTMSK &= ~(USB_OTG_DAINTMSK_IEPM & (uint32_t)(1UL << (ep->num & EP_ADDR_MSK)));
 2096              		.loc 1 690 27
 2097 0094 FB68     		ldr	r3, [r7, #12]
 2098 0096 03F50063 		add	r3, r3, #2048
 2099 009a DA69     		ldr	r2, [r3, #28]
 2100              		.loc 1 690 77
 2101 009c 3B68     		ldr	r3, [r7]
 2102 009e 1B78     		ldrb	r3, [r3]	@ zero_extendqisi2
 2103              		.loc 1 690 83
 2104 00a0 03F00F03 		and	r3, r3, #15
 2105              		.loc 1 690 56
 2106 00a4 0121     		movs	r1, #1
 2107 00a6 01FA03F3 		lsl	r3, r1, r3
 2108              		.loc 1 690 54
 2109 00aa 9BB2     		uxth	r3, r3
 2110              		.loc 1 690 30
 2111 00ac DB43     		mvns	r3, r3
 2112              		.loc 1 690 27
 2113 00ae F968     		ldr	r1, [r7, #12]
 2114 00b0 01F50061 		add	r1, r1, #2048
ARM GAS  /tmp/ccaXZQ0T.s 			page 50


 2115 00b4 1340     		ands	r3, r3, r2
 2116 00b6 CB61     		str	r3, [r1, #28]
 2117 00b8 4DE0     		b	.L105
 2118              	.L103:
 691:Drivers/STM32F4xx_HAL_Driver/Src/stm32f4xx_ll_usb.c ****   }
 692:Drivers/STM32F4xx_HAL_Driver/Src/stm32f4xx_ll_usb.c ****   else
 693:Drivers/STM32F4xx_HAL_Driver/Src/stm32f4xx_ll_usb.c ****   {
 694:Drivers/STM32F4xx_HAL_Driver/Src/stm32f4xx_ll_usb.c ****     if ((USBx_OUTEP(epnum)->DOEPCTL & USB_OTG_DOEPCTL_EPENA) == USB_OTG_DOEPCTL_EPENA)
 2119              		.loc 1 694 10
 2120 00ba BB68     		ldr	r3, [r7, #8]
 2121 00bc 5A01     		lsls	r2, r3, #5
 2122 00be FB68     		ldr	r3, [r7, #12]
 2123 00c0 1344     		add	r3, r3, r2
 2124 00c2 03F53063 		add	r3, r3, #2816
 2125              		.loc 1 694 27
 2126 00c6 1B68     		ldr	r3, [r3]
 2127              		.loc 1 694 37
 2128 00c8 03F00043 		and	r3, r3, #-2147483648
 2129              		.loc 1 694 8
 2130 00cc B3F1004F 		cmp	r3, #-2147483648
 2131 00d0 1FD1     		bne	.L106
 695:Drivers/STM32F4xx_HAL_Driver/Src/stm32f4xx_ll_usb.c ****     {
 696:Drivers/STM32F4xx_HAL_Driver/Src/stm32f4xx_ll_usb.c ****       USBx_OUTEP(epnum)->DOEPCTL  |= USB_OTG_DOEPCTL_SNAK;
 2132              		.loc 1 696 35
 2133 00d2 BB68     		ldr	r3, [r7, #8]
 2134 00d4 5A01     		lsls	r2, r3, #5
 2135 00d6 FB68     		ldr	r3, [r7, #12]
 2136 00d8 1344     		add	r3, r3, r2
 2137 00da 03F53063 		add	r3, r3, #2816
 2138 00de 1B68     		ldr	r3, [r3]
 2139 00e0 BA68     		ldr	r2, [r7, #8]
 2140 00e2 5101     		lsls	r1, r2, #5
 2141 00e4 FA68     		ldr	r2, [r7, #12]
 2142 00e6 0A44     		add	r2, r2, r1
 2143 00e8 02F53062 		add	r2, r2, #2816
 2144 00ec 43F00063 		orr	r3, r3, #134217728
 2145 00f0 1360     		str	r3, [r2]
 697:Drivers/STM32F4xx_HAL_Driver/Src/stm32f4xx_ll_usb.c ****       USBx_OUTEP(epnum)->DOEPCTL  |= USB_OTG_DOEPCTL_EPDIS;
 2146              		.loc 1 697 35
 2147 00f2 BB68     		ldr	r3, [r7, #8]
 2148 00f4 5A01     		lsls	r2, r3, #5
 2149 00f6 FB68     		ldr	r3, [r7, #12]
 2150 00f8 1344     		add	r3, r3, r2
 2151 00fa 03F53063 		add	r3, r3, #2816
 2152 00fe 1B68     		ldr	r3, [r3]
 2153 0100 BA68     		ldr	r2, [r7, #8]
 2154 0102 5101     		lsls	r1, r2, #5
 2155 0104 FA68     		ldr	r2, [r7, #12]
 2156 0106 0A44     		add	r2, r2, r1
 2157 0108 02F53062 		add	r2, r2, #2816
 2158 010c 43F08043 		orr	r3, r3, #1073741824
 2159 0110 1360     		str	r3, [r2]
 2160              	.L106:
 698:Drivers/STM32F4xx_HAL_Driver/Src/stm32f4xx_ll_usb.c ****     }
 699:Drivers/STM32F4xx_HAL_Driver/Src/stm32f4xx_ll_usb.c **** 
 700:Drivers/STM32F4xx_HAL_Driver/Src/stm32f4xx_ll_usb.c ****     USBx_OUTEP(epnum)->DOEPCTL &= ~USB_OTG_DOEPCTL_USBAEP;
 2161              		.loc 1 700 32
ARM GAS  /tmp/ccaXZQ0T.s 			page 51


 2162 0112 BB68     		ldr	r3, [r7, #8]
 2163 0114 5A01     		lsls	r2, r3, #5
 2164 0116 FB68     		ldr	r3, [r7, #12]
 2165 0118 1344     		add	r3, r3, r2
 2166 011a 03F53063 		add	r3, r3, #2816
 2167 011e 1B68     		ldr	r3, [r3]
 2168 0120 BA68     		ldr	r2, [r7, #8]
 2169 0122 5101     		lsls	r1, r2, #5
 2170 0124 FA68     		ldr	r2, [r7, #12]
 2171 0126 0A44     		add	r2, r2, r1
 2172 0128 02F53062 		add	r2, r2, #2816
 2173 012c 23F40043 		bic	r3, r3, #32768
 2174 0130 1360     		str	r3, [r2]
 701:Drivers/STM32F4xx_HAL_Driver/Src/stm32f4xx_ll_usb.c ****     USBx_DEVICE->DAINTMSK &= ~(USB_OTG_DAINTMSK_OEPM & ((uint32_t)(1UL << (ep->num & EP_ADDR_MSK)) 
 2175              		.loc 1 701 27
 2176 0132 FB68     		ldr	r3, [r7, #12]
 2177 0134 03F50063 		add	r3, r3, #2048
 2178 0138 DA69     		ldr	r2, [r3, #28]
 2179              		.loc 1 701 78
 2180 013a 3B68     		ldr	r3, [r7]
 2181 013c 1B78     		ldrb	r3, [r3]	@ zero_extendqisi2
 2182              		.loc 1 701 84
 2183 013e 03F00F03 		and	r3, r3, #15
 2184              		.loc 1 701 57
 2185 0142 0121     		movs	r1, #1
 2186 0144 01FA03F3 		lsl	r3, r1, r3
 2187              		.loc 1 701 54
 2188 0148 1B04     		lsls	r3, r3, #16
 2189              		.loc 1 701 30
 2190 014a DB43     		mvns	r3, r3
 2191              		.loc 1 701 27
 2192 014c F968     		ldr	r1, [r7, #12]
 2193 014e 01F50061 		add	r1, r1, #2048
 2194 0152 1340     		ands	r3, r3, r2
 2195 0154 CB61     		str	r3, [r1, #28]
 2196              	.L105:
 702:Drivers/STM32F4xx_HAL_Driver/Src/stm32f4xx_ll_usb.c ****   }
 703:Drivers/STM32F4xx_HAL_Driver/Src/stm32f4xx_ll_usb.c **** 
 704:Drivers/STM32F4xx_HAL_Driver/Src/stm32f4xx_ll_usb.c ****   return HAL_OK;
 2197              		.loc 1 704 10
 2198 0156 0023     		movs	r3, #0
 705:Drivers/STM32F4xx_HAL_Driver/Src/stm32f4xx_ll_usb.c **** }
 2199              		.loc 1 705 1
 2200 0158 1846     		mov	r0, r3
 2201 015a 1437     		adds	r7, r7, #20
 2202              	.LCFI84:
 2203              		.cfi_def_cfa_offset 4
 2204 015c BD46     		mov	sp, r7
 2205              	.LCFI85:
 2206              		.cfi_def_cfa_register 13
 2207              		@ sp needed
 2208 015e 5DF8047B 		ldr	r7, [sp], #4
 2209              	.LCFI86:
 2210              		.cfi_restore 7
 2211              		.cfi_def_cfa_offset 0
 2212 0162 7047     		bx	lr
 2213              		.cfi_endproc
ARM GAS  /tmp/ccaXZQ0T.s 			page 52


 2214              	.LFE143:
 2216              		.section	.text.USB_EPStartXfer,"ax",%progbits
 2217              		.align	1
 2218              		.global	USB_EPStartXfer
 2219              		.syntax unified
 2220              		.thumb
 2221              		.thumb_func
 2222              		.fpu fpv4-sp-d16
 2224              	USB_EPStartXfer:
 2225              	.LFB144:
 706:Drivers/STM32F4xx_HAL_Driver/Src/stm32f4xx_ll_usb.c **** 
 707:Drivers/STM32F4xx_HAL_Driver/Src/stm32f4xx_ll_usb.c **** /**
 708:Drivers/STM32F4xx_HAL_Driver/Src/stm32f4xx_ll_usb.c ****   * @brief  USB_EPStartXfer : setup and starts a transfer over an EP
 709:Drivers/STM32F4xx_HAL_Driver/Src/stm32f4xx_ll_usb.c ****   * @param  USBx  Selected device
 710:Drivers/STM32F4xx_HAL_Driver/Src/stm32f4xx_ll_usb.c ****   * @param  ep pointer to endpoint structure
 711:Drivers/STM32F4xx_HAL_Driver/Src/stm32f4xx_ll_usb.c ****   * @param  dma USB dma enabled or disabled
 712:Drivers/STM32F4xx_HAL_Driver/Src/stm32f4xx_ll_usb.c ****   *          This parameter can be one of these values:
 713:Drivers/STM32F4xx_HAL_Driver/Src/stm32f4xx_ll_usb.c ****   *           0 : DMA feature not used
 714:Drivers/STM32F4xx_HAL_Driver/Src/stm32f4xx_ll_usb.c ****   *           1 : DMA feature used
 715:Drivers/STM32F4xx_HAL_Driver/Src/stm32f4xx_ll_usb.c ****   * @retval HAL status
 716:Drivers/STM32F4xx_HAL_Driver/Src/stm32f4xx_ll_usb.c ****   */
 717:Drivers/STM32F4xx_HAL_Driver/Src/stm32f4xx_ll_usb.c **** HAL_StatusTypeDef USB_EPStartXfer(USB_OTG_GlobalTypeDef *USBx, USB_OTG_EPTypeDef *ep, uint8_t dma)
 718:Drivers/STM32F4xx_HAL_Driver/Src/stm32f4xx_ll_usb.c **** {
 2226              		.loc 1 718 1
 2227              		.cfi_startproc
 2228              		@ args = 0, pretend = 0, frame = 32
 2229              		@ frame_needed = 1, uses_anonymous_args = 0
 2230 0000 80B5     		push	{r7, lr}
 2231              	.LCFI87:
 2232              		.cfi_def_cfa_offset 8
 2233              		.cfi_offset 7, -8
 2234              		.cfi_offset 14, -4
 2235 0002 8AB0     		sub	sp, sp, #40
 2236              	.LCFI88:
 2237              		.cfi_def_cfa_offset 48
 2238 0004 02AF     		add	r7, sp, #8
 2239              	.LCFI89:
 2240              		.cfi_def_cfa 7, 40
 2241 0006 F860     		str	r0, [r7, #12]
 2242 0008 B960     		str	r1, [r7, #8]
 2243 000a 1346     		mov	r3, r2
 2244 000c FB71     		strb	r3, [r7, #7]
 719:Drivers/STM32F4xx_HAL_Driver/Src/stm32f4xx_ll_usb.c ****   uint32_t USBx_BASE = (uint32_t)USBx;
 2245              		.loc 1 719 12
 2246 000e FB68     		ldr	r3, [r7, #12]
 2247 0010 FB61     		str	r3, [r7, #28]
 720:Drivers/STM32F4xx_HAL_Driver/Src/stm32f4xx_ll_usb.c ****   uint32_t epnum = (uint32_t)ep->num;
 2248              		.loc 1 720 32
 2249 0012 BB68     		ldr	r3, [r7, #8]
 2250 0014 1B78     		ldrb	r3, [r3]	@ zero_extendqisi2
 2251              		.loc 1 720 12
 2252 0016 BB61     		str	r3, [r7, #24]
 721:Drivers/STM32F4xx_HAL_Driver/Src/stm32f4xx_ll_usb.c ****   uint16_t pktcnt;
 722:Drivers/STM32F4xx_HAL_Driver/Src/stm32f4xx_ll_usb.c **** 
 723:Drivers/STM32F4xx_HAL_Driver/Src/stm32f4xx_ll_usb.c ****   /* IN endpoint */
 724:Drivers/STM32F4xx_HAL_Driver/Src/stm32f4xx_ll_usb.c ****   if (ep->is_in == 1U)
 2253              		.loc 1 724 9
ARM GAS  /tmp/ccaXZQ0T.s 			page 53


 2254 0018 BB68     		ldr	r3, [r7, #8]
 2255 001a 5B78     		ldrb	r3, [r3, #1]	@ zero_extendqisi2
 2256              		.loc 1 724 6
 2257 001c 012B     		cmp	r3, #1
 2258 001e 40F05C81 		bne	.L109
 725:Drivers/STM32F4xx_HAL_Driver/Src/stm32f4xx_ll_usb.c ****   {
 726:Drivers/STM32F4xx_HAL_Driver/Src/stm32f4xx_ll_usb.c ****     /* Zero Length Packet? */
 727:Drivers/STM32F4xx_HAL_Driver/Src/stm32f4xx_ll_usb.c ****     if (ep->xfer_len == 0U)
 2259              		.loc 1 727 11
 2260 0022 BB68     		ldr	r3, [r7, #8]
 2261 0024 5B69     		ldr	r3, [r3, #20]
 2262              		.loc 1 727 8
 2263 0026 002B     		cmp	r3, #0
 2264 0028 32D1     		bne	.L110
 728:Drivers/STM32F4xx_HAL_Driver/Src/stm32f4xx_ll_usb.c ****     {
 729:Drivers/STM32F4xx_HAL_Driver/Src/stm32f4xx_ll_usb.c ****       USBx_INEP(epnum)->DIEPTSIZ &= ~(USB_OTG_DIEPTSIZ_PKTCNT);
 2265              		.loc 1 729 34
 2266 002a BB69     		ldr	r3, [r7, #24]
 2267 002c 5A01     		lsls	r2, r3, #5
 2268 002e FB69     		ldr	r3, [r7, #28]
 2269 0030 1344     		add	r3, r3, r2
 2270 0032 03F51063 		add	r3, r3, #2304
 2271 0036 1B69     		ldr	r3, [r3, #16]
 2272 0038 BA69     		ldr	r2, [r7, #24]
 2273 003a 5101     		lsls	r1, r2, #5
 2274 003c FA69     		ldr	r2, [r7, #28]
 2275 003e 0A44     		add	r2, r2, r1
 2276 0040 02F51062 		add	r2, r2, #2304
 2277 0044 23F0FF53 		bic	r3, r3, #534773760
 2278 0048 23F4C013 		bic	r3, r3, #1572864
 2279 004c 1361     		str	r3, [r2, #16]
 730:Drivers/STM32F4xx_HAL_Driver/Src/stm32f4xx_ll_usb.c ****       USBx_INEP(epnum)->DIEPTSIZ |= (USB_OTG_DIEPTSIZ_PKTCNT & (1U << 19));
 2280              		.loc 1 730 34
 2281 004e BB69     		ldr	r3, [r7, #24]
 2282 0050 5A01     		lsls	r2, r3, #5
 2283 0052 FB69     		ldr	r3, [r7, #28]
 2284 0054 1344     		add	r3, r3, r2
 2285 0056 03F51063 		add	r3, r3, #2304
 2286 005a 1B69     		ldr	r3, [r3, #16]
 2287 005c BA69     		ldr	r2, [r7, #24]
 2288 005e 5101     		lsls	r1, r2, #5
 2289 0060 FA69     		ldr	r2, [r7, #28]
 2290 0062 0A44     		add	r2, r2, r1
 2291 0064 02F51062 		add	r2, r2, #2304
 2292 0068 43F40023 		orr	r3, r3, #524288
 2293 006c 1361     		str	r3, [r2, #16]
 731:Drivers/STM32F4xx_HAL_Driver/Src/stm32f4xx_ll_usb.c ****       USBx_INEP(epnum)->DIEPTSIZ &= ~(USB_OTG_DIEPTSIZ_XFRSIZ);
 2294              		.loc 1 731 34
 2295 006e BB69     		ldr	r3, [r7, #24]
 2296 0070 5A01     		lsls	r2, r3, #5
 2297 0072 FB69     		ldr	r3, [r7, #28]
 2298 0074 1344     		add	r3, r3, r2
 2299 0076 03F51063 		add	r3, r3, #2304
 2300 007a 1B69     		ldr	r3, [r3, #16]
 2301 007c BA69     		ldr	r2, [r7, #24]
 2302 007e 5101     		lsls	r1, r2, #5
 2303 0080 FA69     		ldr	r2, [r7, #28]
ARM GAS  /tmp/ccaXZQ0T.s 			page 54


 2304 0082 0A44     		add	r2, r2, r1
 2305 0084 02F51062 		add	r2, r2, #2304
 2306 0088 DB0C     		lsrs	r3, r3, #19
 2307 008a DB04     		lsls	r3, r3, #19
 2308 008c 1361     		str	r3, [r2, #16]
 2309 008e 74E0     		b	.L111
 2310              	.L110:
 732:Drivers/STM32F4xx_HAL_Driver/Src/stm32f4xx_ll_usb.c ****     }
 733:Drivers/STM32F4xx_HAL_Driver/Src/stm32f4xx_ll_usb.c ****     else
 734:Drivers/STM32F4xx_HAL_Driver/Src/stm32f4xx_ll_usb.c ****     {
 735:Drivers/STM32F4xx_HAL_Driver/Src/stm32f4xx_ll_usb.c ****       /* Program the transfer size and packet count
 736:Drivers/STM32F4xx_HAL_Driver/Src/stm32f4xx_ll_usb.c ****       * as follows: xfersize = N * maxpacket +
 737:Drivers/STM32F4xx_HAL_Driver/Src/stm32f4xx_ll_usb.c ****       * short_packet pktcnt = N + (short_packet
 738:Drivers/STM32F4xx_HAL_Driver/Src/stm32f4xx_ll_usb.c ****       * exist ? 1 : 0)
 739:Drivers/STM32F4xx_HAL_Driver/Src/stm32f4xx_ll_usb.c ****       */
 740:Drivers/STM32F4xx_HAL_Driver/Src/stm32f4xx_ll_usb.c ****       USBx_INEP(epnum)->DIEPTSIZ &= ~(USB_OTG_DIEPTSIZ_XFRSIZ);
 2311              		.loc 1 740 34
 2312 0090 BB69     		ldr	r3, [r7, #24]
 2313 0092 5A01     		lsls	r2, r3, #5
 2314 0094 FB69     		ldr	r3, [r7, #28]
 2315 0096 1344     		add	r3, r3, r2
 2316 0098 03F51063 		add	r3, r3, #2304
 2317 009c 1B69     		ldr	r3, [r3, #16]
 2318 009e BA69     		ldr	r2, [r7, #24]
 2319 00a0 5101     		lsls	r1, r2, #5
 2320 00a2 FA69     		ldr	r2, [r7, #28]
 2321 00a4 0A44     		add	r2, r2, r1
 2322 00a6 02F51062 		add	r2, r2, #2304
 2323 00aa DB0C     		lsrs	r3, r3, #19
 2324 00ac DB04     		lsls	r3, r3, #19
 2325 00ae 1361     		str	r3, [r2, #16]
 741:Drivers/STM32F4xx_HAL_Driver/Src/stm32f4xx_ll_usb.c ****       USBx_INEP(epnum)->DIEPTSIZ &= ~(USB_OTG_DIEPTSIZ_PKTCNT);
 2326              		.loc 1 741 34
 2327 00b0 BB69     		ldr	r3, [r7, #24]
 2328 00b2 5A01     		lsls	r2, r3, #5
 2329 00b4 FB69     		ldr	r3, [r7, #28]
 2330 00b6 1344     		add	r3, r3, r2
 2331 00b8 03F51063 		add	r3, r3, #2304
 2332 00bc 1B69     		ldr	r3, [r3, #16]
 2333 00be BA69     		ldr	r2, [r7, #24]
 2334 00c0 5101     		lsls	r1, r2, #5
 2335 00c2 FA69     		ldr	r2, [r7, #28]
 2336 00c4 0A44     		add	r2, r2, r1
 2337 00c6 02F51062 		add	r2, r2, #2304
 2338 00ca 23F0FF53 		bic	r3, r3, #534773760
 2339 00ce 23F4C013 		bic	r3, r3, #1572864
 2340 00d2 1361     		str	r3, [r2, #16]
 742:Drivers/STM32F4xx_HAL_Driver/Src/stm32f4xx_ll_usb.c ****       USBx_INEP(epnum)->DIEPTSIZ |= (USB_OTG_DIEPTSIZ_PKTCNT & (((ep->xfer_len + ep->maxpacket - 1U
 2341              		.loc 1 742 34
 2342 00d4 BB69     		ldr	r3, [r7, #24]
 2343 00d6 5A01     		lsls	r2, r3, #5
 2344 00d8 FB69     		ldr	r3, [r7, #28]
 2345 00da 1344     		add	r3, r3, r2
 2346 00dc 03F51063 		add	r3, r3, #2304
 2347 00e0 1A69     		ldr	r2, [r3, #16]
 2348              		.loc 1 742 69
 2349 00e2 BB68     		ldr	r3, [r7, #8]
ARM GAS  /tmp/ccaXZQ0T.s 			page 55


 2350 00e4 5969     		ldr	r1, [r3, #20]
 2351              		.loc 1 742 84
 2352 00e6 BB68     		ldr	r3, [r7, #8]
 2353 00e8 9B68     		ldr	r3, [r3, #8]
 2354              		.loc 1 742 80
 2355 00ea 0B44     		add	r3, r3, r1
 2356              		.loc 1 742 96
 2357 00ec 591E     		subs	r1, r3, #1
 2358              		.loc 1 742 106
 2359 00ee BB68     		ldr	r3, [r7, #8]
 2360 00f0 9B68     		ldr	r3, [r3, #8]
 2361              		.loc 1 742 102
 2362 00f2 B1FBF3F3 		udiv	r3, r1, r3
 2363              		.loc 1 742 119
 2364 00f6 D904     		lsls	r1, r3, #19
 2365              		.loc 1 742 62
 2366 00f8 9D4B     		ldr	r3, .L128
 2367 00fa 0B40     		ands	r3, r3, r1
 2368              		.loc 1 742 34
 2369 00fc B969     		ldr	r1, [r7, #24]
 2370 00fe 4801     		lsls	r0, r1, #5
 2371 0100 F969     		ldr	r1, [r7, #28]
 2372 0102 0144     		add	r1, r1, r0
 2373 0104 01F51061 		add	r1, r1, #2304
 2374 0108 1343     		orrs	r3, r3, r2
 2375 010a 0B61     		str	r3, [r1, #16]
 743:Drivers/STM32F4xx_HAL_Driver/Src/stm32f4xx_ll_usb.c ****       USBx_INEP(epnum)->DIEPTSIZ |= (USB_OTG_DIEPTSIZ_XFRSIZ & ep->xfer_len);
 2376              		.loc 1 743 34
 2377 010c BB69     		ldr	r3, [r7, #24]
 2378 010e 5A01     		lsls	r2, r3, #5
 2379 0110 FB69     		ldr	r3, [r7, #28]
 2380 0112 1344     		add	r3, r3, r2
 2381 0114 03F51063 		add	r3, r3, #2304
 2382 0118 1A69     		ldr	r2, [r3, #16]
 2383              		.loc 1 743 66
 2384 011a BB68     		ldr	r3, [r7, #8]
 2385 011c 5B69     		ldr	r3, [r3, #20]
 2386              		.loc 1 743 62
 2387 011e C3F31203 		ubfx	r3, r3, #0, #19
 2388              		.loc 1 743 34
 2389 0122 B969     		ldr	r1, [r7, #24]
 2390 0124 4801     		lsls	r0, r1, #5
 2391 0126 F969     		ldr	r1, [r7, #28]
 2392 0128 0144     		add	r1, r1, r0
 2393 012a 01F51061 		add	r1, r1, #2304
 2394 012e 1343     		orrs	r3, r3, r2
 2395 0130 0B61     		str	r3, [r1, #16]
 744:Drivers/STM32F4xx_HAL_Driver/Src/stm32f4xx_ll_usb.c **** 
 745:Drivers/STM32F4xx_HAL_Driver/Src/stm32f4xx_ll_usb.c ****       if (ep->type == EP_TYPE_ISOC)
 2396              		.loc 1 745 13
 2397 0132 BB68     		ldr	r3, [r7, #8]
 2398 0134 DB78     		ldrb	r3, [r3, #3]	@ zero_extendqisi2
 2399              		.loc 1 745 10
 2400 0136 012B     		cmp	r3, #1
 2401 0138 1FD1     		bne	.L111
 746:Drivers/STM32F4xx_HAL_Driver/Src/stm32f4xx_ll_usb.c ****       {
 747:Drivers/STM32F4xx_HAL_Driver/Src/stm32f4xx_ll_usb.c ****         USBx_INEP(epnum)->DIEPTSIZ &= ~(USB_OTG_DIEPTSIZ_MULCNT);
ARM GAS  /tmp/ccaXZQ0T.s 			page 56


 2402              		.loc 1 747 36
 2403 013a BB69     		ldr	r3, [r7, #24]
 2404 013c 5A01     		lsls	r2, r3, #5
 2405 013e FB69     		ldr	r3, [r7, #28]
 2406 0140 1344     		add	r3, r3, r2
 2407 0142 03F51063 		add	r3, r3, #2304
 2408 0146 1B69     		ldr	r3, [r3, #16]
 2409 0148 BA69     		ldr	r2, [r7, #24]
 2410 014a 5101     		lsls	r1, r2, #5
 2411 014c FA69     		ldr	r2, [r7, #28]
 2412 014e 0A44     		add	r2, r2, r1
 2413 0150 02F51062 		add	r2, r2, #2304
 2414 0154 23F0C043 		bic	r3, r3, #1610612736
 2415 0158 1361     		str	r3, [r2, #16]
 748:Drivers/STM32F4xx_HAL_Driver/Src/stm32f4xx_ll_usb.c ****         USBx_INEP(epnum)->DIEPTSIZ |= (USB_OTG_DIEPTSIZ_MULCNT & (1U << 29));
 2416              		.loc 1 748 36
 2417 015a BB69     		ldr	r3, [r7, #24]
 2418 015c 5A01     		lsls	r2, r3, #5
 2419 015e FB69     		ldr	r3, [r7, #28]
 2420 0160 1344     		add	r3, r3, r2
 2421 0162 03F51063 		add	r3, r3, #2304
 2422 0166 1B69     		ldr	r3, [r3, #16]
 2423 0168 BA69     		ldr	r2, [r7, #24]
 2424 016a 5101     		lsls	r1, r2, #5
 2425 016c FA69     		ldr	r2, [r7, #28]
 2426 016e 0A44     		add	r2, r2, r1
 2427 0170 02F51062 		add	r2, r2, #2304
 2428 0174 43F00053 		orr	r3, r3, #536870912
 2429 0178 1361     		str	r3, [r2, #16]
 2430              	.L111:
 749:Drivers/STM32F4xx_HAL_Driver/Src/stm32f4xx_ll_usb.c ****       }
 750:Drivers/STM32F4xx_HAL_Driver/Src/stm32f4xx_ll_usb.c ****     }
 751:Drivers/STM32F4xx_HAL_Driver/Src/stm32f4xx_ll_usb.c **** 
 752:Drivers/STM32F4xx_HAL_Driver/Src/stm32f4xx_ll_usb.c ****     if (dma == 1U)
 2431              		.loc 1 752 8
 2432 017a FB79     		ldrb	r3, [r7, #7]	@ zero_extendqisi2
 2433 017c 012B     		cmp	r3, #1
 2434 017e 4BD1     		bne	.L112
 753:Drivers/STM32F4xx_HAL_Driver/Src/stm32f4xx_ll_usb.c ****     {
 754:Drivers/STM32F4xx_HAL_Driver/Src/stm32f4xx_ll_usb.c ****       if ((uint32_t)ep->dma_addr != 0U)
 2435              		.loc 1 754 23
 2436 0180 BB68     		ldr	r3, [r7, #8]
 2437 0182 1B69     		ldr	r3, [r3, #16]
 2438              		.loc 1 754 10
 2439 0184 002B     		cmp	r3, #0
 2440 0186 09D0     		beq	.L113
 755:Drivers/STM32F4xx_HAL_Driver/Src/stm32f4xx_ll_usb.c ****       {
 756:Drivers/STM32F4xx_HAL_Driver/Src/stm32f4xx_ll_usb.c ****         USBx_INEP(epnum)->DIEPDMA = (uint32_t)(ep->dma_addr);
 2441              		.loc 1 756 9
 2442 0188 BB69     		ldr	r3, [r7, #24]
 2443 018a 5A01     		lsls	r2, r3, #5
 2444 018c FB69     		ldr	r3, [r7, #28]
 2445 018e 1344     		add	r3, r3, r2
 2446 0190 03F51063 		add	r3, r3, #2304
 2447 0194 1A46     		mov	r2, r3
 2448              		.loc 1 756 50
 2449 0196 BB68     		ldr	r3, [r7, #8]
ARM GAS  /tmp/ccaXZQ0T.s 			page 57


 2450 0198 1B69     		ldr	r3, [r3, #16]
 2451              		.loc 1 756 35
 2452 019a 5361     		str	r3, [r2, #20]
 2453              	.L113:
 757:Drivers/STM32F4xx_HAL_Driver/Src/stm32f4xx_ll_usb.c ****       }
 758:Drivers/STM32F4xx_HAL_Driver/Src/stm32f4xx_ll_usb.c **** 
 759:Drivers/STM32F4xx_HAL_Driver/Src/stm32f4xx_ll_usb.c ****       if (ep->type == EP_TYPE_ISOC)
 2454              		.loc 1 759 13
 2455 019c BB68     		ldr	r3, [r7, #8]
 2456 019e DB78     		ldrb	r3, [r3, #3]	@ zero_extendqisi2
 2457              		.loc 1 759 10
 2458 01a0 012B     		cmp	r3, #1
 2459 01a2 28D1     		bne	.L114
 760:Drivers/STM32F4xx_HAL_Driver/Src/stm32f4xx_ll_usb.c ****       {
 761:Drivers/STM32F4xx_HAL_Driver/Src/stm32f4xx_ll_usb.c ****         if ((USBx_DEVICE->DSTS & (1U << 8)) == 0U)
 2460              		.loc 1 761 14
 2461 01a4 FB69     		ldr	r3, [r7, #28]
 2462 01a6 03F50063 		add	r3, r3, #2048
 2463              		.loc 1 761 25
 2464 01aa 9B68     		ldr	r3, [r3, #8]
 2465              		.loc 1 761 32
 2466 01ac 03F48073 		and	r3, r3, #256
 2467              		.loc 1 761 12
 2468 01b0 002B     		cmp	r3, #0
 2469 01b2 10D1     		bne	.L115
 762:Drivers/STM32F4xx_HAL_Driver/Src/stm32f4xx_ll_usb.c ****         {
 763:Drivers/STM32F4xx_HAL_Driver/Src/stm32f4xx_ll_usb.c ****           USBx_INEP(epnum)->DIEPCTL |= USB_OTG_DIEPCTL_SODDFRM;
 2470              		.loc 1 763 37
 2471 01b4 BB69     		ldr	r3, [r7, #24]
 2472 01b6 5A01     		lsls	r2, r3, #5
 2473 01b8 FB69     		ldr	r3, [r7, #28]
 2474 01ba 1344     		add	r3, r3, r2
 2475 01bc 03F51063 		add	r3, r3, #2304
 2476 01c0 1B68     		ldr	r3, [r3]
 2477 01c2 BA69     		ldr	r2, [r7, #24]
 2478 01c4 5101     		lsls	r1, r2, #5
 2479 01c6 FA69     		ldr	r2, [r7, #28]
 2480 01c8 0A44     		add	r2, r2, r1
 2481 01ca 02F51062 		add	r2, r2, #2304
 2482 01ce 43F00053 		orr	r3, r3, #536870912
 2483 01d2 1360     		str	r3, [r2]
 2484 01d4 0FE0     		b	.L114
 2485              	.L115:
 764:Drivers/STM32F4xx_HAL_Driver/Src/stm32f4xx_ll_usb.c ****         }
 765:Drivers/STM32F4xx_HAL_Driver/Src/stm32f4xx_ll_usb.c ****         else
 766:Drivers/STM32F4xx_HAL_Driver/Src/stm32f4xx_ll_usb.c ****         {
 767:Drivers/STM32F4xx_HAL_Driver/Src/stm32f4xx_ll_usb.c ****           USBx_INEP(epnum)->DIEPCTL |= USB_OTG_DIEPCTL_SD0PID_SEVNFRM;
 2486              		.loc 1 767 37
 2487 01d6 BB69     		ldr	r3, [r7, #24]
 2488 01d8 5A01     		lsls	r2, r3, #5
 2489 01da FB69     		ldr	r3, [r7, #28]
 2490 01dc 1344     		add	r3, r3, r2
 2491 01de 03F51063 		add	r3, r3, #2304
 2492 01e2 1B68     		ldr	r3, [r3]
 2493 01e4 BA69     		ldr	r2, [r7, #24]
 2494 01e6 5101     		lsls	r1, r2, #5
 2495 01e8 FA69     		ldr	r2, [r7, #28]
ARM GAS  /tmp/ccaXZQ0T.s 			page 58


 2496 01ea 0A44     		add	r2, r2, r1
 2497 01ec 02F51062 		add	r2, r2, #2304
 2498 01f0 43F08053 		orr	r3, r3, #268435456
 2499 01f4 1360     		str	r3, [r2]
 2500              	.L114:
 768:Drivers/STM32F4xx_HAL_Driver/Src/stm32f4xx_ll_usb.c ****         }
 769:Drivers/STM32F4xx_HAL_Driver/Src/stm32f4xx_ll_usb.c ****       }
 770:Drivers/STM32F4xx_HAL_Driver/Src/stm32f4xx_ll_usb.c **** 
 771:Drivers/STM32F4xx_HAL_Driver/Src/stm32f4xx_ll_usb.c ****       /* EP enable, IN data in FIFO */
 772:Drivers/STM32F4xx_HAL_Driver/Src/stm32f4xx_ll_usb.c ****       USBx_INEP(epnum)->DIEPCTL |= (USB_OTG_DIEPCTL_CNAK | USB_OTG_DIEPCTL_EPENA);
 2501              		.loc 1 772 33
 2502 01f6 BB69     		ldr	r3, [r7, #24]
 2503 01f8 5A01     		lsls	r2, r3, #5
 2504 01fa FB69     		ldr	r3, [r7, #28]
 2505 01fc 1344     		add	r3, r3, r2
 2506 01fe 03F51063 		add	r3, r3, #2304
 2507 0202 1B68     		ldr	r3, [r3]
 2508 0204 BA69     		ldr	r2, [r7, #24]
 2509 0206 5101     		lsls	r1, r2, #5
 2510 0208 FA69     		ldr	r2, [r7, #28]
 2511 020a 0A44     		add	r2, r2, r1
 2512 020c 02F51062 		add	r2, r2, #2304
 2513 0210 43F00443 		orr	r3, r3, #-2080374784
 2514 0214 1360     		str	r3, [r2]
 2515 0216 2FE1     		b	.L121
 2516              	.L112:
 773:Drivers/STM32F4xx_HAL_Driver/Src/stm32f4xx_ll_usb.c ****     }
 774:Drivers/STM32F4xx_HAL_Driver/Src/stm32f4xx_ll_usb.c ****     else
 775:Drivers/STM32F4xx_HAL_Driver/Src/stm32f4xx_ll_usb.c ****     {
 776:Drivers/STM32F4xx_HAL_Driver/Src/stm32f4xx_ll_usb.c ****       /* EP enable, IN data in FIFO */
 777:Drivers/STM32F4xx_HAL_Driver/Src/stm32f4xx_ll_usb.c ****       USBx_INEP(epnum)->DIEPCTL |= (USB_OTG_DIEPCTL_CNAK | USB_OTG_DIEPCTL_EPENA);
 2517              		.loc 1 777 33
 2518 0218 BB69     		ldr	r3, [r7, #24]
 2519 021a 5A01     		lsls	r2, r3, #5
 2520 021c FB69     		ldr	r3, [r7, #28]
 2521 021e 1344     		add	r3, r3, r2
 2522 0220 03F51063 		add	r3, r3, #2304
 2523 0224 1B68     		ldr	r3, [r3]
 2524 0226 BA69     		ldr	r2, [r7, #24]
 2525 0228 5101     		lsls	r1, r2, #5
 2526 022a FA69     		ldr	r2, [r7, #28]
 2527 022c 0A44     		add	r2, r2, r1
 2528 022e 02F51062 		add	r2, r2, #2304
 2529 0232 43F00443 		orr	r3, r3, #-2080374784
 2530 0236 1360     		str	r3, [r2]
 778:Drivers/STM32F4xx_HAL_Driver/Src/stm32f4xx_ll_usb.c **** 
 779:Drivers/STM32F4xx_HAL_Driver/Src/stm32f4xx_ll_usb.c ****       if (ep->type != EP_TYPE_ISOC)
 2531              		.loc 1 779 13
 2532 0238 BB68     		ldr	r3, [r7, #8]
 2533 023a DB78     		ldrb	r3, [r3, #3]	@ zero_extendqisi2
 2534              		.loc 1 779 10
 2535 023c 012B     		cmp	r3, #1
 2536 023e 15D0     		beq	.L117
 780:Drivers/STM32F4xx_HAL_Driver/Src/stm32f4xx_ll_usb.c ****       {
 781:Drivers/STM32F4xx_HAL_Driver/Src/stm32f4xx_ll_usb.c ****         /* Enable the Tx FIFO Empty Interrupt for this EP */
 782:Drivers/STM32F4xx_HAL_Driver/Src/stm32f4xx_ll_usb.c ****         if (ep->xfer_len > 0U)
 2537              		.loc 1 782 15
ARM GAS  /tmp/ccaXZQ0T.s 			page 59


 2538 0240 BB68     		ldr	r3, [r7, #8]
 2539 0242 5B69     		ldr	r3, [r3, #20]
 2540              		.loc 1 782 12
 2541 0244 002B     		cmp	r3, #0
 2542 0246 00F01781 		beq	.L121
 783:Drivers/STM32F4xx_HAL_Driver/Src/stm32f4xx_ll_usb.c ****         {
 784:Drivers/STM32F4xx_HAL_Driver/Src/stm32f4xx_ll_usb.c ****           USBx_DEVICE->DIEPEMPMSK |= 1UL << (ep->num & EP_ADDR_MSK);
 2543              		.loc 1 784 35
 2544 024a FB69     		ldr	r3, [r7, #28]
 2545 024c 03F50063 		add	r3, r3, #2048
 2546 0250 5A6B     		ldr	r2, [r3, #52]
 2547              		.loc 1 784 48
 2548 0252 BB68     		ldr	r3, [r7, #8]
 2549 0254 1B78     		ldrb	r3, [r3]	@ zero_extendqisi2
 2550              		.loc 1 784 54
 2551 0256 03F00F03 		and	r3, r3, #15
 2552              		.loc 1 784 42
 2553 025a 0121     		movs	r1, #1
 2554 025c 01FA03F3 		lsl	r3, r1, r3
 2555              		.loc 1 784 35
 2556 0260 F969     		ldr	r1, [r7, #28]
 2557 0262 01F50061 		add	r1, r1, #2048
 2558 0266 1343     		orrs	r3, r3, r2
 2559 0268 4B63     		str	r3, [r1, #52]
 2560 026a 05E1     		b	.L121
 2561              	.L117:
 785:Drivers/STM32F4xx_HAL_Driver/Src/stm32f4xx_ll_usb.c ****         }
 786:Drivers/STM32F4xx_HAL_Driver/Src/stm32f4xx_ll_usb.c ****       }
 787:Drivers/STM32F4xx_HAL_Driver/Src/stm32f4xx_ll_usb.c ****       else
 788:Drivers/STM32F4xx_HAL_Driver/Src/stm32f4xx_ll_usb.c ****       {
 789:Drivers/STM32F4xx_HAL_Driver/Src/stm32f4xx_ll_usb.c ****         if ((USBx_DEVICE->DSTS & (1U << 8)) == 0U)
 2562              		.loc 1 789 14
 2563 026c FB69     		ldr	r3, [r7, #28]
 2564 026e 03F50063 		add	r3, r3, #2048
 2565              		.loc 1 789 25
 2566 0272 9B68     		ldr	r3, [r3, #8]
 2567              		.loc 1 789 32
 2568 0274 03F48073 		and	r3, r3, #256
 2569              		.loc 1 789 12
 2570 0278 002B     		cmp	r3, #0
 2571 027a 10D1     		bne	.L119
 790:Drivers/STM32F4xx_HAL_Driver/Src/stm32f4xx_ll_usb.c ****         {
 791:Drivers/STM32F4xx_HAL_Driver/Src/stm32f4xx_ll_usb.c ****           USBx_INEP(epnum)->DIEPCTL |= USB_OTG_DIEPCTL_SODDFRM;
 2572              		.loc 1 791 37
 2573 027c BB69     		ldr	r3, [r7, #24]
 2574 027e 5A01     		lsls	r2, r3, #5
 2575 0280 FB69     		ldr	r3, [r7, #28]
 2576 0282 1344     		add	r3, r3, r2
 2577 0284 03F51063 		add	r3, r3, #2304
 2578 0288 1B68     		ldr	r3, [r3]
 2579 028a BA69     		ldr	r2, [r7, #24]
 2580 028c 5101     		lsls	r1, r2, #5
 2581 028e FA69     		ldr	r2, [r7, #28]
 2582 0290 0A44     		add	r2, r2, r1
 2583 0292 02F51062 		add	r2, r2, #2304
 2584 0296 43F00053 		orr	r3, r3, #536870912
 2585 029a 1360     		str	r3, [r2]
ARM GAS  /tmp/ccaXZQ0T.s 			page 60


 2586 029c 0FE0     		b	.L120
 2587              	.L119:
 792:Drivers/STM32F4xx_HAL_Driver/Src/stm32f4xx_ll_usb.c ****         }
 793:Drivers/STM32F4xx_HAL_Driver/Src/stm32f4xx_ll_usb.c ****         else
 794:Drivers/STM32F4xx_HAL_Driver/Src/stm32f4xx_ll_usb.c ****         {
 795:Drivers/STM32F4xx_HAL_Driver/Src/stm32f4xx_ll_usb.c ****           USBx_INEP(epnum)->DIEPCTL |= USB_OTG_DIEPCTL_SD0PID_SEVNFRM;
 2588              		.loc 1 795 37
 2589 029e BB69     		ldr	r3, [r7, #24]
 2590 02a0 5A01     		lsls	r2, r3, #5
 2591 02a2 FB69     		ldr	r3, [r7, #28]
 2592 02a4 1344     		add	r3, r3, r2
 2593 02a6 03F51063 		add	r3, r3, #2304
 2594 02aa 1B68     		ldr	r3, [r3]
 2595 02ac BA69     		ldr	r2, [r7, #24]
 2596 02ae 5101     		lsls	r1, r2, #5
 2597 02b0 FA69     		ldr	r2, [r7, #28]
 2598 02b2 0A44     		add	r2, r2, r1
 2599 02b4 02F51062 		add	r2, r2, #2304
 2600 02b8 43F08053 		orr	r3, r3, #268435456
 2601 02bc 1360     		str	r3, [r2]
 2602              	.L120:
 796:Drivers/STM32F4xx_HAL_Driver/Src/stm32f4xx_ll_usb.c ****         }
 797:Drivers/STM32F4xx_HAL_Driver/Src/stm32f4xx_ll_usb.c **** 
 798:Drivers/STM32F4xx_HAL_Driver/Src/stm32f4xx_ll_usb.c ****         (void)USB_WritePacket(USBx, ep->xfer_buff, ep->num, (uint16_t)ep->xfer_len, dma);
 2603              		.loc 1 798 15
 2604 02be BB68     		ldr	r3, [r7, #8]
 2605 02c0 D968     		ldr	r1, [r3, #12]
 2606 02c2 BB68     		ldr	r3, [r7, #8]
 2607 02c4 1A78     		ldrb	r2, [r3]	@ zero_extendqisi2
 2608              		.loc 1 798 73
 2609 02c6 BB68     		ldr	r3, [r7, #8]
 2610 02c8 5B69     		ldr	r3, [r3, #20]
 2611              		.loc 1 798 15
 2612 02ca 98B2     		uxth	r0, r3
 2613 02cc FB79     		ldrb	r3, [r7, #7]	@ zero_extendqisi2
 2614 02ce 0093     		str	r3, [sp]
 2615 02d0 0346     		mov	r3, r0
 2616 02d2 F868     		ldr	r0, [r7, #12]
 2617 02d4 FFF7FEFF 		bl	USB_WritePacket
 2618 02d8 CEE0     		b	.L121
 2619              	.L109:
 799:Drivers/STM32F4xx_HAL_Driver/Src/stm32f4xx_ll_usb.c ****       }
 800:Drivers/STM32F4xx_HAL_Driver/Src/stm32f4xx_ll_usb.c ****     }
 801:Drivers/STM32F4xx_HAL_Driver/Src/stm32f4xx_ll_usb.c ****   }
 802:Drivers/STM32F4xx_HAL_Driver/Src/stm32f4xx_ll_usb.c ****   else /* OUT endpoint */
 803:Drivers/STM32F4xx_HAL_Driver/Src/stm32f4xx_ll_usb.c ****   {
 804:Drivers/STM32F4xx_HAL_Driver/Src/stm32f4xx_ll_usb.c ****     /* Program the transfer size and packet count as follows:
 805:Drivers/STM32F4xx_HAL_Driver/Src/stm32f4xx_ll_usb.c ****     * pktcnt = N
 806:Drivers/STM32F4xx_HAL_Driver/Src/stm32f4xx_ll_usb.c ****     * xfersize = N * maxpacket
 807:Drivers/STM32F4xx_HAL_Driver/Src/stm32f4xx_ll_usb.c ****     */
 808:Drivers/STM32F4xx_HAL_Driver/Src/stm32f4xx_ll_usb.c ****     USBx_OUTEP(epnum)->DOEPTSIZ &= ~(USB_OTG_DOEPTSIZ_XFRSIZ);
 2620              		.loc 1 808 33
 2621 02da BB69     		ldr	r3, [r7, #24]
 2622 02dc 5A01     		lsls	r2, r3, #5
 2623 02de FB69     		ldr	r3, [r7, #28]
 2624 02e0 1344     		add	r3, r3, r2
 2625 02e2 03F53063 		add	r3, r3, #2816
ARM GAS  /tmp/ccaXZQ0T.s 			page 61


 2626 02e6 1B69     		ldr	r3, [r3, #16]
 2627 02e8 BA69     		ldr	r2, [r7, #24]
 2628 02ea 5101     		lsls	r1, r2, #5
 2629 02ec FA69     		ldr	r2, [r7, #28]
 2630 02ee 0A44     		add	r2, r2, r1
 2631 02f0 02F53062 		add	r2, r2, #2816
 2632 02f4 DB0C     		lsrs	r3, r3, #19
 2633 02f6 DB04     		lsls	r3, r3, #19
 2634 02f8 1361     		str	r3, [r2, #16]
 809:Drivers/STM32F4xx_HAL_Driver/Src/stm32f4xx_ll_usb.c ****     USBx_OUTEP(epnum)->DOEPTSIZ &= ~(USB_OTG_DOEPTSIZ_PKTCNT);
 2635              		.loc 1 809 33
 2636 02fa BB69     		ldr	r3, [r7, #24]
 2637 02fc 5A01     		lsls	r2, r3, #5
 2638 02fe FB69     		ldr	r3, [r7, #28]
 2639 0300 1344     		add	r3, r3, r2
 2640 0302 03F53063 		add	r3, r3, #2816
 2641 0306 1B69     		ldr	r3, [r3, #16]
 2642 0308 BA69     		ldr	r2, [r7, #24]
 2643 030a 5101     		lsls	r1, r2, #5
 2644 030c FA69     		ldr	r2, [r7, #28]
 2645 030e 0A44     		add	r2, r2, r1
 2646 0310 02F53062 		add	r2, r2, #2816
 2647 0314 23F0FF53 		bic	r3, r3, #534773760
 2648 0318 23F4C013 		bic	r3, r3, #1572864
 2649 031c 1361     		str	r3, [r2, #16]
 810:Drivers/STM32F4xx_HAL_Driver/Src/stm32f4xx_ll_usb.c **** 
 811:Drivers/STM32F4xx_HAL_Driver/Src/stm32f4xx_ll_usb.c ****     if (ep->xfer_len == 0U)
 2650              		.loc 1 811 11
 2651 031e BB68     		ldr	r3, [r7, #8]
 2652 0320 5B69     		ldr	r3, [r3, #20]
 2653              		.loc 1 811 8
 2654 0322 002B     		cmp	r3, #0
 2655 0324 26D1     		bne	.L122
 812:Drivers/STM32F4xx_HAL_Driver/Src/stm32f4xx_ll_usb.c ****     {
 813:Drivers/STM32F4xx_HAL_Driver/Src/stm32f4xx_ll_usb.c ****       USBx_OUTEP(epnum)->DOEPTSIZ |= (USB_OTG_DOEPTSIZ_XFRSIZ & ep->maxpacket);
 2656              		.loc 1 813 35
 2657 0326 BB69     		ldr	r3, [r7, #24]
 2658 0328 5A01     		lsls	r2, r3, #5
 2659 032a FB69     		ldr	r3, [r7, #28]
 2660 032c 1344     		add	r3, r3, r2
 2661 032e 03F53063 		add	r3, r3, #2816
 2662 0332 1A69     		ldr	r2, [r3, #16]
 2663              		.loc 1 813 67
 2664 0334 BB68     		ldr	r3, [r7, #8]
 2665 0336 9B68     		ldr	r3, [r3, #8]
 2666              		.loc 1 813 63
 2667 0338 C3F31203 		ubfx	r3, r3, #0, #19
 2668              		.loc 1 813 35
 2669 033c B969     		ldr	r1, [r7, #24]
 2670 033e 4801     		lsls	r0, r1, #5
 2671 0340 F969     		ldr	r1, [r7, #28]
 2672 0342 0144     		add	r1, r1, r0
 2673 0344 01F53061 		add	r1, r1, #2816
 2674 0348 1343     		orrs	r3, r3, r2
 2675 034a 0B61     		str	r3, [r1, #16]
 814:Drivers/STM32F4xx_HAL_Driver/Src/stm32f4xx_ll_usb.c ****       USBx_OUTEP(epnum)->DOEPTSIZ |= (USB_OTG_DOEPTSIZ_PKTCNT & (1U << 19));
 2676              		.loc 1 814 35
ARM GAS  /tmp/ccaXZQ0T.s 			page 62


 2677 034c BB69     		ldr	r3, [r7, #24]
 2678 034e 5A01     		lsls	r2, r3, #5
 2679 0350 FB69     		ldr	r3, [r7, #28]
 2680 0352 1344     		add	r3, r3, r2
 2681 0354 03F53063 		add	r3, r3, #2816
 2682 0358 1B69     		ldr	r3, [r3, #16]
 2683 035a BA69     		ldr	r2, [r7, #24]
 2684 035c 5101     		lsls	r1, r2, #5
 2685 035e FA69     		ldr	r2, [r7, #28]
 2686 0360 0A44     		add	r2, r2, r1
 2687 0362 02F53062 		add	r2, r2, #2816
 2688 0366 43F40023 		orr	r3, r3, #524288
 2689 036a 1361     		str	r3, [r2, #16]
 2690 036c 36E0     		b	.L123
 2691              	.L129:
 2692 036e 00BF     		.align	2
 2693              	.L128:
 2694 0370 0000F81F 		.word	536346624
 2695              	.L122:
 815:Drivers/STM32F4xx_HAL_Driver/Src/stm32f4xx_ll_usb.c ****     }
 816:Drivers/STM32F4xx_HAL_Driver/Src/stm32f4xx_ll_usb.c ****     else
 817:Drivers/STM32F4xx_HAL_Driver/Src/stm32f4xx_ll_usb.c ****     {
 818:Drivers/STM32F4xx_HAL_Driver/Src/stm32f4xx_ll_usb.c ****       pktcnt = (uint16_t)((ep->xfer_len + ep->maxpacket - 1U) / ep->maxpacket);
 2696              		.loc 1 818 30
 2697 0374 BB68     		ldr	r3, [r7, #8]
 2698 0376 5A69     		ldr	r2, [r3, #20]
 2699              		.loc 1 818 45
 2700 0378 BB68     		ldr	r3, [r7, #8]
 2701 037a 9B68     		ldr	r3, [r3, #8]
 2702              		.loc 1 818 41
 2703 037c 1344     		add	r3, r3, r2
 2704              		.loc 1 818 57
 2705 037e 5A1E     		subs	r2, r3, #1
 2706              		.loc 1 818 67
 2707 0380 BB68     		ldr	r3, [r7, #8]
 2708 0382 9B68     		ldr	r3, [r3, #8]
 2709              		.loc 1 818 63
 2710 0384 B2FBF3F3 		udiv	r3, r2, r3
 2711              		.loc 1 818 14
 2712 0388 FB82     		strh	r3, [r7, #22]	@ movhi
 819:Drivers/STM32F4xx_HAL_Driver/Src/stm32f4xx_ll_usb.c ****       USBx_OUTEP(epnum)->DOEPTSIZ |= USB_OTG_DOEPTSIZ_PKTCNT & ((uint32_t)pktcnt << 19);
 2713              		.loc 1 819 35
 2714 038a BB69     		ldr	r3, [r7, #24]
 2715 038c 5A01     		lsls	r2, r3, #5
 2716 038e FB69     		ldr	r3, [r7, #28]
 2717 0390 1344     		add	r3, r3, r2
 2718 0392 03F53063 		add	r3, r3, #2816
 2719 0396 1A69     		ldr	r2, [r3, #16]
 2720              		.loc 1 819 65
 2721 0398 FB8A     		ldrh	r3, [r7, #22]
 2722              		.loc 1 819 82
 2723 039a D904     		lsls	r1, r3, #19
 2724              		.loc 1 819 62
 2725 039c 394B     		ldr	r3, .L130
 2726 039e 0B40     		ands	r3, r3, r1
 2727              		.loc 1 819 35
 2728 03a0 B969     		ldr	r1, [r7, #24]
ARM GAS  /tmp/ccaXZQ0T.s 			page 63


 2729 03a2 4801     		lsls	r0, r1, #5
 2730 03a4 F969     		ldr	r1, [r7, #28]
 2731 03a6 0144     		add	r1, r1, r0
 2732 03a8 01F53061 		add	r1, r1, #2816
 2733 03ac 1343     		orrs	r3, r3, r2
 2734 03ae 0B61     		str	r3, [r1, #16]
 820:Drivers/STM32F4xx_HAL_Driver/Src/stm32f4xx_ll_usb.c ****       USBx_OUTEP(epnum)->DOEPTSIZ |= USB_OTG_DOEPTSIZ_XFRSIZ & (ep->maxpacket * pktcnt);
 2735              		.loc 1 820 35
 2736 03b0 BB69     		ldr	r3, [r7, #24]
 2737 03b2 5A01     		lsls	r2, r3, #5
 2738 03b4 FB69     		ldr	r3, [r7, #28]
 2739 03b6 1344     		add	r3, r3, r2
 2740 03b8 03F53063 		add	r3, r3, #2816
 2741 03bc 1A69     		ldr	r2, [r3, #16]
 2742              		.loc 1 820 67
 2743 03be BB68     		ldr	r3, [r7, #8]
 2744 03c0 9B68     		ldr	r3, [r3, #8]
 2745              		.loc 1 820 79
 2746 03c2 F98A     		ldrh	r1, [r7, #22]
 2747 03c4 01FB03F3 		mul	r3, r1, r3
 2748              		.loc 1 820 62
 2749 03c8 C3F31203 		ubfx	r3, r3, #0, #19
 2750              		.loc 1 820 35
 2751 03cc B969     		ldr	r1, [r7, #24]
 2752 03ce 4801     		lsls	r0, r1, #5
 2753 03d0 F969     		ldr	r1, [r7, #28]
 2754 03d2 0144     		add	r1, r1, r0
 2755 03d4 01F53061 		add	r1, r1, #2816
 2756 03d8 1343     		orrs	r3, r3, r2
 2757 03da 0B61     		str	r3, [r1, #16]
 2758              	.L123:
 821:Drivers/STM32F4xx_HAL_Driver/Src/stm32f4xx_ll_usb.c ****     }
 822:Drivers/STM32F4xx_HAL_Driver/Src/stm32f4xx_ll_usb.c **** 
 823:Drivers/STM32F4xx_HAL_Driver/Src/stm32f4xx_ll_usb.c ****     if (dma == 1U)
 2759              		.loc 1 823 8
 2760 03dc FB79     		ldrb	r3, [r7, #7]	@ zero_extendqisi2
 2761 03de 012B     		cmp	r3, #1
 2762 03e0 0DD1     		bne	.L124
 824:Drivers/STM32F4xx_HAL_Driver/Src/stm32f4xx_ll_usb.c ****     {
 825:Drivers/STM32F4xx_HAL_Driver/Src/stm32f4xx_ll_usb.c ****       if ((uint32_t)ep->xfer_buff != 0U)
 2763              		.loc 1 825 23
 2764 03e2 BB68     		ldr	r3, [r7, #8]
 2765 03e4 DB68     		ldr	r3, [r3, #12]
 2766              		.loc 1 825 10
 2767 03e6 002B     		cmp	r3, #0
 2768 03e8 09D0     		beq	.L124
 826:Drivers/STM32F4xx_HAL_Driver/Src/stm32f4xx_ll_usb.c ****       {
 827:Drivers/STM32F4xx_HAL_Driver/Src/stm32f4xx_ll_usb.c ****         USBx_OUTEP(epnum)->DOEPDMA = (uint32_t)(ep->xfer_buff);
 2769              		.loc 1 827 51
 2770 03ea BB68     		ldr	r3, [r7, #8]
 2771 03ec D968     		ldr	r1, [r3, #12]
 2772              		.loc 1 827 9
 2773 03ee BB69     		ldr	r3, [r7, #24]
 2774 03f0 5A01     		lsls	r2, r3, #5
 2775 03f2 FB69     		ldr	r3, [r7, #28]
 2776 03f4 1344     		add	r3, r3, r2
 2777 03f6 03F53063 		add	r3, r3, #2816
ARM GAS  /tmp/ccaXZQ0T.s 			page 64


 2778              		.loc 1 827 38
 2779 03fa 0A46     		mov	r2, r1
 2780              		.loc 1 827 36
 2781 03fc 5A61     		str	r2, [r3, #20]
 2782              	.L124:
 828:Drivers/STM32F4xx_HAL_Driver/Src/stm32f4xx_ll_usb.c ****       }
 829:Drivers/STM32F4xx_HAL_Driver/Src/stm32f4xx_ll_usb.c ****     }
 830:Drivers/STM32F4xx_HAL_Driver/Src/stm32f4xx_ll_usb.c **** 
 831:Drivers/STM32F4xx_HAL_Driver/Src/stm32f4xx_ll_usb.c ****     if (ep->type == EP_TYPE_ISOC)
 2783              		.loc 1 831 11
 2784 03fe BB68     		ldr	r3, [r7, #8]
 2785 0400 DB78     		ldrb	r3, [r3, #3]	@ zero_extendqisi2
 2786              		.loc 1 831 8
 2787 0402 012B     		cmp	r3, #1
 2788 0404 28D1     		bne	.L125
 832:Drivers/STM32F4xx_HAL_Driver/Src/stm32f4xx_ll_usb.c ****     {
 833:Drivers/STM32F4xx_HAL_Driver/Src/stm32f4xx_ll_usb.c ****       if ((USBx_DEVICE->DSTS & (1U << 8)) == 0U)
 2789              		.loc 1 833 12
 2790 0406 FB69     		ldr	r3, [r7, #28]
 2791 0408 03F50063 		add	r3, r3, #2048
 2792              		.loc 1 833 23
 2793 040c 9B68     		ldr	r3, [r3, #8]
 2794              		.loc 1 833 30
 2795 040e 03F48073 		and	r3, r3, #256
 2796              		.loc 1 833 10
 2797 0412 002B     		cmp	r3, #0
 2798 0414 10D1     		bne	.L126
 834:Drivers/STM32F4xx_HAL_Driver/Src/stm32f4xx_ll_usb.c ****       {
 835:Drivers/STM32F4xx_HAL_Driver/Src/stm32f4xx_ll_usb.c ****         USBx_OUTEP(epnum)->DOEPCTL |= USB_OTG_DOEPCTL_SODDFRM;
 2799              		.loc 1 835 36
 2800 0416 BB69     		ldr	r3, [r7, #24]
 2801 0418 5A01     		lsls	r2, r3, #5
 2802 041a FB69     		ldr	r3, [r7, #28]
 2803 041c 1344     		add	r3, r3, r2
 2804 041e 03F53063 		add	r3, r3, #2816
 2805 0422 1B68     		ldr	r3, [r3]
 2806 0424 BA69     		ldr	r2, [r7, #24]
 2807 0426 5101     		lsls	r1, r2, #5
 2808 0428 FA69     		ldr	r2, [r7, #28]
 2809 042a 0A44     		add	r2, r2, r1
 2810 042c 02F53062 		add	r2, r2, #2816
 2811 0430 43F00053 		orr	r3, r3, #536870912
 2812 0434 1360     		str	r3, [r2]
 2813 0436 0FE0     		b	.L125
 2814              	.L126:
 836:Drivers/STM32F4xx_HAL_Driver/Src/stm32f4xx_ll_usb.c ****       }
 837:Drivers/STM32F4xx_HAL_Driver/Src/stm32f4xx_ll_usb.c ****       else
 838:Drivers/STM32F4xx_HAL_Driver/Src/stm32f4xx_ll_usb.c ****       {
 839:Drivers/STM32F4xx_HAL_Driver/Src/stm32f4xx_ll_usb.c ****         USBx_OUTEP(epnum)->DOEPCTL |= USB_OTG_DOEPCTL_SD0PID_SEVNFRM;
 2815              		.loc 1 839 36
 2816 0438 BB69     		ldr	r3, [r7, #24]
 2817 043a 5A01     		lsls	r2, r3, #5
 2818 043c FB69     		ldr	r3, [r7, #28]
 2819 043e 1344     		add	r3, r3, r2
 2820 0440 03F53063 		add	r3, r3, #2816
 2821 0444 1B68     		ldr	r3, [r3]
 2822 0446 BA69     		ldr	r2, [r7, #24]
ARM GAS  /tmp/ccaXZQ0T.s 			page 65


 2823 0448 5101     		lsls	r1, r2, #5
 2824 044a FA69     		ldr	r2, [r7, #28]
 2825 044c 0A44     		add	r2, r2, r1
 2826 044e 02F53062 		add	r2, r2, #2816
 2827 0452 43F08053 		orr	r3, r3, #268435456
 2828 0456 1360     		str	r3, [r2]
 2829              	.L125:
 840:Drivers/STM32F4xx_HAL_Driver/Src/stm32f4xx_ll_usb.c ****       }
 841:Drivers/STM32F4xx_HAL_Driver/Src/stm32f4xx_ll_usb.c ****     }
 842:Drivers/STM32F4xx_HAL_Driver/Src/stm32f4xx_ll_usb.c ****     /* EP enable */
 843:Drivers/STM32F4xx_HAL_Driver/Src/stm32f4xx_ll_usb.c ****     USBx_OUTEP(epnum)->DOEPCTL |= (USB_OTG_DOEPCTL_CNAK | USB_OTG_DOEPCTL_EPENA);
 2830              		.loc 1 843 32
 2831 0458 BB69     		ldr	r3, [r7, #24]
 2832 045a 5A01     		lsls	r2, r3, #5
 2833 045c FB69     		ldr	r3, [r7, #28]
 2834 045e 1344     		add	r3, r3, r2
 2835 0460 03F53063 		add	r3, r3, #2816
 2836 0464 1B68     		ldr	r3, [r3]
 2837 0466 BA69     		ldr	r2, [r7, #24]
 2838 0468 5101     		lsls	r1, r2, #5
 2839 046a FA69     		ldr	r2, [r7, #28]
 2840 046c 0A44     		add	r2, r2, r1
 2841 046e 02F53062 		add	r2, r2, #2816
 2842 0472 43F00443 		orr	r3, r3, #-2080374784
 2843 0476 1360     		str	r3, [r2]
 2844              	.L121:
 844:Drivers/STM32F4xx_HAL_Driver/Src/stm32f4xx_ll_usb.c ****   }
 845:Drivers/STM32F4xx_HAL_Driver/Src/stm32f4xx_ll_usb.c **** 
 846:Drivers/STM32F4xx_HAL_Driver/Src/stm32f4xx_ll_usb.c ****   return HAL_OK;
 2845              		.loc 1 846 10
 2846 0478 0023     		movs	r3, #0
 847:Drivers/STM32F4xx_HAL_Driver/Src/stm32f4xx_ll_usb.c **** }
 2847              		.loc 1 847 1
 2848 047a 1846     		mov	r0, r3
 2849 047c 2037     		adds	r7, r7, #32
 2850              	.LCFI90:
 2851              		.cfi_def_cfa_offset 8
 2852 047e BD46     		mov	sp, r7
 2853              	.LCFI91:
 2854              		.cfi_def_cfa_register 13
 2855              		@ sp needed
 2856 0480 80BD     		pop	{r7, pc}
 2857              	.L131:
 2858 0482 00BF     		.align	2
 2859              	.L130:
 2860 0484 0000F81F 		.word	536346624
 2861              		.cfi_endproc
 2862              	.LFE144:
 2864              		.section	.text.USB_EP0StartXfer,"ax",%progbits
 2865              		.align	1
 2866              		.global	USB_EP0StartXfer
 2867              		.syntax unified
 2868              		.thumb
 2869              		.thumb_func
 2870              		.fpu fpv4-sp-d16
 2872              	USB_EP0StartXfer:
 2873              	.LFB145:
ARM GAS  /tmp/ccaXZQ0T.s 			page 66


 848:Drivers/STM32F4xx_HAL_Driver/Src/stm32f4xx_ll_usb.c **** 
 849:Drivers/STM32F4xx_HAL_Driver/Src/stm32f4xx_ll_usb.c **** /**
 850:Drivers/STM32F4xx_HAL_Driver/Src/stm32f4xx_ll_usb.c ****   * @brief  USB_EP0StartXfer : setup and starts a transfer over the EP  0
 851:Drivers/STM32F4xx_HAL_Driver/Src/stm32f4xx_ll_usb.c ****   * @param  USBx  Selected device
 852:Drivers/STM32F4xx_HAL_Driver/Src/stm32f4xx_ll_usb.c ****   * @param  ep pointer to endpoint structure
 853:Drivers/STM32F4xx_HAL_Driver/Src/stm32f4xx_ll_usb.c ****   * @param  dma USB dma enabled or disabled
 854:Drivers/STM32F4xx_HAL_Driver/Src/stm32f4xx_ll_usb.c ****   *          This parameter can be one of these values:
 855:Drivers/STM32F4xx_HAL_Driver/Src/stm32f4xx_ll_usb.c ****   *           0 : DMA feature not used
 856:Drivers/STM32F4xx_HAL_Driver/Src/stm32f4xx_ll_usb.c ****   *           1 : DMA feature used
 857:Drivers/STM32F4xx_HAL_Driver/Src/stm32f4xx_ll_usb.c ****   * @retval HAL status
 858:Drivers/STM32F4xx_HAL_Driver/Src/stm32f4xx_ll_usb.c ****   */
 859:Drivers/STM32F4xx_HAL_Driver/Src/stm32f4xx_ll_usb.c **** HAL_StatusTypeDef USB_EP0StartXfer(USB_OTG_GlobalTypeDef *USBx, USB_OTG_EPTypeDef *ep, uint8_t dma)
 860:Drivers/STM32F4xx_HAL_Driver/Src/stm32f4xx_ll_usb.c **** {
 2874              		.loc 1 860 1
 2875              		.cfi_startproc
 2876              		@ args = 0, pretend = 0, frame = 24
 2877              		@ frame_needed = 1, uses_anonymous_args = 0
 2878              		@ link register save eliminated.
 2879 0000 80B4     		push	{r7}
 2880              	.LCFI92:
 2881              		.cfi_def_cfa_offset 4
 2882              		.cfi_offset 7, -4
 2883 0002 87B0     		sub	sp, sp, #28
 2884              	.LCFI93:
 2885              		.cfi_def_cfa_offset 32
 2886 0004 00AF     		add	r7, sp, #0
 2887              	.LCFI94:
 2888              		.cfi_def_cfa_register 7
 2889 0006 F860     		str	r0, [r7, #12]
 2890 0008 B960     		str	r1, [r7, #8]
 2891 000a 1346     		mov	r3, r2
 2892 000c FB71     		strb	r3, [r7, #7]
 861:Drivers/STM32F4xx_HAL_Driver/Src/stm32f4xx_ll_usb.c ****   uint32_t USBx_BASE = (uint32_t)USBx;
 2893              		.loc 1 861 12
 2894 000e FB68     		ldr	r3, [r7, #12]
 2895 0010 7B61     		str	r3, [r7, #20]
 862:Drivers/STM32F4xx_HAL_Driver/Src/stm32f4xx_ll_usb.c ****   uint32_t epnum = (uint32_t)ep->num;
 2896              		.loc 1 862 32
 2897 0012 BB68     		ldr	r3, [r7, #8]
 2898 0014 1B78     		ldrb	r3, [r3]	@ zero_extendqisi2
 2899              		.loc 1 862 12
 2900 0016 3B61     		str	r3, [r7, #16]
 863:Drivers/STM32F4xx_HAL_Driver/Src/stm32f4xx_ll_usb.c **** 
 864:Drivers/STM32F4xx_HAL_Driver/Src/stm32f4xx_ll_usb.c ****   /* IN endpoint */
 865:Drivers/STM32F4xx_HAL_Driver/Src/stm32f4xx_ll_usb.c ****   if (ep->is_in == 1U)
 2901              		.loc 1 865 9
 2902 0018 BB68     		ldr	r3, [r7, #8]
 2903 001a 5B78     		ldrb	r3, [r3, #1]	@ zero_extendqisi2
 2904              		.loc 1 865 6
 2905 001c 012B     		cmp	r3, #1
 2906 001e 40F0CD80 		bne	.L133
 866:Drivers/STM32F4xx_HAL_Driver/Src/stm32f4xx_ll_usb.c ****   {
 867:Drivers/STM32F4xx_HAL_Driver/Src/stm32f4xx_ll_usb.c ****     /* Zero Length Packet? */
 868:Drivers/STM32F4xx_HAL_Driver/Src/stm32f4xx_ll_usb.c ****     if (ep->xfer_len == 0U)
 2907              		.loc 1 868 11
 2908 0022 BB68     		ldr	r3, [r7, #8]
 2909 0024 5B69     		ldr	r3, [r3, #20]
ARM GAS  /tmp/ccaXZQ0T.s 			page 67


 2910              		.loc 1 868 8
 2911 0026 002B     		cmp	r3, #0
 2912 0028 32D1     		bne	.L134
 869:Drivers/STM32F4xx_HAL_Driver/Src/stm32f4xx_ll_usb.c ****     {
 870:Drivers/STM32F4xx_HAL_Driver/Src/stm32f4xx_ll_usb.c ****       USBx_INEP(epnum)->DIEPTSIZ &= ~(USB_OTG_DIEPTSIZ_PKTCNT);
 2913              		.loc 1 870 34
 2914 002a 3B69     		ldr	r3, [r7, #16]
 2915 002c 5A01     		lsls	r2, r3, #5
 2916 002e 7B69     		ldr	r3, [r7, #20]
 2917 0030 1344     		add	r3, r3, r2
 2918 0032 03F51063 		add	r3, r3, #2304
 2919 0036 1B69     		ldr	r3, [r3, #16]
 2920 0038 3A69     		ldr	r2, [r7, #16]
 2921 003a 5101     		lsls	r1, r2, #5
 2922 003c 7A69     		ldr	r2, [r7, #20]
 2923 003e 0A44     		add	r2, r2, r1
 2924 0040 02F51062 		add	r2, r2, #2304
 2925 0044 23F0FF53 		bic	r3, r3, #534773760
 2926 0048 23F4C013 		bic	r3, r3, #1572864
 2927 004c 1361     		str	r3, [r2, #16]
 871:Drivers/STM32F4xx_HAL_Driver/Src/stm32f4xx_ll_usb.c ****       USBx_INEP(epnum)->DIEPTSIZ |= (USB_OTG_DIEPTSIZ_PKTCNT & (1U << 19));
 2928              		.loc 1 871 34
 2929 004e 3B69     		ldr	r3, [r7, #16]
 2930 0050 5A01     		lsls	r2, r3, #5
 2931 0052 7B69     		ldr	r3, [r7, #20]
 2932 0054 1344     		add	r3, r3, r2
 2933 0056 03F51063 		add	r3, r3, #2304
 2934 005a 1B69     		ldr	r3, [r3, #16]
 2935 005c 3A69     		ldr	r2, [r7, #16]
 2936 005e 5101     		lsls	r1, r2, #5
 2937 0060 7A69     		ldr	r2, [r7, #20]
 2938 0062 0A44     		add	r2, r2, r1
 2939 0064 02F51062 		add	r2, r2, #2304
 2940 0068 43F40023 		orr	r3, r3, #524288
 2941 006c 1361     		str	r3, [r2, #16]
 872:Drivers/STM32F4xx_HAL_Driver/Src/stm32f4xx_ll_usb.c ****       USBx_INEP(epnum)->DIEPTSIZ &= ~(USB_OTG_DIEPTSIZ_XFRSIZ);
 2942              		.loc 1 872 34
 2943 006e 3B69     		ldr	r3, [r7, #16]
 2944 0070 5A01     		lsls	r2, r3, #5
 2945 0072 7B69     		ldr	r3, [r7, #20]
 2946 0074 1344     		add	r3, r3, r2
 2947 0076 03F51063 		add	r3, r3, #2304
 2948 007a 1B69     		ldr	r3, [r3, #16]
 2949 007c 3A69     		ldr	r2, [r7, #16]
 2950 007e 5101     		lsls	r1, r2, #5
 2951 0080 7A69     		ldr	r2, [r7, #20]
 2952 0082 0A44     		add	r2, r2, r1
 2953 0084 02F51062 		add	r2, r2, #2304
 2954 0088 DB0C     		lsrs	r3, r3, #19
 2955 008a DB04     		lsls	r3, r3, #19
 2956 008c 1361     		str	r3, [r2, #16]
 2957 008e 4EE0     		b	.L135
 2958              	.L134:
 873:Drivers/STM32F4xx_HAL_Driver/Src/stm32f4xx_ll_usb.c ****     }
 874:Drivers/STM32F4xx_HAL_Driver/Src/stm32f4xx_ll_usb.c ****     else
 875:Drivers/STM32F4xx_HAL_Driver/Src/stm32f4xx_ll_usb.c ****     {
 876:Drivers/STM32F4xx_HAL_Driver/Src/stm32f4xx_ll_usb.c ****       /* Program the transfer size and packet count
ARM GAS  /tmp/ccaXZQ0T.s 			page 68


 877:Drivers/STM32F4xx_HAL_Driver/Src/stm32f4xx_ll_usb.c ****       * as follows: xfersize = N * maxpacket +
 878:Drivers/STM32F4xx_HAL_Driver/Src/stm32f4xx_ll_usb.c ****       * short_packet pktcnt = N + (short_packet
 879:Drivers/STM32F4xx_HAL_Driver/Src/stm32f4xx_ll_usb.c ****       * exist ? 1 : 0)
 880:Drivers/STM32F4xx_HAL_Driver/Src/stm32f4xx_ll_usb.c ****       */
 881:Drivers/STM32F4xx_HAL_Driver/Src/stm32f4xx_ll_usb.c ****       USBx_INEP(epnum)->DIEPTSIZ &= ~(USB_OTG_DIEPTSIZ_XFRSIZ);
 2959              		.loc 1 881 34
 2960 0090 3B69     		ldr	r3, [r7, #16]
 2961 0092 5A01     		lsls	r2, r3, #5
 2962 0094 7B69     		ldr	r3, [r7, #20]
 2963 0096 1344     		add	r3, r3, r2
 2964 0098 03F51063 		add	r3, r3, #2304
 2965 009c 1B69     		ldr	r3, [r3, #16]
 2966 009e 3A69     		ldr	r2, [r7, #16]
 2967 00a0 5101     		lsls	r1, r2, #5
 2968 00a2 7A69     		ldr	r2, [r7, #20]
 2969 00a4 0A44     		add	r2, r2, r1
 2970 00a6 02F51062 		add	r2, r2, #2304
 2971 00aa DB0C     		lsrs	r3, r3, #19
 2972 00ac DB04     		lsls	r3, r3, #19
 2973 00ae 1361     		str	r3, [r2, #16]
 882:Drivers/STM32F4xx_HAL_Driver/Src/stm32f4xx_ll_usb.c ****       USBx_INEP(epnum)->DIEPTSIZ &= ~(USB_OTG_DIEPTSIZ_PKTCNT);
 2974              		.loc 1 882 34
 2975 00b0 3B69     		ldr	r3, [r7, #16]
 2976 00b2 5A01     		lsls	r2, r3, #5
 2977 00b4 7B69     		ldr	r3, [r7, #20]
 2978 00b6 1344     		add	r3, r3, r2
 2979 00b8 03F51063 		add	r3, r3, #2304
 2980 00bc 1B69     		ldr	r3, [r3, #16]
 2981 00be 3A69     		ldr	r2, [r7, #16]
 2982 00c0 5101     		lsls	r1, r2, #5
 2983 00c2 7A69     		ldr	r2, [r7, #20]
 2984 00c4 0A44     		add	r2, r2, r1
 2985 00c6 02F51062 		add	r2, r2, #2304
 2986 00ca 23F0FF53 		bic	r3, r3, #534773760
 2987 00ce 23F4C013 		bic	r3, r3, #1572864
 2988 00d2 1361     		str	r3, [r2, #16]
 883:Drivers/STM32F4xx_HAL_Driver/Src/stm32f4xx_ll_usb.c **** 
 884:Drivers/STM32F4xx_HAL_Driver/Src/stm32f4xx_ll_usb.c ****       if (ep->xfer_len > ep->maxpacket)
 2989              		.loc 1 884 13
 2990 00d4 BB68     		ldr	r3, [r7, #8]
 2991 00d6 5A69     		ldr	r2, [r3, #20]
 2992              		.loc 1 884 28
 2993 00d8 BB68     		ldr	r3, [r7, #8]
 2994 00da 9B68     		ldr	r3, [r3, #8]
 2995              		.loc 1 884 10
 2996 00dc 9A42     		cmp	r2, r3
 2997 00de 03D9     		bls	.L136
 885:Drivers/STM32F4xx_HAL_Driver/Src/stm32f4xx_ll_usb.c ****       {
 886:Drivers/STM32F4xx_HAL_Driver/Src/stm32f4xx_ll_usb.c ****         ep->xfer_len = ep->maxpacket;
 2998              		.loc 1 886 26
 2999 00e0 BB68     		ldr	r3, [r7, #8]
 3000 00e2 9A68     		ldr	r2, [r3, #8]
 3001              		.loc 1 886 22
 3002 00e4 BB68     		ldr	r3, [r7, #8]
 3003 00e6 5A61     		str	r2, [r3, #20]
 3004              	.L136:
 887:Drivers/STM32F4xx_HAL_Driver/Src/stm32f4xx_ll_usb.c ****       }
ARM GAS  /tmp/ccaXZQ0T.s 			page 69


 888:Drivers/STM32F4xx_HAL_Driver/Src/stm32f4xx_ll_usb.c ****       USBx_INEP(epnum)->DIEPTSIZ |= (USB_OTG_DIEPTSIZ_PKTCNT & (1U << 19));
 3005              		.loc 1 888 34
 3006 00e8 3B69     		ldr	r3, [r7, #16]
 3007 00ea 5A01     		lsls	r2, r3, #5
 3008 00ec 7B69     		ldr	r3, [r7, #20]
 3009 00ee 1344     		add	r3, r3, r2
 3010 00f0 03F51063 		add	r3, r3, #2304
 3011 00f4 1B69     		ldr	r3, [r3, #16]
 3012 00f6 3A69     		ldr	r2, [r7, #16]
 3013 00f8 5101     		lsls	r1, r2, #5
 3014 00fa 7A69     		ldr	r2, [r7, #20]
 3015 00fc 0A44     		add	r2, r2, r1
 3016 00fe 02F51062 		add	r2, r2, #2304
 3017 0102 43F40023 		orr	r3, r3, #524288
 3018 0106 1361     		str	r3, [r2, #16]
 889:Drivers/STM32F4xx_HAL_Driver/Src/stm32f4xx_ll_usb.c ****       USBx_INEP(epnum)->DIEPTSIZ |= (USB_OTG_DIEPTSIZ_XFRSIZ & ep->xfer_len);
 3019              		.loc 1 889 34
 3020 0108 3B69     		ldr	r3, [r7, #16]
 3021 010a 5A01     		lsls	r2, r3, #5
 3022 010c 7B69     		ldr	r3, [r7, #20]
 3023 010e 1344     		add	r3, r3, r2
 3024 0110 03F51063 		add	r3, r3, #2304
 3025 0114 1A69     		ldr	r2, [r3, #16]
 3026              		.loc 1 889 66
 3027 0116 BB68     		ldr	r3, [r7, #8]
 3028 0118 5B69     		ldr	r3, [r3, #20]
 3029              		.loc 1 889 62
 3030 011a C3F31203 		ubfx	r3, r3, #0, #19
 3031              		.loc 1 889 34
 3032 011e 3969     		ldr	r1, [r7, #16]
 3033 0120 4801     		lsls	r0, r1, #5
 3034 0122 7969     		ldr	r1, [r7, #20]
 3035 0124 0144     		add	r1, r1, r0
 3036 0126 01F51061 		add	r1, r1, #2304
 3037 012a 1343     		orrs	r3, r3, r2
 3038 012c 0B61     		str	r3, [r1, #16]
 3039              	.L135:
 890:Drivers/STM32F4xx_HAL_Driver/Src/stm32f4xx_ll_usb.c ****     }
 891:Drivers/STM32F4xx_HAL_Driver/Src/stm32f4xx_ll_usb.c **** 
 892:Drivers/STM32F4xx_HAL_Driver/Src/stm32f4xx_ll_usb.c ****     if (dma == 1U)
 3040              		.loc 1 892 8
 3041 012e FB79     		ldrb	r3, [r7, #7]	@ zero_extendqisi2
 3042 0130 012B     		cmp	r3, #1
 3043 0132 1ED1     		bne	.L137
 893:Drivers/STM32F4xx_HAL_Driver/Src/stm32f4xx_ll_usb.c ****     {
 894:Drivers/STM32F4xx_HAL_Driver/Src/stm32f4xx_ll_usb.c ****       if ((uint32_t)ep->dma_addr != 0U)
 3044              		.loc 1 894 23
 3045 0134 BB68     		ldr	r3, [r7, #8]
 3046 0136 1B69     		ldr	r3, [r3, #16]
 3047              		.loc 1 894 10
 3048 0138 002B     		cmp	r3, #0
 3049 013a 09D0     		beq	.L138
 895:Drivers/STM32F4xx_HAL_Driver/Src/stm32f4xx_ll_usb.c ****       {
 896:Drivers/STM32F4xx_HAL_Driver/Src/stm32f4xx_ll_usb.c ****         USBx_INEP(epnum)->DIEPDMA = (uint32_t)(ep->dma_addr);
 3050              		.loc 1 896 9
 3051 013c 3B69     		ldr	r3, [r7, #16]
 3052 013e 5A01     		lsls	r2, r3, #5
ARM GAS  /tmp/ccaXZQ0T.s 			page 70


 3053 0140 7B69     		ldr	r3, [r7, #20]
 3054 0142 1344     		add	r3, r3, r2
 3055 0144 03F51063 		add	r3, r3, #2304
 3056 0148 1A46     		mov	r2, r3
 3057              		.loc 1 896 50
 3058 014a BB68     		ldr	r3, [r7, #8]
 3059 014c 1B69     		ldr	r3, [r3, #16]
 3060              		.loc 1 896 35
 3061 014e 5361     		str	r3, [r2, #20]
 3062              	.L138:
 897:Drivers/STM32F4xx_HAL_Driver/Src/stm32f4xx_ll_usb.c ****       }
 898:Drivers/STM32F4xx_HAL_Driver/Src/stm32f4xx_ll_usb.c **** 
 899:Drivers/STM32F4xx_HAL_Driver/Src/stm32f4xx_ll_usb.c ****       /* EP enable, IN data in FIFO */
 900:Drivers/STM32F4xx_HAL_Driver/Src/stm32f4xx_ll_usb.c ****       USBx_INEP(epnum)->DIEPCTL |= (USB_OTG_DIEPCTL_CNAK | USB_OTG_DIEPCTL_EPENA);
 3063              		.loc 1 900 33
 3064 0150 3B69     		ldr	r3, [r7, #16]
 3065 0152 5A01     		lsls	r2, r3, #5
 3066 0154 7B69     		ldr	r3, [r7, #20]
 3067 0156 1344     		add	r3, r3, r2
 3068 0158 03F51063 		add	r3, r3, #2304
 3069 015c 1B68     		ldr	r3, [r3]
 3070 015e 3A69     		ldr	r2, [r7, #16]
 3071 0160 5101     		lsls	r1, r2, #5
 3072 0162 7A69     		ldr	r2, [r7, #20]
 3073 0164 0A44     		add	r2, r2, r1
 3074 0166 02F51062 		add	r2, r2, #2304
 3075 016a 43F00443 		orr	r3, r3, #-2080374784
 3076 016e 1360     		str	r3, [r2]
 3077 0170 92E0     		b	.L140
 3078              	.L137:
 901:Drivers/STM32F4xx_HAL_Driver/Src/stm32f4xx_ll_usb.c ****     }
 902:Drivers/STM32F4xx_HAL_Driver/Src/stm32f4xx_ll_usb.c ****     else
 903:Drivers/STM32F4xx_HAL_Driver/Src/stm32f4xx_ll_usb.c ****     {
 904:Drivers/STM32F4xx_HAL_Driver/Src/stm32f4xx_ll_usb.c ****       /* EP enable, IN data in FIFO */
 905:Drivers/STM32F4xx_HAL_Driver/Src/stm32f4xx_ll_usb.c ****       USBx_INEP(epnum)->DIEPCTL |= (USB_OTG_DIEPCTL_CNAK | USB_OTG_DIEPCTL_EPENA);
 3079              		.loc 1 905 33
 3080 0172 3B69     		ldr	r3, [r7, #16]
 3081 0174 5A01     		lsls	r2, r3, #5
 3082 0176 7B69     		ldr	r3, [r7, #20]
 3083 0178 1344     		add	r3, r3, r2
 3084 017a 03F51063 		add	r3, r3, #2304
 3085 017e 1B68     		ldr	r3, [r3]
 3086 0180 3A69     		ldr	r2, [r7, #16]
 3087 0182 5101     		lsls	r1, r2, #5
 3088 0184 7A69     		ldr	r2, [r7, #20]
 3089 0186 0A44     		add	r2, r2, r1
 3090 0188 02F51062 		add	r2, r2, #2304
 3091 018c 43F00443 		orr	r3, r3, #-2080374784
 3092 0190 1360     		str	r3, [r2]
 906:Drivers/STM32F4xx_HAL_Driver/Src/stm32f4xx_ll_usb.c **** 
 907:Drivers/STM32F4xx_HAL_Driver/Src/stm32f4xx_ll_usb.c ****       /* Enable the Tx FIFO Empty Interrupt for this EP */
 908:Drivers/STM32F4xx_HAL_Driver/Src/stm32f4xx_ll_usb.c ****       if (ep->xfer_len > 0U)
 3093              		.loc 1 908 13
 3094 0192 BB68     		ldr	r3, [r7, #8]
 3095 0194 5B69     		ldr	r3, [r3, #20]
 3096              		.loc 1 908 10
 3097 0196 002B     		cmp	r3, #0
ARM GAS  /tmp/ccaXZQ0T.s 			page 71


 3098 0198 7ED0     		beq	.L140
 909:Drivers/STM32F4xx_HAL_Driver/Src/stm32f4xx_ll_usb.c ****       {
 910:Drivers/STM32F4xx_HAL_Driver/Src/stm32f4xx_ll_usb.c ****         USBx_DEVICE->DIEPEMPMSK |= 1UL << (ep->num & EP_ADDR_MSK);
 3099              		.loc 1 910 33
 3100 019a 7B69     		ldr	r3, [r7, #20]
 3101 019c 03F50063 		add	r3, r3, #2048
 3102 01a0 5A6B     		ldr	r2, [r3, #52]
 3103              		.loc 1 910 46
 3104 01a2 BB68     		ldr	r3, [r7, #8]
 3105 01a4 1B78     		ldrb	r3, [r3]	@ zero_extendqisi2
 3106              		.loc 1 910 52
 3107 01a6 03F00F03 		and	r3, r3, #15
 3108              		.loc 1 910 40
 3109 01aa 0121     		movs	r1, #1
 3110 01ac 01FA03F3 		lsl	r3, r1, r3
 3111              		.loc 1 910 33
 3112 01b0 7969     		ldr	r1, [r7, #20]
 3113 01b2 01F50061 		add	r1, r1, #2048
 3114 01b6 1343     		orrs	r3, r3, r2
 3115 01b8 4B63     		str	r3, [r1, #52]
 3116 01ba 6DE0     		b	.L140
 3117              	.L133:
 911:Drivers/STM32F4xx_HAL_Driver/Src/stm32f4xx_ll_usb.c ****       }
 912:Drivers/STM32F4xx_HAL_Driver/Src/stm32f4xx_ll_usb.c ****     }
 913:Drivers/STM32F4xx_HAL_Driver/Src/stm32f4xx_ll_usb.c ****   }
 914:Drivers/STM32F4xx_HAL_Driver/Src/stm32f4xx_ll_usb.c ****   else /* OUT endpoint */
 915:Drivers/STM32F4xx_HAL_Driver/Src/stm32f4xx_ll_usb.c ****   {
 916:Drivers/STM32F4xx_HAL_Driver/Src/stm32f4xx_ll_usb.c ****     /* Program the transfer size and packet count as follows:
 917:Drivers/STM32F4xx_HAL_Driver/Src/stm32f4xx_ll_usb.c ****     * pktcnt = N
 918:Drivers/STM32F4xx_HAL_Driver/Src/stm32f4xx_ll_usb.c ****     * xfersize = N * maxpacket
 919:Drivers/STM32F4xx_HAL_Driver/Src/stm32f4xx_ll_usb.c ****     */
 920:Drivers/STM32F4xx_HAL_Driver/Src/stm32f4xx_ll_usb.c ****     USBx_OUTEP(epnum)->DOEPTSIZ &= ~(USB_OTG_DOEPTSIZ_XFRSIZ);
 3118              		.loc 1 920 33
 3119 01bc 3B69     		ldr	r3, [r7, #16]
 3120 01be 5A01     		lsls	r2, r3, #5
 3121 01c0 7B69     		ldr	r3, [r7, #20]
 3122 01c2 1344     		add	r3, r3, r2
 3123 01c4 03F53063 		add	r3, r3, #2816
 3124 01c8 1B69     		ldr	r3, [r3, #16]
 3125 01ca 3A69     		ldr	r2, [r7, #16]
 3126 01cc 5101     		lsls	r1, r2, #5
 3127 01ce 7A69     		ldr	r2, [r7, #20]
 3128 01d0 0A44     		add	r2, r2, r1
 3129 01d2 02F53062 		add	r2, r2, #2816
 3130 01d6 DB0C     		lsrs	r3, r3, #19
 3131 01d8 DB04     		lsls	r3, r3, #19
 3132 01da 1361     		str	r3, [r2, #16]
 921:Drivers/STM32F4xx_HAL_Driver/Src/stm32f4xx_ll_usb.c ****     USBx_OUTEP(epnum)->DOEPTSIZ &= ~(USB_OTG_DOEPTSIZ_PKTCNT);
 3133              		.loc 1 921 33
 3134 01dc 3B69     		ldr	r3, [r7, #16]
 3135 01de 5A01     		lsls	r2, r3, #5
 3136 01e0 7B69     		ldr	r3, [r7, #20]
 3137 01e2 1344     		add	r3, r3, r2
 3138 01e4 03F53063 		add	r3, r3, #2816
 3139 01e8 1B69     		ldr	r3, [r3, #16]
 3140 01ea 3A69     		ldr	r2, [r7, #16]
 3141 01ec 5101     		lsls	r1, r2, #5
ARM GAS  /tmp/ccaXZQ0T.s 			page 72


 3142 01ee 7A69     		ldr	r2, [r7, #20]
 3143 01f0 0A44     		add	r2, r2, r1
 3144 01f2 02F53062 		add	r2, r2, #2816
 3145 01f6 23F0FF53 		bic	r3, r3, #534773760
 3146 01fa 23F4C013 		bic	r3, r3, #1572864
 3147 01fe 1361     		str	r3, [r2, #16]
 922:Drivers/STM32F4xx_HAL_Driver/Src/stm32f4xx_ll_usb.c **** 
 923:Drivers/STM32F4xx_HAL_Driver/Src/stm32f4xx_ll_usb.c ****     if (ep->xfer_len > 0U)
 3148              		.loc 1 923 11
 3149 0200 BB68     		ldr	r3, [r7, #8]
 3150 0202 5B69     		ldr	r3, [r3, #20]
 3151              		.loc 1 923 8
 3152 0204 002B     		cmp	r3, #0
 3153 0206 03D0     		beq	.L141
 924:Drivers/STM32F4xx_HAL_Driver/Src/stm32f4xx_ll_usb.c ****     {
 925:Drivers/STM32F4xx_HAL_Driver/Src/stm32f4xx_ll_usb.c ****       ep->xfer_len = ep->maxpacket;
 3154              		.loc 1 925 24
 3155 0208 BB68     		ldr	r3, [r7, #8]
 3156 020a 9A68     		ldr	r2, [r3, #8]
 3157              		.loc 1 925 20
 3158 020c BB68     		ldr	r3, [r7, #8]
 3159 020e 5A61     		str	r2, [r3, #20]
 3160              	.L141:
 926:Drivers/STM32F4xx_HAL_Driver/Src/stm32f4xx_ll_usb.c ****     }
 927:Drivers/STM32F4xx_HAL_Driver/Src/stm32f4xx_ll_usb.c **** 
 928:Drivers/STM32F4xx_HAL_Driver/Src/stm32f4xx_ll_usb.c ****     USBx_OUTEP(epnum)->DOEPTSIZ |= (USB_OTG_DOEPTSIZ_PKTCNT & (1U << 19));
 3161              		.loc 1 928 33
 3162 0210 3B69     		ldr	r3, [r7, #16]
 3163 0212 5A01     		lsls	r2, r3, #5
 3164 0214 7B69     		ldr	r3, [r7, #20]
 3165 0216 1344     		add	r3, r3, r2
 3166 0218 03F53063 		add	r3, r3, #2816
 3167 021c 1B69     		ldr	r3, [r3, #16]
 3168 021e 3A69     		ldr	r2, [r7, #16]
 3169 0220 5101     		lsls	r1, r2, #5
 3170 0222 7A69     		ldr	r2, [r7, #20]
 3171 0224 0A44     		add	r2, r2, r1
 3172 0226 02F53062 		add	r2, r2, #2816
 3173 022a 43F40023 		orr	r3, r3, #524288
 3174 022e 1361     		str	r3, [r2, #16]
 929:Drivers/STM32F4xx_HAL_Driver/Src/stm32f4xx_ll_usb.c ****     USBx_OUTEP(epnum)->DOEPTSIZ |= (USB_OTG_DOEPTSIZ_XFRSIZ & (ep->maxpacket));
 3175              		.loc 1 929 33
 3176 0230 3B69     		ldr	r3, [r7, #16]
 3177 0232 5A01     		lsls	r2, r3, #5
 3178 0234 7B69     		ldr	r3, [r7, #20]
 3179 0236 1344     		add	r3, r3, r2
 3180 0238 03F53063 		add	r3, r3, #2816
 3181 023c 1A69     		ldr	r2, [r3, #16]
 3182              		.loc 1 929 66
 3183 023e BB68     		ldr	r3, [r7, #8]
 3184 0240 9B68     		ldr	r3, [r3, #8]
 3185              		.loc 1 929 61
 3186 0242 C3F31203 		ubfx	r3, r3, #0, #19
 3187              		.loc 1 929 33
 3188 0246 3969     		ldr	r1, [r7, #16]
 3189 0248 4801     		lsls	r0, r1, #5
 3190 024a 7969     		ldr	r1, [r7, #20]
ARM GAS  /tmp/ccaXZQ0T.s 			page 73


 3191 024c 0144     		add	r1, r1, r0
 3192 024e 01F53061 		add	r1, r1, #2816
 3193 0252 1343     		orrs	r3, r3, r2
 3194 0254 0B61     		str	r3, [r1, #16]
 930:Drivers/STM32F4xx_HAL_Driver/Src/stm32f4xx_ll_usb.c **** 
 931:Drivers/STM32F4xx_HAL_Driver/Src/stm32f4xx_ll_usb.c ****     if (dma == 1U)
 3195              		.loc 1 931 8
 3196 0256 FB79     		ldrb	r3, [r7, #7]	@ zero_extendqisi2
 3197 0258 012B     		cmp	r3, #1
 3198 025a 0DD1     		bne	.L142
 932:Drivers/STM32F4xx_HAL_Driver/Src/stm32f4xx_ll_usb.c ****     {
 933:Drivers/STM32F4xx_HAL_Driver/Src/stm32f4xx_ll_usb.c ****       if ((uint32_t)ep->xfer_buff != 0U)
 3199              		.loc 1 933 23
 3200 025c BB68     		ldr	r3, [r7, #8]
 3201 025e DB68     		ldr	r3, [r3, #12]
 3202              		.loc 1 933 10
 3203 0260 002B     		cmp	r3, #0
 3204 0262 09D0     		beq	.L142
 934:Drivers/STM32F4xx_HAL_Driver/Src/stm32f4xx_ll_usb.c ****       {
 935:Drivers/STM32F4xx_HAL_Driver/Src/stm32f4xx_ll_usb.c ****         USBx_OUTEP(epnum)->DOEPDMA = (uint32_t)(ep->xfer_buff);
 3205              		.loc 1 935 51
 3206 0264 BB68     		ldr	r3, [r7, #8]
 3207 0266 D968     		ldr	r1, [r3, #12]
 3208              		.loc 1 935 9
 3209 0268 3B69     		ldr	r3, [r7, #16]
 3210 026a 5A01     		lsls	r2, r3, #5
 3211 026c 7B69     		ldr	r3, [r7, #20]
 3212 026e 1344     		add	r3, r3, r2
 3213 0270 03F53063 		add	r3, r3, #2816
 3214              		.loc 1 935 38
 3215 0274 0A46     		mov	r2, r1
 3216              		.loc 1 935 36
 3217 0276 5A61     		str	r2, [r3, #20]
 3218              	.L142:
 936:Drivers/STM32F4xx_HAL_Driver/Src/stm32f4xx_ll_usb.c ****       }
 937:Drivers/STM32F4xx_HAL_Driver/Src/stm32f4xx_ll_usb.c ****     }
 938:Drivers/STM32F4xx_HAL_Driver/Src/stm32f4xx_ll_usb.c **** 
 939:Drivers/STM32F4xx_HAL_Driver/Src/stm32f4xx_ll_usb.c ****     /* EP enable */
 940:Drivers/STM32F4xx_HAL_Driver/Src/stm32f4xx_ll_usb.c ****     USBx_OUTEP(epnum)->DOEPCTL |= (USB_OTG_DOEPCTL_CNAK | USB_OTG_DOEPCTL_EPENA);
 3219              		.loc 1 940 32
 3220 0278 3B69     		ldr	r3, [r7, #16]
 3221 027a 5A01     		lsls	r2, r3, #5
 3222 027c 7B69     		ldr	r3, [r7, #20]
 3223 027e 1344     		add	r3, r3, r2
 3224 0280 03F53063 		add	r3, r3, #2816
 3225 0284 1B68     		ldr	r3, [r3]
 3226 0286 3A69     		ldr	r2, [r7, #16]
 3227 0288 5101     		lsls	r1, r2, #5
 3228 028a 7A69     		ldr	r2, [r7, #20]
 3229 028c 0A44     		add	r2, r2, r1
 3230 028e 02F53062 		add	r2, r2, #2816
 3231 0292 43F00443 		orr	r3, r3, #-2080374784
 3232 0296 1360     		str	r3, [r2]
 3233              	.L140:
 941:Drivers/STM32F4xx_HAL_Driver/Src/stm32f4xx_ll_usb.c ****   }
 942:Drivers/STM32F4xx_HAL_Driver/Src/stm32f4xx_ll_usb.c **** 
 943:Drivers/STM32F4xx_HAL_Driver/Src/stm32f4xx_ll_usb.c ****   return HAL_OK;
ARM GAS  /tmp/ccaXZQ0T.s 			page 74


 3234              		.loc 1 943 10
 3235 0298 0023     		movs	r3, #0
 944:Drivers/STM32F4xx_HAL_Driver/Src/stm32f4xx_ll_usb.c **** }
 3236              		.loc 1 944 1
 3237 029a 1846     		mov	r0, r3
 3238 029c 1C37     		adds	r7, r7, #28
 3239              	.LCFI95:
 3240              		.cfi_def_cfa_offset 4
 3241 029e BD46     		mov	sp, r7
 3242              	.LCFI96:
 3243              		.cfi_def_cfa_register 13
 3244              		@ sp needed
 3245 02a0 5DF8047B 		ldr	r7, [sp], #4
 3246              	.LCFI97:
 3247              		.cfi_restore 7
 3248              		.cfi_def_cfa_offset 0
 3249 02a4 7047     		bx	lr
 3250              		.cfi_endproc
 3251              	.LFE145:
 3253              		.section	.text.USB_WritePacket,"ax",%progbits
 3254              		.align	1
 3255              		.global	USB_WritePacket
 3256              		.syntax unified
 3257              		.thumb
 3258              		.thumb_func
 3259              		.fpu fpv4-sp-d16
 3261              	USB_WritePacket:
 3262              	.LFB146:
 945:Drivers/STM32F4xx_HAL_Driver/Src/stm32f4xx_ll_usb.c **** 
 946:Drivers/STM32F4xx_HAL_Driver/Src/stm32f4xx_ll_usb.c **** /**
 947:Drivers/STM32F4xx_HAL_Driver/Src/stm32f4xx_ll_usb.c ****   * @brief  USB_WritePacket : Writes a packet into the Tx FIFO associated
 948:Drivers/STM32F4xx_HAL_Driver/Src/stm32f4xx_ll_usb.c ****   *         with the EP/channel
 949:Drivers/STM32F4xx_HAL_Driver/Src/stm32f4xx_ll_usb.c ****   * @param  USBx  Selected device
 950:Drivers/STM32F4xx_HAL_Driver/Src/stm32f4xx_ll_usb.c ****   * @param  src   pointer to source buffer
 951:Drivers/STM32F4xx_HAL_Driver/Src/stm32f4xx_ll_usb.c ****   * @param  ch_ep_num  endpoint or host channel number
 952:Drivers/STM32F4xx_HAL_Driver/Src/stm32f4xx_ll_usb.c ****   * @param  len  Number of bytes to write
 953:Drivers/STM32F4xx_HAL_Driver/Src/stm32f4xx_ll_usb.c ****   * @param  dma USB dma enabled or disabled
 954:Drivers/STM32F4xx_HAL_Driver/Src/stm32f4xx_ll_usb.c ****   *          This parameter can be one of these values:
 955:Drivers/STM32F4xx_HAL_Driver/Src/stm32f4xx_ll_usb.c ****   *           0 : DMA feature not used
 956:Drivers/STM32F4xx_HAL_Driver/Src/stm32f4xx_ll_usb.c ****   *           1 : DMA feature used
 957:Drivers/STM32F4xx_HAL_Driver/Src/stm32f4xx_ll_usb.c ****   * @retval HAL status
 958:Drivers/STM32F4xx_HAL_Driver/Src/stm32f4xx_ll_usb.c ****   */
 959:Drivers/STM32F4xx_HAL_Driver/Src/stm32f4xx_ll_usb.c **** HAL_StatusTypeDef USB_WritePacket(USB_OTG_GlobalTypeDef *USBx, uint8_t *src, uint8_t ch_ep_num, uin
 960:Drivers/STM32F4xx_HAL_Driver/Src/stm32f4xx_ll_usb.c **** {
 3263              		.loc 1 960 1
 3264              		.cfi_startproc
 3265              		@ args = 4, pretend = 0, frame = 32
 3266              		@ frame_needed = 1, uses_anonymous_args = 0
 3267              		@ link register save eliminated.
 3268 0000 80B4     		push	{r7}
 3269              	.LCFI98:
 3270              		.cfi_def_cfa_offset 4
 3271              		.cfi_offset 7, -4
 3272 0002 89B0     		sub	sp, sp, #36
 3273              	.LCFI99:
 3274              		.cfi_def_cfa_offset 40
 3275 0004 00AF     		add	r7, sp, #0
ARM GAS  /tmp/ccaXZQ0T.s 			page 75


 3276              	.LCFI100:
 3277              		.cfi_def_cfa_register 7
 3278 0006 F860     		str	r0, [r7, #12]
 3279 0008 B960     		str	r1, [r7, #8]
 3280 000a 1146     		mov	r1, r2
 3281 000c 1A46     		mov	r2, r3
 3282 000e 0B46     		mov	r3, r1
 3283 0010 FB71     		strb	r3, [r7, #7]
 3284 0012 1346     		mov	r3, r2	@ movhi
 3285 0014 BB80     		strh	r3, [r7, #4]	@ movhi
 961:Drivers/STM32F4xx_HAL_Driver/Src/stm32f4xx_ll_usb.c ****   uint32_t USBx_BASE = (uint32_t)USBx;
 3286              		.loc 1 961 12
 3287 0016 FB68     		ldr	r3, [r7, #12]
 3288 0018 7B61     		str	r3, [r7, #20]
 962:Drivers/STM32F4xx_HAL_Driver/Src/stm32f4xx_ll_usb.c ****   uint32_t *pSrc = (uint32_t *)src;
 3289              		.loc 1 962 13
 3290 001a BB68     		ldr	r3, [r7, #8]
 3291 001c FB61     		str	r3, [r7, #28]
 963:Drivers/STM32F4xx_HAL_Driver/Src/stm32f4xx_ll_usb.c ****   uint32_t count32b, i;
 964:Drivers/STM32F4xx_HAL_Driver/Src/stm32f4xx_ll_usb.c **** 
 965:Drivers/STM32F4xx_HAL_Driver/Src/stm32f4xx_ll_usb.c ****   if (dma == 0U)
 3292              		.loc 1 965 6
 3293 001e 97F82830 		ldrb	r3, [r7, #40]	@ zero_extendqisi2
 3294 0022 002B     		cmp	r3, #0
 3295 0024 1AD1     		bne	.L145
 966:Drivers/STM32F4xx_HAL_Driver/Src/stm32f4xx_ll_usb.c ****   {
 967:Drivers/STM32F4xx_HAL_Driver/Src/stm32f4xx_ll_usb.c ****     count32b = ((uint32_t)len + 3U) / 4U;
 3296              		.loc 1 967 17
 3297 0026 BB88     		ldrh	r3, [r7, #4]
 3298              		.loc 1 967 31
 3299 0028 0333     		adds	r3, r3, #3
 3300              		.loc 1 967 14
 3301 002a 9B08     		lsrs	r3, r3, #2
 3302 002c 3B61     		str	r3, [r7, #16]
 968:Drivers/STM32F4xx_HAL_Driver/Src/stm32f4xx_ll_usb.c ****     for (i = 0U; i < count32b; i++)
 3303              		.loc 1 968 12
 3304 002e 0023     		movs	r3, #0
 3305 0030 BB61     		str	r3, [r7, #24]
 3306              		.loc 1 968 5
 3307 0032 0FE0     		b	.L146
 3308              	.L147:
 969:Drivers/STM32F4xx_HAL_Driver/Src/stm32f4xx_ll_usb.c ****     {
 970:Drivers/STM32F4xx_HAL_Driver/Src/stm32f4xx_ll_usb.c ****       USBx_DFIFO((uint32_t)ch_ep_num) = __UNALIGNED_UINT32_READ(pSrc);
 3309              		.loc 1 970 7 discriminator 3
 3310 0034 FB79     		ldrb	r3, [r7, #7]	@ zero_extendqisi2
 3311 0036 1A03     		lsls	r2, r3, #12
 3312 0038 7B69     		ldr	r3, [r7, #20]
 3313 003a 1344     		add	r3, r3, r2
 3314 003c 03F58053 		add	r3, r3, #4096
 3315 0040 1A46     		mov	r2, r3
 3316              		.loc 1 970 41 discriminator 3
 3317 0042 FB69     		ldr	r3, [r7, #28]
 3318 0044 1B68     		ldr	r3, [r3]	@ unaligned
 3319              		.loc 1 970 39 discriminator 3
 3320 0046 1360     		str	r3, [r2]
 971:Drivers/STM32F4xx_HAL_Driver/Src/stm32f4xx_ll_usb.c ****       pSrc++;
 3321              		.loc 1 971 11 discriminator 3
ARM GAS  /tmp/ccaXZQ0T.s 			page 76


 3322 0048 FB69     		ldr	r3, [r7, #28]
 3323 004a 0433     		adds	r3, r3, #4
 3324 004c FB61     		str	r3, [r7, #28]
 968:Drivers/STM32F4xx_HAL_Driver/Src/stm32f4xx_ll_usb.c ****     for (i = 0U; i < count32b; i++)
 3325              		.loc 1 968 33 discriminator 3
 3326 004e BB69     		ldr	r3, [r7, #24]
 3327 0050 0133     		adds	r3, r3, #1
 3328 0052 BB61     		str	r3, [r7, #24]
 3329              	.L146:
 968:Drivers/STM32F4xx_HAL_Driver/Src/stm32f4xx_ll_usb.c ****     for (i = 0U; i < count32b; i++)
 3330              		.loc 1 968 5 discriminator 1
 3331 0054 BA69     		ldr	r2, [r7, #24]
 3332 0056 3B69     		ldr	r3, [r7, #16]
 3333 0058 9A42     		cmp	r2, r3
 3334 005a EBD3     		bcc	.L147
 3335              	.L145:
 972:Drivers/STM32F4xx_HAL_Driver/Src/stm32f4xx_ll_usb.c ****     }
 973:Drivers/STM32F4xx_HAL_Driver/Src/stm32f4xx_ll_usb.c ****   }
 974:Drivers/STM32F4xx_HAL_Driver/Src/stm32f4xx_ll_usb.c **** 
 975:Drivers/STM32F4xx_HAL_Driver/Src/stm32f4xx_ll_usb.c ****   return HAL_OK;
 3336              		.loc 1 975 10
 3337 005c 0023     		movs	r3, #0
 976:Drivers/STM32F4xx_HAL_Driver/Src/stm32f4xx_ll_usb.c **** }
 3338              		.loc 1 976 1
 3339 005e 1846     		mov	r0, r3
 3340 0060 2437     		adds	r7, r7, #36
 3341              	.LCFI101:
 3342              		.cfi_def_cfa_offset 4
 3343 0062 BD46     		mov	sp, r7
 3344              	.LCFI102:
 3345              		.cfi_def_cfa_register 13
 3346              		@ sp needed
 3347 0064 5DF8047B 		ldr	r7, [sp], #4
 3348              	.LCFI103:
 3349              		.cfi_restore 7
 3350              		.cfi_def_cfa_offset 0
 3351 0068 7047     		bx	lr
 3352              		.cfi_endproc
 3353              	.LFE146:
 3355              		.section	.text.USB_ReadPacket,"ax",%progbits
 3356              		.align	1
 3357              		.global	USB_ReadPacket
 3358              		.syntax unified
 3359              		.thumb
 3360              		.thumb_func
 3361              		.fpu fpv4-sp-d16
 3363              	USB_ReadPacket:
 3364              	.LFB147:
 977:Drivers/STM32F4xx_HAL_Driver/Src/stm32f4xx_ll_usb.c **** 
 978:Drivers/STM32F4xx_HAL_Driver/Src/stm32f4xx_ll_usb.c **** /**
 979:Drivers/STM32F4xx_HAL_Driver/Src/stm32f4xx_ll_usb.c ****   * @brief  USB_ReadPacket : read a packet from the RX FIFO
 980:Drivers/STM32F4xx_HAL_Driver/Src/stm32f4xx_ll_usb.c ****   * @param  USBx  Selected device
 981:Drivers/STM32F4xx_HAL_Driver/Src/stm32f4xx_ll_usb.c ****   * @param  dest  source pointer
 982:Drivers/STM32F4xx_HAL_Driver/Src/stm32f4xx_ll_usb.c ****   * @param  len  Number of bytes to read
 983:Drivers/STM32F4xx_HAL_Driver/Src/stm32f4xx_ll_usb.c ****   * @retval pointer to destination buffer
 984:Drivers/STM32F4xx_HAL_Driver/Src/stm32f4xx_ll_usb.c ****   */
 985:Drivers/STM32F4xx_HAL_Driver/Src/stm32f4xx_ll_usb.c **** void *USB_ReadPacket(USB_OTG_GlobalTypeDef *USBx, uint8_t *dest, uint16_t len)
ARM GAS  /tmp/ccaXZQ0T.s 			page 77


 986:Drivers/STM32F4xx_HAL_Driver/Src/stm32f4xx_ll_usb.c **** {
 3365              		.loc 1 986 1
 3366              		.cfi_startproc
 3367              		@ args = 0, pretend = 0, frame = 32
 3368              		@ frame_needed = 1, uses_anonymous_args = 0
 3369              		@ link register save eliminated.
 3370 0000 80B4     		push	{r7}
 3371              	.LCFI104:
 3372              		.cfi_def_cfa_offset 4
 3373              		.cfi_offset 7, -4
 3374 0002 89B0     		sub	sp, sp, #36
 3375              	.LCFI105:
 3376              		.cfi_def_cfa_offset 40
 3377 0004 00AF     		add	r7, sp, #0
 3378              	.LCFI106:
 3379              		.cfi_def_cfa_register 7
 3380 0006 F860     		str	r0, [r7, #12]
 3381 0008 B960     		str	r1, [r7, #8]
 3382 000a 1346     		mov	r3, r2
 3383 000c FB80     		strh	r3, [r7, #6]	@ movhi
 987:Drivers/STM32F4xx_HAL_Driver/Src/stm32f4xx_ll_usb.c ****   uint32_t USBx_BASE = (uint32_t)USBx;
 3384              		.loc 1 987 12
 3385 000e FB68     		ldr	r3, [r7, #12]
 3386 0010 7B61     		str	r3, [r7, #20]
 988:Drivers/STM32F4xx_HAL_Driver/Src/stm32f4xx_ll_usb.c ****   uint32_t *pDest = (uint32_t *)dest;
 3387              		.loc 1 988 13
 3388 0012 BB68     		ldr	r3, [r7, #8]
 3389 0014 FB61     		str	r3, [r7, #28]
 989:Drivers/STM32F4xx_HAL_Driver/Src/stm32f4xx_ll_usb.c ****   uint32_t i;
 990:Drivers/STM32F4xx_HAL_Driver/Src/stm32f4xx_ll_usb.c ****   uint32_t count32b = ((uint32_t)len + 3U) / 4U;
 3390              		.loc 1 990 24
 3391 0016 FB88     		ldrh	r3, [r7, #6]
 3392              		.loc 1 990 38
 3393 0018 0333     		adds	r3, r3, #3
 3394              		.loc 1 990 12
 3395 001a 9B08     		lsrs	r3, r3, #2
 3396 001c 3B61     		str	r3, [r7, #16]
 991:Drivers/STM32F4xx_HAL_Driver/Src/stm32f4xx_ll_usb.c **** 
 992:Drivers/STM32F4xx_HAL_Driver/Src/stm32f4xx_ll_usb.c ****   for (i = 0U; i < count32b; i++)
 3397              		.loc 1 992 10
 3398 001e 0023     		movs	r3, #0
 3399 0020 BB61     		str	r3, [r7, #24]
 3400              		.loc 1 992 3
 3401 0022 0BE0     		b	.L150
 3402              	.L151:
 993:Drivers/STM32F4xx_HAL_Driver/Src/stm32f4xx_ll_usb.c ****   {
 994:Drivers/STM32F4xx_HAL_Driver/Src/stm32f4xx_ll_usb.c ****     __UNALIGNED_UINT32_WRITE(pDest, USBx_DFIFO(0U));
 3403              		.loc 1 994 5 discriminator 3
 3404 0024 7B69     		ldr	r3, [r7, #20]
 3405 0026 03F58053 		add	r3, r3, #4096
 3406 002a 1A68     		ldr	r2, [r3]
 3407 002c FB69     		ldr	r3, [r7, #28]
 3408 002e 1A60     		str	r2, [r3]	@ unaligned
 995:Drivers/STM32F4xx_HAL_Driver/Src/stm32f4xx_ll_usb.c ****     pDest++;
 3409              		.loc 1 995 10 discriminator 3
 3410 0030 FB69     		ldr	r3, [r7, #28]
 3411 0032 0433     		adds	r3, r3, #4
ARM GAS  /tmp/ccaXZQ0T.s 			page 78


 3412 0034 FB61     		str	r3, [r7, #28]
 992:Drivers/STM32F4xx_HAL_Driver/Src/stm32f4xx_ll_usb.c ****   {
 3413              		.loc 1 992 31 discriminator 3
 3414 0036 BB69     		ldr	r3, [r7, #24]
 3415 0038 0133     		adds	r3, r3, #1
 3416 003a BB61     		str	r3, [r7, #24]
 3417              	.L150:
 992:Drivers/STM32F4xx_HAL_Driver/Src/stm32f4xx_ll_usb.c ****   {
 3418              		.loc 1 992 3 discriminator 1
 3419 003c BA69     		ldr	r2, [r7, #24]
 3420 003e 3B69     		ldr	r3, [r7, #16]
 3421 0040 9A42     		cmp	r2, r3
 3422 0042 EFD3     		bcc	.L151
 996:Drivers/STM32F4xx_HAL_Driver/Src/stm32f4xx_ll_usb.c ****   }
 997:Drivers/STM32F4xx_HAL_Driver/Src/stm32f4xx_ll_usb.c **** 
 998:Drivers/STM32F4xx_HAL_Driver/Src/stm32f4xx_ll_usb.c ****   return ((void *)pDest);
 3423              		.loc 1 998 11
 3424 0044 FB69     		ldr	r3, [r7, #28]
 999:Drivers/STM32F4xx_HAL_Driver/Src/stm32f4xx_ll_usb.c **** }
 3425              		.loc 1 999 1
 3426 0046 1846     		mov	r0, r3
 3427 0048 2437     		adds	r7, r7, #36
 3428              	.LCFI107:
 3429              		.cfi_def_cfa_offset 4
 3430 004a BD46     		mov	sp, r7
 3431              	.LCFI108:
 3432              		.cfi_def_cfa_register 13
 3433              		@ sp needed
 3434 004c 5DF8047B 		ldr	r7, [sp], #4
 3435              	.LCFI109:
 3436              		.cfi_restore 7
 3437              		.cfi_def_cfa_offset 0
 3438 0050 7047     		bx	lr
 3439              		.cfi_endproc
 3440              	.LFE147:
 3442              		.section	.text.USB_EPSetStall,"ax",%progbits
 3443              		.align	1
 3444              		.global	USB_EPSetStall
 3445              		.syntax unified
 3446              		.thumb
 3447              		.thumb_func
 3448              		.fpu fpv4-sp-d16
 3450              	USB_EPSetStall:
 3451              	.LFB148:
1000:Drivers/STM32F4xx_HAL_Driver/Src/stm32f4xx_ll_usb.c **** 
1001:Drivers/STM32F4xx_HAL_Driver/Src/stm32f4xx_ll_usb.c **** /**
1002:Drivers/STM32F4xx_HAL_Driver/Src/stm32f4xx_ll_usb.c ****   * @brief  USB_EPSetStall : set a stall condition over an EP
1003:Drivers/STM32F4xx_HAL_Driver/Src/stm32f4xx_ll_usb.c ****   * @param  USBx  Selected device
1004:Drivers/STM32F4xx_HAL_Driver/Src/stm32f4xx_ll_usb.c ****   * @param  ep pointer to endpoint structure
1005:Drivers/STM32F4xx_HAL_Driver/Src/stm32f4xx_ll_usb.c ****   * @retval HAL status
1006:Drivers/STM32F4xx_HAL_Driver/Src/stm32f4xx_ll_usb.c ****   */
1007:Drivers/STM32F4xx_HAL_Driver/Src/stm32f4xx_ll_usb.c **** HAL_StatusTypeDef USB_EPSetStall(USB_OTG_GlobalTypeDef *USBx, USB_OTG_EPTypeDef *ep)
1008:Drivers/STM32F4xx_HAL_Driver/Src/stm32f4xx_ll_usb.c **** {
 3452              		.loc 1 1008 1
 3453              		.cfi_startproc
 3454              		@ args = 0, pretend = 0, frame = 16
 3455              		@ frame_needed = 1, uses_anonymous_args = 0
ARM GAS  /tmp/ccaXZQ0T.s 			page 79


 3456              		@ link register save eliminated.
 3457 0000 80B4     		push	{r7}
 3458              	.LCFI110:
 3459              		.cfi_def_cfa_offset 4
 3460              		.cfi_offset 7, -4
 3461 0002 85B0     		sub	sp, sp, #20
 3462              	.LCFI111:
 3463              		.cfi_def_cfa_offset 24
 3464 0004 00AF     		add	r7, sp, #0
 3465              	.LCFI112:
 3466              		.cfi_def_cfa_register 7
 3467 0006 7860     		str	r0, [r7, #4]
 3468 0008 3960     		str	r1, [r7]
1009:Drivers/STM32F4xx_HAL_Driver/Src/stm32f4xx_ll_usb.c ****   uint32_t USBx_BASE = (uint32_t)USBx;
 3469              		.loc 1 1009 12
 3470 000a 7B68     		ldr	r3, [r7, #4]
 3471 000c FB60     		str	r3, [r7, #12]
1010:Drivers/STM32F4xx_HAL_Driver/Src/stm32f4xx_ll_usb.c ****   uint32_t epnum = (uint32_t)ep->num;
 3472              		.loc 1 1010 32
 3473 000e 3B68     		ldr	r3, [r7]
 3474 0010 1B78     		ldrb	r3, [r3]	@ zero_extendqisi2
 3475              		.loc 1 1010 12
 3476 0012 BB60     		str	r3, [r7, #8]
1011:Drivers/STM32F4xx_HAL_Driver/Src/stm32f4xx_ll_usb.c **** 
1012:Drivers/STM32F4xx_HAL_Driver/Src/stm32f4xx_ll_usb.c ****   if (ep->is_in == 1U)
 3477              		.loc 1 1012 9
 3478 0014 3B68     		ldr	r3, [r7]
 3479 0016 5B78     		ldrb	r3, [r3, #1]	@ zero_extendqisi2
 3480              		.loc 1 1012 6
 3481 0018 012B     		cmp	r3, #1
 3482 001a 2CD1     		bne	.L154
1013:Drivers/STM32F4xx_HAL_Driver/Src/stm32f4xx_ll_usb.c ****   {
1014:Drivers/STM32F4xx_HAL_Driver/Src/stm32f4xx_ll_usb.c ****     if (((USBx_INEP(epnum)->DIEPCTL & USB_OTG_DIEPCTL_EPENA) == 0U) && (epnum != 0U))
 3483              		.loc 1 1014 11
 3484 001c BB68     		ldr	r3, [r7, #8]
 3485 001e 5A01     		lsls	r2, r3, #5
 3486 0020 FB68     		ldr	r3, [r7, #12]
 3487 0022 1344     		add	r3, r3, r2
 3488 0024 03F51063 		add	r3, r3, #2304
 3489              		.loc 1 1014 27
 3490 0028 1B68     		ldr	r3, [r3]
 3491              		.loc 1 1014 8
 3492 002a 002B     		cmp	r3, #0
 3493 002c 12DB     		blt	.L155
 3494              		.loc 1 1014 69 discriminator 1
 3495 002e BB68     		ldr	r3, [r7, #8]
 3496 0030 002B     		cmp	r3, #0
 3497 0032 0FD0     		beq	.L155
1015:Drivers/STM32F4xx_HAL_Driver/Src/stm32f4xx_ll_usb.c ****     {
1016:Drivers/STM32F4xx_HAL_Driver/Src/stm32f4xx_ll_usb.c ****       USBx_INEP(epnum)->DIEPCTL &= ~(USB_OTG_DIEPCTL_EPDIS);
 3498              		.loc 1 1016 33
 3499 0034 BB68     		ldr	r3, [r7, #8]
 3500 0036 5A01     		lsls	r2, r3, #5
 3501 0038 FB68     		ldr	r3, [r7, #12]
 3502 003a 1344     		add	r3, r3, r2
 3503 003c 03F51063 		add	r3, r3, #2304
 3504 0040 1B68     		ldr	r3, [r3]
ARM GAS  /tmp/ccaXZQ0T.s 			page 80


 3505 0042 BA68     		ldr	r2, [r7, #8]
 3506 0044 5101     		lsls	r1, r2, #5
 3507 0046 FA68     		ldr	r2, [r7, #12]
 3508 0048 0A44     		add	r2, r2, r1
 3509 004a 02F51062 		add	r2, r2, #2304
 3510 004e 23F08043 		bic	r3, r3, #1073741824
 3511 0052 1360     		str	r3, [r2]
 3512              	.L155:
1017:Drivers/STM32F4xx_HAL_Driver/Src/stm32f4xx_ll_usb.c ****     }
1018:Drivers/STM32F4xx_HAL_Driver/Src/stm32f4xx_ll_usb.c ****     USBx_INEP(epnum)->DIEPCTL |= USB_OTG_DIEPCTL_STALL;
 3513              		.loc 1 1018 31
 3514 0054 BB68     		ldr	r3, [r7, #8]
 3515 0056 5A01     		lsls	r2, r3, #5
 3516 0058 FB68     		ldr	r3, [r7, #12]
 3517 005a 1344     		add	r3, r3, r2
 3518 005c 03F51063 		add	r3, r3, #2304
 3519 0060 1B68     		ldr	r3, [r3]
 3520 0062 BA68     		ldr	r2, [r7, #8]
 3521 0064 5101     		lsls	r1, r2, #5
 3522 0066 FA68     		ldr	r2, [r7, #12]
 3523 0068 0A44     		add	r2, r2, r1
 3524 006a 02F51062 		add	r2, r2, #2304
 3525 006e 43F40013 		orr	r3, r3, #2097152
 3526 0072 1360     		str	r3, [r2]
 3527 0074 2BE0     		b	.L156
 3528              	.L154:
1019:Drivers/STM32F4xx_HAL_Driver/Src/stm32f4xx_ll_usb.c ****   }
1020:Drivers/STM32F4xx_HAL_Driver/Src/stm32f4xx_ll_usb.c ****   else
1021:Drivers/STM32F4xx_HAL_Driver/Src/stm32f4xx_ll_usb.c ****   {
1022:Drivers/STM32F4xx_HAL_Driver/Src/stm32f4xx_ll_usb.c ****     if (((USBx_OUTEP(epnum)->DOEPCTL & USB_OTG_DOEPCTL_EPENA) == 0U) && (epnum != 0U))
 3529              		.loc 1 1022 11
 3530 0076 BB68     		ldr	r3, [r7, #8]
 3531 0078 5A01     		lsls	r2, r3, #5
 3532 007a FB68     		ldr	r3, [r7, #12]
 3533 007c 1344     		add	r3, r3, r2
 3534 007e 03F53063 		add	r3, r3, #2816
 3535              		.loc 1 1022 28
 3536 0082 1B68     		ldr	r3, [r3]
 3537              		.loc 1 1022 8
 3538 0084 002B     		cmp	r3, #0
 3539 0086 12DB     		blt	.L157
 3540              		.loc 1 1022 70 discriminator 1
 3541 0088 BB68     		ldr	r3, [r7, #8]
 3542 008a 002B     		cmp	r3, #0
 3543 008c 0FD0     		beq	.L157
1023:Drivers/STM32F4xx_HAL_Driver/Src/stm32f4xx_ll_usb.c ****     {
1024:Drivers/STM32F4xx_HAL_Driver/Src/stm32f4xx_ll_usb.c ****       USBx_OUTEP(epnum)->DOEPCTL &= ~(USB_OTG_DOEPCTL_EPDIS);
 3544              		.loc 1 1024 34
 3545 008e BB68     		ldr	r3, [r7, #8]
 3546 0090 5A01     		lsls	r2, r3, #5
 3547 0092 FB68     		ldr	r3, [r7, #12]
 3548 0094 1344     		add	r3, r3, r2
 3549 0096 03F53063 		add	r3, r3, #2816
 3550 009a 1B68     		ldr	r3, [r3]
 3551 009c BA68     		ldr	r2, [r7, #8]
 3552 009e 5101     		lsls	r1, r2, #5
 3553 00a0 FA68     		ldr	r2, [r7, #12]
ARM GAS  /tmp/ccaXZQ0T.s 			page 81


 3554 00a2 0A44     		add	r2, r2, r1
 3555 00a4 02F53062 		add	r2, r2, #2816
 3556 00a8 23F08043 		bic	r3, r3, #1073741824
 3557 00ac 1360     		str	r3, [r2]
 3558              	.L157:
1025:Drivers/STM32F4xx_HAL_Driver/Src/stm32f4xx_ll_usb.c ****     }
1026:Drivers/STM32F4xx_HAL_Driver/Src/stm32f4xx_ll_usb.c ****     USBx_OUTEP(epnum)->DOEPCTL |= USB_OTG_DOEPCTL_STALL;
 3559              		.loc 1 1026 32
 3560 00ae BB68     		ldr	r3, [r7, #8]
 3561 00b0 5A01     		lsls	r2, r3, #5
 3562 00b2 FB68     		ldr	r3, [r7, #12]
 3563 00b4 1344     		add	r3, r3, r2
 3564 00b6 03F53063 		add	r3, r3, #2816
 3565 00ba 1B68     		ldr	r3, [r3]
 3566 00bc BA68     		ldr	r2, [r7, #8]
 3567 00be 5101     		lsls	r1, r2, #5
 3568 00c0 FA68     		ldr	r2, [r7, #12]
 3569 00c2 0A44     		add	r2, r2, r1
 3570 00c4 02F53062 		add	r2, r2, #2816
 3571 00c8 43F40013 		orr	r3, r3, #2097152
 3572 00cc 1360     		str	r3, [r2]
 3573              	.L156:
1027:Drivers/STM32F4xx_HAL_Driver/Src/stm32f4xx_ll_usb.c ****   }
1028:Drivers/STM32F4xx_HAL_Driver/Src/stm32f4xx_ll_usb.c **** 
1029:Drivers/STM32F4xx_HAL_Driver/Src/stm32f4xx_ll_usb.c ****   return HAL_OK;
 3574              		.loc 1 1029 10
 3575 00ce 0023     		movs	r3, #0
1030:Drivers/STM32F4xx_HAL_Driver/Src/stm32f4xx_ll_usb.c **** }
 3576              		.loc 1 1030 1
 3577 00d0 1846     		mov	r0, r3
 3578 00d2 1437     		adds	r7, r7, #20
 3579              	.LCFI113:
 3580              		.cfi_def_cfa_offset 4
 3581 00d4 BD46     		mov	sp, r7
 3582              	.LCFI114:
 3583              		.cfi_def_cfa_register 13
 3584              		@ sp needed
 3585 00d6 5DF8047B 		ldr	r7, [sp], #4
 3586              	.LCFI115:
 3587              		.cfi_restore 7
 3588              		.cfi_def_cfa_offset 0
 3589 00da 7047     		bx	lr
 3590              		.cfi_endproc
 3591              	.LFE148:
 3593              		.section	.text.USB_EPClearStall,"ax",%progbits
 3594              		.align	1
 3595              		.global	USB_EPClearStall
 3596              		.syntax unified
 3597              		.thumb
 3598              		.thumb_func
 3599              		.fpu fpv4-sp-d16
 3601              	USB_EPClearStall:
 3602              	.LFB149:
1031:Drivers/STM32F4xx_HAL_Driver/Src/stm32f4xx_ll_usb.c **** 
1032:Drivers/STM32F4xx_HAL_Driver/Src/stm32f4xx_ll_usb.c **** /**
1033:Drivers/STM32F4xx_HAL_Driver/Src/stm32f4xx_ll_usb.c ****   * @brief  USB_EPClearStall : Clear a stall condition over an EP
1034:Drivers/STM32F4xx_HAL_Driver/Src/stm32f4xx_ll_usb.c ****   * @param  USBx  Selected device
ARM GAS  /tmp/ccaXZQ0T.s 			page 82


1035:Drivers/STM32F4xx_HAL_Driver/Src/stm32f4xx_ll_usb.c ****   * @param  ep pointer to endpoint structure
1036:Drivers/STM32F4xx_HAL_Driver/Src/stm32f4xx_ll_usb.c ****   * @retval HAL status
1037:Drivers/STM32F4xx_HAL_Driver/Src/stm32f4xx_ll_usb.c ****   */
1038:Drivers/STM32F4xx_HAL_Driver/Src/stm32f4xx_ll_usb.c **** HAL_StatusTypeDef USB_EPClearStall(USB_OTG_GlobalTypeDef *USBx, USB_OTG_EPTypeDef *ep)
1039:Drivers/STM32F4xx_HAL_Driver/Src/stm32f4xx_ll_usb.c **** {
 3603              		.loc 1 1039 1
 3604              		.cfi_startproc
 3605              		@ args = 0, pretend = 0, frame = 16
 3606              		@ frame_needed = 1, uses_anonymous_args = 0
 3607              		@ link register save eliminated.
 3608 0000 80B4     		push	{r7}
 3609              	.LCFI116:
 3610              		.cfi_def_cfa_offset 4
 3611              		.cfi_offset 7, -4
 3612 0002 85B0     		sub	sp, sp, #20
 3613              	.LCFI117:
 3614              		.cfi_def_cfa_offset 24
 3615 0004 00AF     		add	r7, sp, #0
 3616              	.LCFI118:
 3617              		.cfi_def_cfa_register 7
 3618 0006 7860     		str	r0, [r7, #4]
 3619 0008 3960     		str	r1, [r7]
1040:Drivers/STM32F4xx_HAL_Driver/Src/stm32f4xx_ll_usb.c ****   uint32_t USBx_BASE = (uint32_t)USBx;
 3620              		.loc 1 1040 12
 3621 000a 7B68     		ldr	r3, [r7, #4]
 3622 000c FB60     		str	r3, [r7, #12]
1041:Drivers/STM32F4xx_HAL_Driver/Src/stm32f4xx_ll_usb.c ****   uint32_t epnum = (uint32_t)ep->num;
 3623              		.loc 1 1041 32
 3624 000e 3B68     		ldr	r3, [r7]
 3625 0010 1B78     		ldrb	r3, [r3]	@ zero_extendqisi2
 3626              		.loc 1 1041 12
 3627 0012 BB60     		str	r3, [r7, #8]
1042:Drivers/STM32F4xx_HAL_Driver/Src/stm32f4xx_ll_usb.c **** 
1043:Drivers/STM32F4xx_HAL_Driver/Src/stm32f4xx_ll_usb.c ****   if (ep->is_in == 1U)
 3628              		.loc 1 1043 9
 3629 0014 3B68     		ldr	r3, [r7]
 3630 0016 5B78     		ldrb	r3, [r3, #1]	@ zero_extendqisi2
 3631              		.loc 1 1043 6
 3632 0018 012B     		cmp	r3, #1
 3633 001a 28D1     		bne	.L160
1044:Drivers/STM32F4xx_HAL_Driver/Src/stm32f4xx_ll_usb.c ****   {
1045:Drivers/STM32F4xx_HAL_Driver/Src/stm32f4xx_ll_usb.c ****     USBx_INEP(epnum)->DIEPCTL &= ~USB_OTG_DIEPCTL_STALL;
 3634              		.loc 1 1045 31
 3635 001c BB68     		ldr	r3, [r7, #8]
 3636 001e 5A01     		lsls	r2, r3, #5
 3637 0020 FB68     		ldr	r3, [r7, #12]
 3638 0022 1344     		add	r3, r3, r2
 3639 0024 03F51063 		add	r3, r3, #2304
 3640 0028 1B68     		ldr	r3, [r3]
 3641 002a BA68     		ldr	r2, [r7, #8]
 3642 002c 5101     		lsls	r1, r2, #5
 3643 002e FA68     		ldr	r2, [r7, #12]
 3644 0030 0A44     		add	r2, r2, r1
 3645 0032 02F51062 		add	r2, r2, #2304
 3646 0036 23F40013 		bic	r3, r3, #2097152
 3647 003a 1360     		str	r3, [r2]
1046:Drivers/STM32F4xx_HAL_Driver/Src/stm32f4xx_ll_usb.c ****     if ((ep->type == EP_TYPE_INTR) || (ep->type == EP_TYPE_BULK))
ARM GAS  /tmp/ccaXZQ0T.s 			page 83


 3648              		.loc 1 1046 12
 3649 003c 3B68     		ldr	r3, [r7]
 3650 003e DB78     		ldrb	r3, [r3, #3]	@ zero_extendqisi2
 3651              		.loc 1 1046 8
 3652 0040 032B     		cmp	r3, #3
 3653 0042 03D0     		beq	.L161
 3654              		.loc 1 1046 42 discriminator 1
 3655 0044 3B68     		ldr	r3, [r7]
 3656 0046 DB78     		ldrb	r3, [r3, #3]	@ zero_extendqisi2
 3657              		.loc 1 1046 36 discriminator 1
 3658 0048 022B     		cmp	r3, #2
 3659 004a 38D1     		bne	.L163
 3660              	.L161:
1047:Drivers/STM32F4xx_HAL_Driver/Src/stm32f4xx_ll_usb.c ****     {
1048:Drivers/STM32F4xx_HAL_Driver/Src/stm32f4xx_ll_usb.c ****       USBx_INEP(epnum)->DIEPCTL |= USB_OTG_DIEPCTL_SD0PID_SEVNFRM; /* DATA0 */
 3661              		.loc 1 1048 33
 3662 004c BB68     		ldr	r3, [r7, #8]
 3663 004e 5A01     		lsls	r2, r3, #5
 3664 0050 FB68     		ldr	r3, [r7, #12]
 3665 0052 1344     		add	r3, r3, r2
 3666 0054 03F51063 		add	r3, r3, #2304
 3667 0058 1B68     		ldr	r3, [r3]
 3668 005a BA68     		ldr	r2, [r7, #8]
 3669 005c 5101     		lsls	r1, r2, #5
 3670 005e FA68     		ldr	r2, [r7, #12]
 3671 0060 0A44     		add	r2, r2, r1
 3672 0062 02F51062 		add	r2, r2, #2304
 3673 0066 43F08053 		orr	r3, r3, #268435456
 3674 006a 1360     		str	r3, [r2]
 3675 006c 27E0     		b	.L163
 3676              	.L160:
1049:Drivers/STM32F4xx_HAL_Driver/Src/stm32f4xx_ll_usb.c ****     }
1050:Drivers/STM32F4xx_HAL_Driver/Src/stm32f4xx_ll_usb.c ****   }
1051:Drivers/STM32F4xx_HAL_Driver/Src/stm32f4xx_ll_usb.c ****   else
1052:Drivers/STM32F4xx_HAL_Driver/Src/stm32f4xx_ll_usb.c ****   {
1053:Drivers/STM32F4xx_HAL_Driver/Src/stm32f4xx_ll_usb.c ****     USBx_OUTEP(epnum)->DOEPCTL &= ~USB_OTG_DOEPCTL_STALL;
 3677              		.loc 1 1053 32
 3678 006e BB68     		ldr	r3, [r7, #8]
 3679 0070 5A01     		lsls	r2, r3, #5
 3680 0072 FB68     		ldr	r3, [r7, #12]
 3681 0074 1344     		add	r3, r3, r2
 3682 0076 03F53063 		add	r3, r3, #2816
 3683 007a 1B68     		ldr	r3, [r3]
 3684 007c BA68     		ldr	r2, [r7, #8]
 3685 007e 5101     		lsls	r1, r2, #5
 3686 0080 FA68     		ldr	r2, [r7, #12]
 3687 0082 0A44     		add	r2, r2, r1
 3688 0084 02F53062 		add	r2, r2, #2816
 3689 0088 23F40013 		bic	r3, r3, #2097152
 3690 008c 1360     		str	r3, [r2]
1054:Drivers/STM32F4xx_HAL_Driver/Src/stm32f4xx_ll_usb.c ****     if ((ep->type == EP_TYPE_INTR) || (ep->type == EP_TYPE_BULK))
 3691              		.loc 1 1054 12
 3692 008e 3B68     		ldr	r3, [r7]
 3693 0090 DB78     		ldrb	r3, [r3, #3]	@ zero_extendqisi2
 3694              		.loc 1 1054 8
 3695 0092 032B     		cmp	r3, #3
 3696 0094 03D0     		beq	.L164
ARM GAS  /tmp/ccaXZQ0T.s 			page 84


 3697              		.loc 1 1054 42 discriminator 1
 3698 0096 3B68     		ldr	r3, [r7]
 3699 0098 DB78     		ldrb	r3, [r3, #3]	@ zero_extendqisi2
 3700              		.loc 1 1054 36 discriminator 1
 3701 009a 022B     		cmp	r3, #2
 3702 009c 0FD1     		bne	.L163
 3703              	.L164:
1055:Drivers/STM32F4xx_HAL_Driver/Src/stm32f4xx_ll_usb.c ****     {
1056:Drivers/STM32F4xx_HAL_Driver/Src/stm32f4xx_ll_usb.c ****       USBx_OUTEP(epnum)->DOEPCTL |= USB_OTG_DOEPCTL_SD0PID_SEVNFRM; /* DATA0 */
 3704              		.loc 1 1056 34
 3705 009e BB68     		ldr	r3, [r7, #8]
 3706 00a0 5A01     		lsls	r2, r3, #5
 3707 00a2 FB68     		ldr	r3, [r7, #12]
 3708 00a4 1344     		add	r3, r3, r2
 3709 00a6 03F53063 		add	r3, r3, #2816
 3710 00aa 1B68     		ldr	r3, [r3]
 3711 00ac BA68     		ldr	r2, [r7, #8]
 3712 00ae 5101     		lsls	r1, r2, #5
 3713 00b0 FA68     		ldr	r2, [r7, #12]
 3714 00b2 0A44     		add	r2, r2, r1
 3715 00b4 02F53062 		add	r2, r2, #2816
 3716 00b8 43F08053 		orr	r3, r3, #268435456
 3717 00bc 1360     		str	r3, [r2]
 3718              	.L163:
1057:Drivers/STM32F4xx_HAL_Driver/Src/stm32f4xx_ll_usb.c ****     }
1058:Drivers/STM32F4xx_HAL_Driver/Src/stm32f4xx_ll_usb.c ****   }
1059:Drivers/STM32F4xx_HAL_Driver/Src/stm32f4xx_ll_usb.c ****   return HAL_OK;
 3719              		.loc 1 1059 10
 3720 00be 0023     		movs	r3, #0
1060:Drivers/STM32F4xx_HAL_Driver/Src/stm32f4xx_ll_usb.c **** }
 3721              		.loc 1 1060 1
 3722 00c0 1846     		mov	r0, r3
 3723 00c2 1437     		adds	r7, r7, #20
 3724              	.LCFI119:
 3725              		.cfi_def_cfa_offset 4
 3726 00c4 BD46     		mov	sp, r7
 3727              	.LCFI120:
 3728              		.cfi_def_cfa_register 13
 3729              		@ sp needed
 3730 00c6 5DF8047B 		ldr	r7, [sp], #4
 3731              	.LCFI121:
 3732              		.cfi_restore 7
 3733              		.cfi_def_cfa_offset 0
 3734 00ca 7047     		bx	lr
 3735              		.cfi_endproc
 3736              	.LFE149:
 3738              		.section	.text.USB_StopDevice,"ax",%progbits
 3739              		.align	1
 3740              		.global	USB_StopDevice
 3741              		.syntax unified
 3742              		.thumb
 3743              		.thumb_func
 3744              		.fpu fpv4-sp-d16
 3746              	USB_StopDevice:
 3747              	.LFB150:
1061:Drivers/STM32F4xx_HAL_Driver/Src/stm32f4xx_ll_usb.c **** 
1062:Drivers/STM32F4xx_HAL_Driver/Src/stm32f4xx_ll_usb.c **** /**
ARM GAS  /tmp/ccaXZQ0T.s 			page 85


1063:Drivers/STM32F4xx_HAL_Driver/Src/stm32f4xx_ll_usb.c ****   * @brief  USB_StopDevice : Stop the usb device mode
1064:Drivers/STM32F4xx_HAL_Driver/Src/stm32f4xx_ll_usb.c ****   * @param  USBx  Selected device
1065:Drivers/STM32F4xx_HAL_Driver/Src/stm32f4xx_ll_usb.c ****   * @retval HAL status
1066:Drivers/STM32F4xx_HAL_Driver/Src/stm32f4xx_ll_usb.c ****   */
1067:Drivers/STM32F4xx_HAL_Driver/Src/stm32f4xx_ll_usb.c **** HAL_StatusTypeDef USB_StopDevice(USB_OTG_GlobalTypeDef *USBx)
1068:Drivers/STM32F4xx_HAL_Driver/Src/stm32f4xx_ll_usb.c **** {
 3748              		.loc 1 1068 1
 3749              		.cfi_startproc
 3750              		@ args = 0, pretend = 0, frame = 24
 3751              		@ frame_needed = 1, uses_anonymous_args = 0
 3752 0000 80B5     		push	{r7, lr}
 3753              	.LCFI122:
 3754              		.cfi_def_cfa_offset 8
 3755              		.cfi_offset 7, -8
 3756              		.cfi_offset 14, -4
 3757 0002 86B0     		sub	sp, sp, #24
 3758              	.LCFI123:
 3759              		.cfi_def_cfa_offset 32
 3760 0004 00AF     		add	r7, sp, #0
 3761              	.LCFI124:
 3762              		.cfi_def_cfa_register 7
 3763 0006 7860     		str	r0, [r7, #4]
1069:Drivers/STM32F4xx_HAL_Driver/Src/stm32f4xx_ll_usb.c ****   HAL_StatusTypeDef ret;
1070:Drivers/STM32F4xx_HAL_Driver/Src/stm32f4xx_ll_usb.c ****   uint32_t USBx_BASE = (uint32_t)USBx;
 3764              		.loc 1 1070 12
 3765 0008 7B68     		ldr	r3, [r7, #4]
 3766 000a 3B61     		str	r3, [r7, #16]
1071:Drivers/STM32F4xx_HAL_Driver/Src/stm32f4xx_ll_usb.c ****   uint32_t i;
1072:Drivers/STM32F4xx_HAL_Driver/Src/stm32f4xx_ll_usb.c **** 
1073:Drivers/STM32F4xx_HAL_Driver/Src/stm32f4xx_ll_usb.c ****   /* Clear Pending interrupt */
1074:Drivers/STM32F4xx_HAL_Driver/Src/stm32f4xx_ll_usb.c ****   for (i = 0U; i < 15U; i++)
 3767              		.loc 1 1074 10
 3768 000c 0023     		movs	r3, #0
 3769 000e 7B61     		str	r3, [r7, #20]
 3770              		.loc 1 1074 3
 3771 0010 16E0     		b	.L167
 3772              	.L168:
1075:Drivers/STM32F4xx_HAL_Driver/Src/stm32f4xx_ll_usb.c ****   {
1076:Drivers/STM32F4xx_HAL_Driver/Src/stm32f4xx_ll_usb.c ****     USBx_INEP(i)->DIEPINT = 0xFB7FU;
 3773              		.loc 1 1076 5 discriminator 3
 3774 0012 7B69     		ldr	r3, [r7, #20]
 3775 0014 5A01     		lsls	r2, r3, #5
 3776 0016 3B69     		ldr	r3, [r7, #16]
 3777 0018 1344     		add	r3, r3, r2
 3778 001a 03F51063 		add	r3, r3, #2304
 3779 001e 1A46     		mov	r2, r3
 3780              		.loc 1 1076 27 discriminator 3
 3781 0020 4FF67F33 		movw	r3, #64383
 3782 0024 9360     		str	r3, [r2, #8]
1077:Drivers/STM32F4xx_HAL_Driver/Src/stm32f4xx_ll_usb.c ****     USBx_OUTEP(i)->DOEPINT = 0xFB7FU;
 3783              		.loc 1 1077 5 discriminator 3
 3784 0026 7B69     		ldr	r3, [r7, #20]
 3785 0028 5A01     		lsls	r2, r3, #5
 3786 002a 3B69     		ldr	r3, [r7, #16]
 3787 002c 1344     		add	r3, r3, r2
 3788 002e 03F53063 		add	r3, r3, #2816
 3789 0032 1A46     		mov	r2, r3
ARM GAS  /tmp/ccaXZQ0T.s 			page 86


 3790              		.loc 1 1077 28 discriminator 3
 3791 0034 4FF67F33 		movw	r3, #64383
 3792 0038 9360     		str	r3, [r2, #8]
1074:Drivers/STM32F4xx_HAL_Driver/Src/stm32f4xx_ll_usb.c ****   {
 3793              		.loc 1 1074 26 discriminator 3
 3794 003a 7B69     		ldr	r3, [r7, #20]
 3795 003c 0133     		adds	r3, r3, #1
 3796 003e 7B61     		str	r3, [r7, #20]
 3797              	.L167:
1074:Drivers/STM32F4xx_HAL_Driver/Src/stm32f4xx_ll_usb.c ****   {
 3798              		.loc 1 1074 3 discriminator 1
 3799 0040 7B69     		ldr	r3, [r7, #20]
 3800 0042 0E2B     		cmp	r3, #14
 3801 0044 E5D9     		bls	.L168
1078:Drivers/STM32F4xx_HAL_Driver/Src/stm32f4xx_ll_usb.c ****   }
1079:Drivers/STM32F4xx_HAL_Driver/Src/stm32f4xx_ll_usb.c **** 
1080:Drivers/STM32F4xx_HAL_Driver/Src/stm32f4xx_ll_usb.c ****   /* Clear interrupt masks */
1081:Drivers/STM32F4xx_HAL_Driver/Src/stm32f4xx_ll_usb.c ****   USBx_DEVICE->DIEPMSK  = 0U;
 3802              		.loc 1 1081 3
 3803 0046 3B69     		ldr	r3, [r7, #16]
 3804 0048 03F50063 		add	r3, r3, #2048
 3805 004c 1A46     		mov	r2, r3
 3806              		.loc 1 1081 25
 3807 004e 0023     		movs	r3, #0
 3808 0050 1361     		str	r3, [r2, #16]
1082:Drivers/STM32F4xx_HAL_Driver/Src/stm32f4xx_ll_usb.c ****   USBx_DEVICE->DOEPMSK  = 0U;
 3809              		.loc 1 1082 3
 3810 0052 3B69     		ldr	r3, [r7, #16]
 3811 0054 03F50063 		add	r3, r3, #2048
 3812 0058 1A46     		mov	r2, r3
 3813              		.loc 1 1082 25
 3814 005a 0023     		movs	r3, #0
 3815 005c 5361     		str	r3, [r2, #20]
1083:Drivers/STM32F4xx_HAL_Driver/Src/stm32f4xx_ll_usb.c ****   USBx_DEVICE->DAINTMSK = 0U;
 3816              		.loc 1 1083 3
 3817 005e 3B69     		ldr	r3, [r7, #16]
 3818 0060 03F50063 		add	r3, r3, #2048
 3819 0064 1A46     		mov	r2, r3
 3820              		.loc 1 1083 25
 3821 0066 0023     		movs	r3, #0
 3822 0068 D361     		str	r3, [r2, #28]
1084:Drivers/STM32F4xx_HAL_Driver/Src/stm32f4xx_ll_usb.c **** 
1085:Drivers/STM32F4xx_HAL_Driver/Src/stm32f4xx_ll_usb.c ****   /* Flush the FIFO */
1086:Drivers/STM32F4xx_HAL_Driver/Src/stm32f4xx_ll_usb.c ****   ret = USB_FlushRxFifo(USBx);
 3823              		.loc 1 1086 9
 3824 006a 7868     		ldr	r0, [r7, #4]
 3825 006c FFF7FEFF 		bl	USB_FlushRxFifo
 3826 0070 0346     		mov	r3, r0
 3827 0072 FB73     		strb	r3, [r7, #15]
1087:Drivers/STM32F4xx_HAL_Driver/Src/stm32f4xx_ll_usb.c ****   if (ret != HAL_OK)
 3828              		.loc 1 1087 6
 3829 0074 FB7B     		ldrb	r3, [r7, #15]	@ zero_extendqisi2
 3830 0076 002B     		cmp	r3, #0
 3831 0078 01D0     		beq	.L169
1088:Drivers/STM32F4xx_HAL_Driver/Src/stm32f4xx_ll_usb.c ****   {
1089:Drivers/STM32F4xx_HAL_Driver/Src/stm32f4xx_ll_usb.c ****     return ret;
 3832              		.loc 1 1089 12
ARM GAS  /tmp/ccaXZQ0T.s 			page 87


 3833 007a FB7B     		ldrb	r3, [r7, #15]	@ zero_extendqisi2
 3834 007c 0BE0     		b	.L170
 3835              	.L169:
1090:Drivers/STM32F4xx_HAL_Driver/Src/stm32f4xx_ll_usb.c ****   }
1091:Drivers/STM32F4xx_HAL_Driver/Src/stm32f4xx_ll_usb.c **** 
1092:Drivers/STM32F4xx_HAL_Driver/Src/stm32f4xx_ll_usb.c ****   ret = USB_FlushTxFifo(USBx,  0x10U);
 3836              		.loc 1 1092 9
 3837 007e 1021     		movs	r1, #16
 3838 0080 7868     		ldr	r0, [r7, #4]
 3839 0082 FFF7FEFF 		bl	USB_FlushTxFifo
 3840 0086 0346     		mov	r3, r0
 3841 0088 FB73     		strb	r3, [r7, #15]
1093:Drivers/STM32F4xx_HAL_Driver/Src/stm32f4xx_ll_usb.c ****   if (ret != HAL_OK)
 3842              		.loc 1 1093 6
 3843 008a FB7B     		ldrb	r3, [r7, #15]	@ zero_extendqisi2
 3844 008c 002B     		cmp	r3, #0
 3845 008e 01D0     		beq	.L171
1094:Drivers/STM32F4xx_HAL_Driver/Src/stm32f4xx_ll_usb.c ****   {
1095:Drivers/STM32F4xx_HAL_Driver/Src/stm32f4xx_ll_usb.c ****     return ret;
 3846              		.loc 1 1095 12
 3847 0090 FB7B     		ldrb	r3, [r7, #15]	@ zero_extendqisi2
 3848 0092 00E0     		b	.L170
 3849              	.L171:
1096:Drivers/STM32F4xx_HAL_Driver/Src/stm32f4xx_ll_usb.c ****   }
1097:Drivers/STM32F4xx_HAL_Driver/Src/stm32f4xx_ll_usb.c **** 
1098:Drivers/STM32F4xx_HAL_Driver/Src/stm32f4xx_ll_usb.c ****   return ret;
 3850              		.loc 1 1098 10
 3851 0094 FB7B     		ldrb	r3, [r7, #15]	@ zero_extendqisi2
 3852              	.L170:
1099:Drivers/STM32F4xx_HAL_Driver/Src/stm32f4xx_ll_usb.c **** }
 3853              		.loc 1 1099 1
 3854 0096 1846     		mov	r0, r3
 3855 0098 1837     		adds	r7, r7, #24
 3856              	.LCFI125:
 3857              		.cfi_def_cfa_offset 8
 3858 009a BD46     		mov	sp, r7
 3859              	.LCFI126:
 3860              		.cfi_def_cfa_register 13
 3861              		@ sp needed
 3862 009c 80BD     		pop	{r7, pc}
 3863              		.cfi_endproc
 3864              	.LFE150:
 3866              		.section	.text.USB_SetDevAddress,"ax",%progbits
 3867              		.align	1
 3868              		.global	USB_SetDevAddress
 3869              		.syntax unified
 3870              		.thumb
 3871              		.thumb_func
 3872              		.fpu fpv4-sp-d16
 3874              	USB_SetDevAddress:
 3875              	.LFB151:
1100:Drivers/STM32F4xx_HAL_Driver/Src/stm32f4xx_ll_usb.c **** 
1101:Drivers/STM32F4xx_HAL_Driver/Src/stm32f4xx_ll_usb.c **** /**
1102:Drivers/STM32F4xx_HAL_Driver/Src/stm32f4xx_ll_usb.c ****   * @brief  USB_SetDevAddress : Stop the usb device mode
1103:Drivers/STM32F4xx_HAL_Driver/Src/stm32f4xx_ll_usb.c ****   * @param  USBx  Selected device
1104:Drivers/STM32F4xx_HAL_Driver/Src/stm32f4xx_ll_usb.c ****   * @param  address  new device address to be assigned
1105:Drivers/STM32F4xx_HAL_Driver/Src/stm32f4xx_ll_usb.c ****   *          This parameter can be a value from 0 to 255
ARM GAS  /tmp/ccaXZQ0T.s 			page 88


1106:Drivers/STM32F4xx_HAL_Driver/Src/stm32f4xx_ll_usb.c ****   * @retval HAL status
1107:Drivers/STM32F4xx_HAL_Driver/Src/stm32f4xx_ll_usb.c ****   */
1108:Drivers/STM32F4xx_HAL_Driver/Src/stm32f4xx_ll_usb.c **** HAL_StatusTypeDef  USB_SetDevAddress(USB_OTG_GlobalTypeDef *USBx, uint8_t address)
1109:Drivers/STM32F4xx_HAL_Driver/Src/stm32f4xx_ll_usb.c **** {
 3876              		.loc 1 1109 1
 3877              		.cfi_startproc
 3878              		@ args = 0, pretend = 0, frame = 16
 3879              		@ frame_needed = 1, uses_anonymous_args = 0
 3880              		@ link register save eliminated.
 3881 0000 80B4     		push	{r7}
 3882              	.LCFI127:
 3883              		.cfi_def_cfa_offset 4
 3884              		.cfi_offset 7, -4
 3885 0002 85B0     		sub	sp, sp, #20
 3886              	.LCFI128:
 3887              		.cfi_def_cfa_offset 24
 3888 0004 00AF     		add	r7, sp, #0
 3889              	.LCFI129:
 3890              		.cfi_def_cfa_register 7
 3891 0006 7860     		str	r0, [r7, #4]
 3892 0008 0B46     		mov	r3, r1
