ARM GAS  /tmp/ccg0QfjD.s 			page 1


   1              		.cpu cortex-m4
   2              		.eabi_attribute 27, 1
   3              		.eabi_attribute 28, 1
   4              		.eabi_attribute 20, 1
   5              		.eabi_attribute 21, 1
   6              		.eabi_attribute 23, 3
   7              		.eabi_attribute 24, 1
   8              		.eabi_attribute 25, 1
   9              		.eabi_attribute 26, 1
  10              		.eabi_attribute 30, 6
  11              		.eabi_attribute 34, 1
  12              		.eabi_attribute 18, 4
  13              		.file	"stm32f4xx_hal_tim.c"
  14              		.text
  15              	.Ltext0:
  16              		.cfi_sections	.debug_frame
  17              		.section	.text.HAL_TIM_Base_Init,"ax",%progbits
  18              		.align	1
  19              		.global	HAL_TIM_Base_Init
  20              		.arch armv7e-m
  21              		.syntax unified
  22              		.thumb
  23              		.thumb_func
  24              		.fpu fpv4-sp-d16
  26              	HAL_TIM_Base_Init:
  27              	.LFB130:
  28              		.file 1 "Drivers/STM32F4xx_HAL_Driver/Src/stm32f4xx_hal_tim.c"
   1:Drivers/STM32F4xx_HAL_Driver/Src/stm32f4xx_hal_tim.c **** /**
   2:Drivers/STM32F4xx_HAL_Driver/Src/stm32f4xx_hal_tim.c ****   ******************************************************************************
   3:Drivers/STM32F4xx_HAL_Driver/Src/stm32f4xx_hal_tim.c ****   * @file    stm32f4xx_hal_tim.c
   4:Drivers/STM32F4xx_HAL_Driver/Src/stm32f4xx_hal_tim.c ****   * @author  MCD Application Team
   5:Drivers/STM32F4xx_HAL_Driver/Src/stm32f4xx_hal_tim.c ****   * @brief   TIM HAL module driver.
   6:Drivers/STM32F4xx_HAL_Driver/Src/stm32f4xx_hal_tim.c ****   *          This file provides firmware functions to manage the following
   7:Drivers/STM32F4xx_HAL_Driver/Src/stm32f4xx_hal_tim.c ****   *          functionalities of the Timer (TIM) peripheral:
   8:Drivers/STM32F4xx_HAL_Driver/Src/stm32f4xx_hal_tim.c ****   *           + TIM Time Base Initialization
   9:Drivers/STM32F4xx_HAL_Driver/Src/stm32f4xx_hal_tim.c ****   *           + TIM Time Base Start
  10:Drivers/STM32F4xx_HAL_Driver/Src/stm32f4xx_hal_tim.c ****   *           + TIM Time Base Start Interruption
  11:Drivers/STM32F4xx_HAL_Driver/Src/stm32f4xx_hal_tim.c ****   *           + TIM Time Base Start DMA
  12:Drivers/STM32F4xx_HAL_Driver/Src/stm32f4xx_hal_tim.c ****   *           + TIM Output Compare/PWM Initialization
  13:Drivers/STM32F4xx_HAL_Driver/Src/stm32f4xx_hal_tim.c ****   *           + TIM Output Compare/PWM Channel Configuration
  14:Drivers/STM32F4xx_HAL_Driver/Src/stm32f4xx_hal_tim.c ****   *           + TIM Output Compare/PWM  Start
  15:Drivers/STM32F4xx_HAL_Driver/Src/stm32f4xx_hal_tim.c ****   *           + TIM Output Compare/PWM  Start Interruption
  16:Drivers/STM32F4xx_HAL_Driver/Src/stm32f4xx_hal_tim.c ****   *           + TIM Output Compare/PWM Start DMA
  17:Drivers/STM32F4xx_HAL_Driver/Src/stm32f4xx_hal_tim.c ****   *           + TIM Input Capture Initialization
  18:Drivers/STM32F4xx_HAL_Driver/Src/stm32f4xx_hal_tim.c ****   *           + TIM Input Capture Channel Configuration
  19:Drivers/STM32F4xx_HAL_Driver/Src/stm32f4xx_hal_tim.c ****   *           + TIM Input Capture Start
  20:Drivers/STM32F4xx_HAL_Driver/Src/stm32f4xx_hal_tim.c ****   *           + TIM Input Capture Start Interruption
  21:Drivers/STM32F4xx_HAL_Driver/Src/stm32f4xx_hal_tim.c ****   *           + TIM Input Capture Start DMA
  22:Drivers/STM32F4xx_HAL_Driver/Src/stm32f4xx_hal_tim.c ****   *           + TIM One Pulse Initialization
  23:Drivers/STM32F4xx_HAL_Driver/Src/stm32f4xx_hal_tim.c ****   *           + TIM One Pulse Channel Configuration
  24:Drivers/STM32F4xx_HAL_Driver/Src/stm32f4xx_hal_tim.c ****   *           + TIM One Pulse Start
  25:Drivers/STM32F4xx_HAL_Driver/Src/stm32f4xx_hal_tim.c ****   *           + TIM Encoder Interface Initialization
  26:Drivers/STM32F4xx_HAL_Driver/Src/stm32f4xx_hal_tim.c ****   *           + TIM Encoder Interface Start
  27:Drivers/STM32F4xx_HAL_Driver/Src/stm32f4xx_hal_tim.c ****   *           + TIM Encoder Interface Start Interruption
  28:Drivers/STM32F4xx_HAL_Driver/Src/stm32f4xx_hal_tim.c ****   *           + TIM Encoder Interface Start DMA
  29:Drivers/STM32F4xx_HAL_Driver/Src/stm32f4xx_hal_tim.c ****   *           + Commutation Event configuration with Interruption and DMA
  30:Drivers/STM32F4xx_HAL_Driver/Src/stm32f4xx_hal_tim.c ****   *           + TIM OCRef clear configuration
ARM GAS  /tmp/ccg0QfjD.s 			page 2


  31:Drivers/STM32F4xx_HAL_Driver/Src/stm32f4xx_hal_tim.c ****   *           + TIM External Clock configuration
  32:Drivers/STM32F4xx_HAL_Driver/Src/stm32f4xx_hal_tim.c ****   @verbatim
  33:Drivers/STM32F4xx_HAL_Driver/Src/stm32f4xx_hal_tim.c ****   ==============================================================================
  34:Drivers/STM32F4xx_HAL_Driver/Src/stm32f4xx_hal_tim.c ****                       ##### TIMER Generic features #####
  35:Drivers/STM32F4xx_HAL_Driver/Src/stm32f4xx_hal_tim.c ****   ==============================================================================
  36:Drivers/STM32F4xx_HAL_Driver/Src/stm32f4xx_hal_tim.c ****   [..] The Timer features include:
  37:Drivers/STM32F4xx_HAL_Driver/Src/stm32f4xx_hal_tim.c ****        (#) 16-bit up, down, up/down auto-reload counter.
  38:Drivers/STM32F4xx_HAL_Driver/Src/stm32f4xx_hal_tim.c ****        (#) 16-bit programmable prescaler allowing dividing (also on the fly) the
  39:Drivers/STM32F4xx_HAL_Driver/Src/stm32f4xx_hal_tim.c ****            counter clock frequency either by any factor between 1 and 65536.
  40:Drivers/STM32F4xx_HAL_Driver/Src/stm32f4xx_hal_tim.c ****        (#) Up to 4 independent channels for:
  41:Drivers/STM32F4xx_HAL_Driver/Src/stm32f4xx_hal_tim.c ****            (++) Input Capture
  42:Drivers/STM32F4xx_HAL_Driver/Src/stm32f4xx_hal_tim.c ****            (++) Output Compare
  43:Drivers/STM32F4xx_HAL_Driver/Src/stm32f4xx_hal_tim.c ****            (++) PWM generation (Edge and Center-aligned Mode)
  44:Drivers/STM32F4xx_HAL_Driver/Src/stm32f4xx_hal_tim.c ****            (++) One-pulse mode output
  45:Drivers/STM32F4xx_HAL_Driver/Src/stm32f4xx_hal_tim.c ****        (#) Synchronization circuit to control the timer with external signals and to interconnect
  46:Drivers/STM32F4xx_HAL_Driver/Src/stm32f4xx_hal_tim.c ****             several timers together.
  47:Drivers/STM32F4xx_HAL_Driver/Src/stm32f4xx_hal_tim.c ****        (#) Supports incremental encoder for positioning purposes
  48:Drivers/STM32F4xx_HAL_Driver/Src/stm32f4xx_hal_tim.c **** 
  49:Drivers/STM32F4xx_HAL_Driver/Src/stm32f4xx_hal_tim.c ****             ##### How to use this driver #####
  50:Drivers/STM32F4xx_HAL_Driver/Src/stm32f4xx_hal_tim.c ****   ==============================================================================
  51:Drivers/STM32F4xx_HAL_Driver/Src/stm32f4xx_hal_tim.c ****     [..]
  52:Drivers/STM32F4xx_HAL_Driver/Src/stm32f4xx_hal_tim.c ****      (#) Initialize the TIM low level resources by implementing the following functions
  53:Drivers/STM32F4xx_HAL_Driver/Src/stm32f4xx_hal_tim.c ****          depending on the selected feature:
  54:Drivers/STM32F4xx_HAL_Driver/Src/stm32f4xx_hal_tim.c ****            (++) Time Base : HAL_TIM_Base_MspInit()
  55:Drivers/STM32F4xx_HAL_Driver/Src/stm32f4xx_hal_tim.c ****            (++) Input Capture : HAL_TIM_IC_MspInit()
  56:Drivers/STM32F4xx_HAL_Driver/Src/stm32f4xx_hal_tim.c ****            (++) Output Compare : HAL_TIM_OC_MspInit()
  57:Drivers/STM32F4xx_HAL_Driver/Src/stm32f4xx_hal_tim.c ****            (++) PWM generation : HAL_TIM_PWM_MspInit()
  58:Drivers/STM32F4xx_HAL_Driver/Src/stm32f4xx_hal_tim.c ****            (++) One-pulse mode output : HAL_TIM_OnePulse_MspInit()
  59:Drivers/STM32F4xx_HAL_Driver/Src/stm32f4xx_hal_tim.c ****            (++) Encoder mode output : HAL_TIM_Encoder_MspInit()
  60:Drivers/STM32F4xx_HAL_Driver/Src/stm32f4xx_hal_tim.c **** 
  61:Drivers/STM32F4xx_HAL_Driver/Src/stm32f4xx_hal_tim.c ****      (#) Initialize the TIM low level resources :
  62:Drivers/STM32F4xx_HAL_Driver/Src/stm32f4xx_hal_tim.c ****         (##) Enable the TIM interface clock using __HAL_RCC_TIMx_CLK_ENABLE();
  63:Drivers/STM32F4xx_HAL_Driver/Src/stm32f4xx_hal_tim.c ****         (##) TIM pins configuration
  64:Drivers/STM32F4xx_HAL_Driver/Src/stm32f4xx_hal_tim.c ****             (+++) Enable the clock for the TIM GPIOs using the following function:
  65:Drivers/STM32F4xx_HAL_Driver/Src/stm32f4xx_hal_tim.c ****              __HAL_RCC_GPIOx_CLK_ENABLE();
  66:Drivers/STM32F4xx_HAL_Driver/Src/stm32f4xx_hal_tim.c ****             (+++) Configure these TIM pins in Alternate function mode using HAL_GPIO_Init();
  67:Drivers/STM32F4xx_HAL_Driver/Src/stm32f4xx_hal_tim.c **** 
  68:Drivers/STM32F4xx_HAL_Driver/Src/stm32f4xx_hal_tim.c ****      (#) The external Clock can be configured, if needed (the default clock is the
  69:Drivers/STM32F4xx_HAL_Driver/Src/stm32f4xx_hal_tim.c ****          internal clock from the APBx), using the following function:
  70:Drivers/STM32F4xx_HAL_Driver/Src/stm32f4xx_hal_tim.c ****          HAL_TIM_ConfigClockSource, the clock configuration should be done before
  71:Drivers/STM32F4xx_HAL_Driver/Src/stm32f4xx_hal_tim.c ****          any start function.
  72:Drivers/STM32F4xx_HAL_Driver/Src/stm32f4xx_hal_tim.c **** 
  73:Drivers/STM32F4xx_HAL_Driver/Src/stm32f4xx_hal_tim.c ****      (#) Configure the TIM in the desired functioning mode using one of the
  74:Drivers/STM32F4xx_HAL_Driver/Src/stm32f4xx_hal_tim.c ****        Initialization function of this driver:
  75:Drivers/STM32F4xx_HAL_Driver/Src/stm32f4xx_hal_tim.c ****        (++) HAL_TIM_Base_Init: to use the Timer to generate a simple time base
  76:Drivers/STM32F4xx_HAL_Driver/Src/stm32f4xx_hal_tim.c ****        (++) HAL_TIM_OC_Init and HAL_TIM_OC_ConfigChannel: to use the Timer to generate an
  77:Drivers/STM32F4xx_HAL_Driver/Src/stm32f4xx_hal_tim.c ****             Output Compare signal.
  78:Drivers/STM32F4xx_HAL_Driver/Src/stm32f4xx_hal_tim.c ****        (++) HAL_TIM_PWM_Init and HAL_TIM_PWM_ConfigChannel: to use the Timer to generate a
  79:Drivers/STM32F4xx_HAL_Driver/Src/stm32f4xx_hal_tim.c ****             PWM signal.
  80:Drivers/STM32F4xx_HAL_Driver/Src/stm32f4xx_hal_tim.c ****        (++) HAL_TIM_IC_Init and HAL_TIM_IC_ConfigChannel: to use the Timer to measure an
  81:Drivers/STM32F4xx_HAL_Driver/Src/stm32f4xx_hal_tim.c ****             external signal.
  82:Drivers/STM32F4xx_HAL_Driver/Src/stm32f4xx_hal_tim.c ****        (++) HAL_TIM_OnePulse_Init and HAL_TIM_OnePulse_ConfigChannel: to use the Timer
  83:Drivers/STM32F4xx_HAL_Driver/Src/stm32f4xx_hal_tim.c ****             in One Pulse Mode.
  84:Drivers/STM32F4xx_HAL_Driver/Src/stm32f4xx_hal_tim.c ****        (++) HAL_TIM_Encoder_Init: to use the Timer Encoder Interface.
  85:Drivers/STM32F4xx_HAL_Driver/Src/stm32f4xx_hal_tim.c **** 
  86:Drivers/STM32F4xx_HAL_Driver/Src/stm32f4xx_hal_tim.c ****      (#) Activate the TIM peripheral using one of the start functions depending from the feature us
  87:Drivers/STM32F4xx_HAL_Driver/Src/stm32f4xx_hal_tim.c ****            (++) Time Base : HAL_TIM_Base_Start(), HAL_TIM_Base_Start_DMA(), HAL_TIM_Base_Start_IT()
ARM GAS  /tmp/ccg0QfjD.s 			page 3


  88:Drivers/STM32F4xx_HAL_Driver/Src/stm32f4xx_hal_tim.c ****            (++) Input Capture :  HAL_TIM_IC_Start(), HAL_TIM_IC_Start_DMA(), HAL_TIM_IC_Start_IT()
  89:Drivers/STM32F4xx_HAL_Driver/Src/stm32f4xx_hal_tim.c ****            (++) Output Compare : HAL_TIM_OC_Start(), HAL_TIM_OC_Start_DMA(), HAL_TIM_OC_Start_IT()
  90:Drivers/STM32F4xx_HAL_Driver/Src/stm32f4xx_hal_tim.c ****            (++) PWM generation : HAL_TIM_PWM_Start(), HAL_TIM_PWM_Start_DMA(), HAL_TIM_PWM_Start_IT
  91:Drivers/STM32F4xx_HAL_Driver/Src/stm32f4xx_hal_tim.c ****            (++) One-pulse mode output : HAL_TIM_OnePulse_Start(), HAL_TIM_OnePulse_Start_IT()
  92:Drivers/STM32F4xx_HAL_Driver/Src/stm32f4xx_hal_tim.c ****            (++) Encoder mode output : HAL_TIM_Encoder_Start(), HAL_TIM_Encoder_Start_DMA(), HAL_TIM
  93:Drivers/STM32F4xx_HAL_Driver/Src/stm32f4xx_hal_tim.c **** 
  94:Drivers/STM32F4xx_HAL_Driver/Src/stm32f4xx_hal_tim.c ****      (#) The DMA Burst is managed with the two following functions:
  95:Drivers/STM32F4xx_HAL_Driver/Src/stm32f4xx_hal_tim.c ****          HAL_TIM_DMABurst_WriteStart()
  96:Drivers/STM32F4xx_HAL_Driver/Src/stm32f4xx_hal_tim.c ****          HAL_TIM_DMABurst_ReadStart()
  97:Drivers/STM32F4xx_HAL_Driver/Src/stm32f4xx_hal_tim.c **** 
  98:Drivers/STM32F4xx_HAL_Driver/Src/stm32f4xx_hal_tim.c ****     *** Callback registration ***
  99:Drivers/STM32F4xx_HAL_Driver/Src/stm32f4xx_hal_tim.c ****   =============================================
 100:Drivers/STM32F4xx_HAL_Driver/Src/stm32f4xx_hal_tim.c **** 
 101:Drivers/STM32F4xx_HAL_Driver/Src/stm32f4xx_hal_tim.c ****   [..]
 102:Drivers/STM32F4xx_HAL_Driver/Src/stm32f4xx_hal_tim.c ****   The compilation define  USE_HAL_TIM_REGISTER_CALLBACKS when set to 1
 103:Drivers/STM32F4xx_HAL_Driver/Src/stm32f4xx_hal_tim.c ****   allows the user to configure dynamically the driver callbacks.
 104:Drivers/STM32F4xx_HAL_Driver/Src/stm32f4xx_hal_tim.c **** 
 105:Drivers/STM32F4xx_HAL_Driver/Src/stm32f4xx_hal_tim.c ****   [..]
 106:Drivers/STM32F4xx_HAL_Driver/Src/stm32f4xx_hal_tim.c ****   Use Function @ref HAL_TIM_RegisterCallback() to register a callback.
 107:Drivers/STM32F4xx_HAL_Driver/Src/stm32f4xx_hal_tim.c ****   @ref HAL_TIM_RegisterCallback() takes as parameters the HAL peripheral handle,
 108:Drivers/STM32F4xx_HAL_Driver/Src/stm32f4xx_hal_tim.c ****   the Callback ID and a pointer to the user callback function.
 109:Drivers/STM32F4xx_HAL_Driver/Src/stm32f4xx_hal_tim.c **** 
 110:Drivers/STM32F4xx_HAL_Driver/Src/stm32f4xx_hal_tim.c ****   [..]
 111:Drivers/STM32F4xx_HAL_Driver/Src/stm32f4xx_hal_tim.c ****   Use function @ref HAL_TIM_UnRegisterCallback() to reset a callback to the default
 112:Drivers/STM32F4xx_HAL_Driver/Src/stm32f4xx_hal_tim.c ****   weak function.
 113:Drivers/STM32F4xx_HAL_Driver/Src/stm32f4xx_hal_tim.c ****   @ref HAL_TIM_UnRegisterCallback takes as parameters the HAL peripheral handle,
 114:Drivers/STM32F4xx_HAL_Driver/Src/stm32f4xx_hal_tim.c ****   and the Callback ID.
 115:Drivers/STM32F4xx_HAL_Driver/Src/stm32f4xx_hal_tim.c **** 
 116:Drivers/STM32F4xx_HAL_Driver/Src/stm32f4xx_hal_tim.c ****   [..]
 117:Drivers/STM32F4xx_HAL_Driver/Src/stm32f4xx_hal_tim.c ****   These functions allow to register/unregister following callbacks:
 118:Drivers/STM32F4xx_HAL_Driver/Src/stm32f4xx_hal_tim.c ****     (+) Base_MspInitCallback              : TIM Base Msp Init Callback.
 119:Drivers/STM32F4xx_HAL_Driver/Src/stm32f4xx_hal_tim.c ****     (+) Base_MspDeInitCallback            : TIM Base Msp DeInit Callback.
 120:Drivers/STM32F4xx_HAL_Driver/Src/stm32f4xx_hal_tim.c ****     (+) IC_MspInitCallback                : TIM IC Msp Init Callback.
 121:Drivers/STM32F4xx_HAL_Driver/Src/stm32f4xx_hal_tim.c ****     (+) IC_MspDeInitCallback              : TIM IC Msp DeInit Callback.
 122:Drivers/STM32F4xx_HAL_Driver/Src/stm32f4xx_hal_tim.c ****     (+) OC_MspInitCallback                : TIM OC Msp Init Callback.
 123:Drivers/STM32F4xx_HAL_Driver/Src/stm32f4xx_hal_tim.c ****     (+) OC_MspDeInitCallback              : TIM OC Msp DeInit Callback.
 124:Drivers/STM32F4xx_HAL_Driver/Src/stm32f4xx_hal_tim.c ****     (+) PWM_MspInitCallback               : TIM PWM Msp Init Callback.
 125:Drivers/STM32F4xx_HAL_Driver/Src/stm32f4xx_hal_tim.c ****     (+) PWM_MspDeInitCallback             : TIM PWM Msp DeInit Callback.
 126:Drivers/STM32F4xx_HAL_Driver/Src/stm32f4xx_hal_tim.c ****     (+) OnePulse_MspInitCallback          : TIM One Pulse Msp Init Callback.
 127:Drivers/STM32F4xx_HAL_Driver/Src/stm32f4xx_hal_tim.c ****     (+) OnePulse_MspDeInitCallback        : TIM One Pulse Msp DeInit Callback.
 128:Drivers/STM32F4xx_HAL_Driver/Src/stm32f4xx_hal_tim.c ****     (+) Encoder_MspInitCallback           : TIM Encoder Msp Init Callback.
 129:Drivers/STM32F4xx_HAL_Driver/Src/stm32f4xx_hal_tim.c ****     (+) Encoder_MspDeInitCallback         : TIM Encoder Msp DeInit Callback.
 130:Drivers/STM32F4xx_HAL_Driver/Src/stm32f4xx_hal_tim.c ****     (+) HallSensor_MspInitCallback        : TIM Hall Sensor Msp Init Callback.
 131:Drivers/STM32F4xx_HAL_Driver/Src/stm32f4xx_hal_tim.c ****     (+) HallSensor_MspDeInitCallback      : TIM Hall Sensor Msp DeInit Callback.
 132:Drivers/STM32F4xx_HAL_Driver/Src/stm32f4xx_hal_tim.c ****     (+) PeriodElapsedCallback             : TIM Period Elapsed Callback.
 133:Drivers/STM32F4xx_HAL_Driver/Src/stm32f4xx_hal_tim.c ****     (+) PeriodElapsedHalfCpltCallback     : TIM Period Elapsed half complete Callback.
 134:Drivers/STM32F4xx_HAL_Driver/Src/stm32f4xx_hal_tim.c ****     (+) TriggerCallback                   : TIM Trigger Callback.
 135:Drivers/STM32F4xx_HAL_Driver/Src/stm32f4xx_hal_tim.c ****     (+) TriggerHalfCpltCallback           : TIM Trigger half complete Callback.
 136:Drivers/STM32F4xx_HAL_Driver/Src/stm32f4xx_hal_tim.c ****     (+) IC_CaptureCallback                : TIM Input Capture Callback.
 137:Drivers/STM32F4xx_HAL_Driver/Src/stm32f4xx_hal_tim.c ****     (+) IC_CaptureHalfCpltCallback        : TIM Input Capture half complete Callback.
 138:Drivers/STM32F4xx_HAL_Driver/Src/stm32f4xx_hal_tim.c ****     (+) OC_DelayElapsedCallback           : TIM Output Compare Delay Elapsed Callback.
 139:Drivers/STM32F4xx_HAL_Driver/Src/stm32f4xx_hal_tim.c ****     (+) PWM_PulseFinishedCallback         : TIM PWM Pulse Finished Callback.
 140:Drivers/STM32F4xx_HAL_Driver/Src/stm32f4xx_hal_tim.c ****     (+) PWM_PulseFinishedHalfCpltCallback : TIM PWM Pulse Finished half complete Callback.
 141:Drivers/STM32F4xx_HAL_Driver/Src/stm32f4xx_hal_tim.c ****     (+) ErrorCallback                     : TIM Error Callback.
 142:Drivers/STM32F4xx_HAL_Driver/Src/stm32f4xx_hal_tim.c ****     (+) CommutationCallback               : TIM Commutation Callback.
 143:Drivers/STM32F4xx_HAL_Driver/Src/stm32f4xx_hal_tim.c ****     (+) CommutationHalfCpltCallback       : TIM Commutation half complete Callback.
 144:Drivers/STM32F4xx_HAL_Driver/Src/stm32f4xx_hal_tim.c ****     (+) BreakCallback                     : TIM Break Callback.
ARM GAS  /tmp/ccg0QfjD.s 			page 4


 145:Drivers/STM32F4xx_HAL_Driver/Src/stm32f4xx_hal_tim.c **** 
 146:Drivers/STM32F4xx_HAL_Driver/Src/stm32f4xx_hal_tim.c ****   [..]
 147:Drivers/STM32F4xx_HAL_Driver/Src/stm32f4xx_hal_tim.c **** By default, after the Init and when the state is HAL_TIM_STATE_RESET
 148:Drivers/STM32F4xx_HAL_Driver/Src/stm32f4xx_hal_tim.c **** all interrupt callbacks are set to the corresponding weak functions:
 149:Drivers/STM32F4xx_HAL_Driver/Src/stm32f4xx_hal_tim.c ****   examples @ref HAL_TIM_TriggerCallback(), @ref HAL_TIM_ErrorCallback().
 150:Drivers/STM32F4xx_HAL_Driver/Src/stm32f4xx_hal_tim.c **** 
 151:Drivers/STM32F4xx_HAL_Driver/Src/stm32f4xx_hal_tim.c ****   [..]
 152:Drivers/STM32F4xx_HAL_Driver/Src/stm32f4xx_hal_tim.c ****   Exception done for MspInit and MspDeInit functions that are reset to the legacy weak
 153:Drivers/STM32F4xx_HAL_Driver/Src/stm32f4xx_hal_tim.c ****   functionalities in the Init / DeInit only when these callbacks are null
 154:Drivers/STM32F4xx_HAL_Driver/Src/stm32f4xx_hal_tim.c ****   (not registered beforehand). If not, MspInit or MspDeInit are not null, the Init / DeInit
 155:Drivers/STM32F4xx_HAL_Driver/Src/stm32f4xx_hal_tim.c ****     keep and use the user MspInit / MspDeInit callbacks(registered beforehand)
 156:Drivers/STM32F4xx_HAL_Driver/Src/stm32f4xx_hal_tim.c **** 
 157:Drivers/STM32F4xx_HAL_Driver/Src/stm32f4xx_hal_tim.c ****   [..]
 158:Drivers/STM32F4xx_HAL_Driver/Src/stm32f4xx_hal_tim.c ****     Callbacks can be registered / unregistered in HAL_TIM_STATE_READY state only.
 159:Drivers/STM32F4xx_HAL_Driver/Src/stm32f4xx_hal_tim.c ****     Exception done MspInit / MspDeInit that can be registered / unregistered
 160:Drivers/STM32F4xx_HAL_Driver/Src/stm32f4xx_hal_tim.c ****     in HAL_TIM_STATE_READY or HAL_TIM_STATE_RESET state,
 161:Drivers/STM32F4xx_HAL_Driver/Src/stm32f4xx_hal_tim.c ****     thus registered(user) MspInit / DeInit callbacks can be used during the Init / DeInit.
 162:Drivers/STM32F4xx_HAL_Driver/Src/stm32f4xx_hal_tim.c ****   In that case first register the MspInit/MspDeInit user callbacks
 163:Drivers/STM32F4xx_HAL_Driver/Src/stm32f4xx_hal_tim.c ****       using @ref HAL_TIM_RegisterCallback() before calling DeInit or Init function.
 164:Drivers/STM32F4xx_HAL_Driver/Src/stm32f4xx_hal_tim.c **** 
 165:Drivers/STM32F4xx_HAL_Driver/Src/stm32f4xx_hal_tim.c ****   [..]
 166:Drivers/STM32F4xx_HAL_Driver/Src/stm32f4xx_hal_tim.c ****       When The compilation define USE_HAL_TIM_REGISTER_CALLBACKS is set to 0 or
 167:Drivers/STM32F4xx_HAL_Driver/Src/stm32f4xx_hal_tim.c ****       not defined, the callback registration feature is not available and all callbacks
 168:Drivers/STM32F4xx_HAL_Driver/Src/stm32f4xx_hal_tim.c ****       are set to the corresponding weak functions.
 169:Drivers/STM32F4xx_HAL_Driver/Src/stm32f4xx_hal_tim.c **** 
 170:Drivers/STM32F4xx_HAL_Driver/Src/stm32f4xx_hal_tim.c ****   @endverbatim
 171:Drivers/STM32F4xx_HAL_Driver/Src/stm32f4xx_hal_tim.c ****   ******************************************************************************
 172:Drivers/STM32F4xx_HAL_Driver/Src/stm32f4xx_hal_tim.c ****   * @attention
 173:Drivers/STM32F4xx_HAL_Driver/Src/stm32f4xx_hal_tim.c ****   *
 174:Drivers/STM32F4xx_HAL_Driver/Src/stm32f4xx_hal_tim.c ****   * <h2><center>&copy; Copyright (c) 2016 STMicroelectronics.
 175:Drivers/STM32F4xx_HAL_Driver/Src/stm32f4xx_hal_tim.c ****   * All rights reserved.</center></h2>
 176:Drivers/STM32F4xx_HAL_Driver/Src/stm32f4xx_hal_tim.c ****   *
 177:Drivers/STM32F4xx_HAL_Driver/Src/stm32f4xx_hal_tim.c ****   * This software component is licensed by ST under BSD 3-Clause license,
 178:Drivers/STM32F4xx_HAL_Driver/Src/stm32f4xx_hal_tim.c ****   * the "License"; You may not use this file except in compliance with the
 179:Drivers/STM32F4xx_HAL_Driver/Src/stm32f4xx_hal_tim.c ****   * License. You may obtain a copy of the License at:
 180:Drivers/STM32F4xx_HAL_Driver/Src/stm32f4xx_hal_tim.c ****   *                        opensource.org/licenses/BSD-3-Clause
 181:Drivers/STM32F4xx_HAL_Driver/Src/stm32f4xx_hal_tim.c ****   *
 182:Drivers/STM32F4xx_HAL_Driver/Src/stm32f4xx_hal_tim.c ****   ******************************************************************************
 183:Drivers/STM32F4xx_HAL_Driver/Src/stm32f4xx_hal_tim.c ****   */
 184:Drivers/STM32F4xx_HAL_Driver/Src/stm32f4xx_hal_tim.c **** 
 185:Drivers/STM32F4xx_HAL_Driver/Src/stm32f4xx_hal_tim.c **** /* Includes ------------------------------------------------------------------*/
 186:Drivers/STM32F4xx_HAL_Driver/Src/stm32f4xx_hal_tim.c **** #include "stm32f4xx_hal.h"
 187:Drivers/STM32F4xx_HAL_Driver/Src/stm32f4xx_hal_tim.c **** 
 188:Drivers/STM32F4xx_HAL_Driver/Src/stm32f4xx_hal_tim.c **** /** @addtogroup STM32F4xx_HAL_Driver
 189:Drivers/STM32F4xx_HAL_Driver/Src/stm32f4xx_hal_tim.c ****   * @{
 190:Drivers/STM32F4xx_HAL_Driver/Src/stm32f4xx_hal_tim.c ****   */
 191:Drivers/STM32F4xx_HAL_Driver/Src/stm32f4xx_hal_tim.c **** 
 192:Drivers/STM32F4xx_HAL_Driver/Src/stm32f4xx_hal_tim.c **** /** @defgroup TIM TIM
 193:Drivers/STM32F4xx_HAL_Driver/Src/stm32f4xx_hal_tim.c ****   * @brief TIM HAL module driver
 194:Drivers/STM32F4xx_HAL_Driver/Src/stm32f4xx_hal_tim.c ****   * @{
 195:Drivers/STM32F4xx_HAL_Driver/Src/stm32f4xx_hal_tim.c ****   */
 196:Drivers/STM32F4xx_HAL_Driver/Src/stm32f4xx_hal_tim.c **** 
 197:Drivers/STM32F4xx_HAL_Driver/Src/stm32f4xx_hal_tim.c **** #ifdef HAL_TIM_MODULE_ENABLED
 198:Drivers/STM32F4xx_HAL_Driver/Src/stm32f4xx_hal_tim.c **** 
 199:Drivers/STM32F4xx_HAL_Driver/Src/stm32f4xx_hal_tim.c **** /* Private typedef -----------------------------------------------------------*/
 200:Drivers/STM32F4xx_HAL_Driver/Src/stm32f4xx_hal_tim.c **** /* Private define ------------------------------------------------------------*/
 201:Drivers/STM32F4xx_HAL_Driver/Src/stm32f4xx_hal_tim.c **** /* Private macro -------------------------------------------------------------*/
ARM GAS  /tmp/ccg0QfjD.s 			page 5


 202:Drivers/STM32F4xx_HAL_Driver/Src/stm32f4xx_hal_tim.c **** /* Private variables ---------------------------------------------------------*/
 203:Drivers/STM32F4xx_HAL_Driver/Src/stm32f4xx_hal_tim.c **** /* Private function prototypes -----------------------------------------------*/
 204:Drivers/STM32F4xx_HAL_Driver/Src/stm32f4xx_hal_tim.c **** /** @addtogroup TIM_Private_Functions
 205:Drivers/STM32F4xx_HAL_Driver/Src/stm32f4xx_hal_tim.c ****   * @{
 206:Drivers/STM32F4xx_HAL_Driver/Src/stm32f4xx_hal_tim.c ****   */
 207:Drivers/STM32F4xx_HAL_Driver/Src/stm32f4xx_hal_tim.c **** static void TIM_OC1_SetConfig(TIM_TypeDef *TIMx, TIM_OC_InitTypeDef *OC_Config);
 208:Drivers/STM32F4xx_HAL_Driver/Src/stm32f4xx_hal_tim.c **** static void TIM_OC3_SetConfig(TIM_TypeDef *TIMx, TIM_OC_InitTypeDef *OC_Config);
 209:Drivers/STM32F4xx_HAL_Driver/Src/stm32f4xx_hal_tim.c **** static void TIM_OC4_SetConfig(TIM_TypeDef *TIMx, TIM_OC_InitTypeDef *OC_Config);
 210:Drivers/STM32F4xx_HAL_Driver/Src/stm32f4xx_hal_tim.c **** static void TIM_TI1_ConfigInputStage(TIM_TypeDef *TIMx, uint32_t TIM_ICPolarity, uint32_t TIM_ICFil
 211:Drivers/STM32F4xx_HAL_Driver/Src/stm32f4xx_hal_tim.c **** static void TIM_TI2_SetConfig(TIM_TypeDef *TIMx, uint32_t TIM_ICPolarity, uint32_t TIM_ICSelection,
 212:Drivers/STM32F4xx_HAL_Driver/Src/stm32f4xx_hal_tim.c ****                               uint32_t TIM_ICFilter);
 213:Drivers/STM32F4xx_HAL_Driver/Src/stm32f4xx_hal_tim.c **** static void TIM_TI2_ConfigInputStage(TIM_TypeDef *TIMx, uint32_t TIM_ICPolarity, uint32_t TIM_ICFil
 214:Drivers/STM32F4xx_HAL_Driver/Src/stm32f4xx_hal_tim.c **** static void TIM_TI3_SetConfig(TIM_TypeDef *TIMx, uint32_t TIM_ICPolarity, uint32_t TIM_ICSelection,
 215:Drivers/STM32F4xx_HAL_Driver/Src/stm32f4xx_hal_tim.c ****                               uint32_t TIM_ICFilter);
 216:Drivers/STM32F4xx_HAL_Driver/Src/stm32f4xx_hal_tim.c **** static void TIM_TI4_SetConfig(TIM_TypeDef *TIMx, uint32_t TIM_ICPolarity, uint32_t TIM_ICSelection,
 217:Drivers/STM32F4xx_HAL_Driver/Src/stm32f4xx_hal_tim.c ****                               uint32_t TIM_ICFilter);
 218:Drivers/STM32F4xx_HAL_Driver/Src/stm32f4xx_hal_tim.c **** static void TIM_ITRx_SetConfig(TIM_TypeDef *TIMx, uint32_t InputTriggerSource);
 219:Drivers/STM32F4xx_HAL_Driver/Src/stm32f4xx_hal_tim.c **** static void TIM_DMAPeriodElapsedCplt(DMA_HandleTypeDef *hdma);
 220:Drivers/STM32F4xx_HAL_Driver/Src/stm32f4xx_hal_tim.c **** static void TIM_DMAPeriodElapsedHalfCplt(DMA_HandleTypeDef *hdma);
 221:Drivers/STM32F4xx_HAL_Driver/Src/stm32f4xx_hal_tim.c **** static void TIM_DMATriggerCplt(DMA_HandleTypeDef *hdma);
 222:Drivers/STM32F4xx_HAL_Driver/Src/stm32f4xx_hal_tim.c **** static void TIM_DMATriggerHalfCplt(DMA_HandleTypeDef *hdma);
 223:Drivers/STM32F4xx_HAL_Driver/Src/stm32f4xx_hal_tim.c **** static HAL_StatusTypeDef TIM_SlaveTimer_SetConfig(TIM_HandleTypeDef *htim,
 224:Drivers/STM32F4xx_HAL_Driver/Src/stm32f4xx_hal_tim.c ****                                                   TIM_SlaveConfigTypeDef *sSlaveConfig);
 225:Drivers/STM32F4xx_HAL_Driver/Src/stm32f4xx_hal_tim.c **** /**
 226:Drivers/STM32F4xx_HAL_Driver/Src/stm32f4xx_hal_tim.c ****   * @}
 227:Drivers/STM32F4xx_HAL_Driver/Src/stm32f4xx_hal_tim.c ****   */
 228:Drivers/STM32F4xx_HAL_Driver/Src/stm32f4xx_hal_tim.c **** /* Exported functions --------------------------------------------------------*/
 229:Drivers/STM32F4xx_HAL_Driver/Src/stm32f4xx_hal_tim.c **** 
 230:Drivers/STM32F4xx_HAL_Driver/Src/stm32f4xx_hal_tim.c **** /** @defgroup TIM_Exported_Functions TIM Exported Functions
 231:Drivers/STM32F4xx_HAL_Driver/Src/stm32f4xx_hal_tim.c ****   * @{
 232:Drivers/STM32F4xx_HAL_Driver/Src/stm32f4xx_hal_tim.c ****   */
 233:Drivers/STM32F4xx_HAL_Driver/Src/stm32f4xx_hal_tim.c **** 
 234:Drivers/STM32F4xx_HAL_Driver/Src/stm32f4xx_hal_tim.c **** /** @defgroup TIM_Exported_Functions_Group1 TIM Time Base functions
 235:Drivers/STM32F4xx_HAL_Driver/Src/stm32f4xx_hal_tim.c ****   *  @brief    Time Base functions
 236:Drivers/STM32F4xx_HAL_Driver/Src/stm32f4xx_hal_tim.c ****   *
 237:Drivers/STM32F4xx_HAL_Driver/Src/stm32f4xx_hal_tim.c **** @verbatim
 238:Drivers/STM32F4xx_HAL_Driver/Src/stm32f4xx_hal_tim.c ****   ==============================================================================
 239:Drivers/STM32F4xx_HAL_Driver/Src/stm32f4xx_hal_tim.c ****               ##### Time Base functions #####
 240:Drivers/STM32F4xx_HAL_Driver/Src/stm32f4xx_hal_tim.c ****   ==============================================================================
 241:Drivers/STM32F4xx_HAL_Driver/Src/stm32f4xx_hal_tim.c ****   [..]
 242:Drivers/STM32F4xx_HAL_Driver/Src/stm32f4xx_hal_tim.c ****     This section provides functions allowing to:
 243:Drivers/STM32F4xx_HAL_Driver/Src/stm32f4xx_hal_tim.c ****     (+) Initialize and configure the TIM base.
 244:Drivers/STM32F4xx_HAL_Driver/Src/stm32f4xx_hal_tim.c ****     (+) De-initialize the TIM base.
 245:Drivers/STM32F4xx_HAL_Driver/Src/stm32f4xx_hal_tim.c ****     (+) Start the Time Base.
 246:Drivers/STM32F4xx_HAL_Driver/Src/stm32f4xx_hal_tim.c ****     (+) Stop the Time Base.
 247:Drivers/STM32F4xx_HAL_Driver/Src/stm32f4xx_hal_tim.c ****     (+) Start the Time Base and enable interrupt.
 248:Drivers/STM32F4xx_HAL_Driver/Src/stm32f4xx_hal_tim.c ****     (+) Stop the Time Base and disable interrupt.
 249:Drivers/STM32F4xx_HAL_Driver/Src/stm32f4xx_hal_tim.c ****     (+) Start the Time Base and enable DMA transfer.
 250:Drivers/STM32F4xx_HAL_Driver/Src/stm32f4xx_hal_tim.c ****     (+) Stop the Time Base and disable DMA transfer.
 251:Drivers/STM32F4xx_HAL_Driver/Src/stm32f4xx_hal_tim.c **** 
 252:Drivers/STM32F4xx_HAL_Driver/Src/stm32f4xx_hal_tim.c **** @endverbatim
 253:Drivers/STM32F4xx_HAL_Driver/Src/stm32f4xx_hal_tim.c ****   * @{
 254:Drivers/STM32F4xx_HAL_Driver/Src/stm32f4xx_hal_tim.c ****   */
 255:Drivers/STM32F4xx_HAL_Driver/Src/stm32f4xx_hal_tim.c **** /**
 256:Drivers/STM32F4xx_HAL_Driver/Src/stm32f4xx_hal_tim.c ****   * @brief  Initializes the TIM Time base Unit according to the specified
 257:Drivers/STM32F4xx_HAL_Driver/Src/stm32f4xx_hal_tim.c ****   *         parameters in the TIM_HandleTypeDef and initialize the associated handle.
 258:Drivers/STM32F4xx_HAL_Driver/Src/stm32f4xx_hal_tim.c ****   * @note   Switching from Center Aligned counter mode to Edge counter mode (or reverse)
ARM GAS  /tmp/ccg0QfjD.s 			page 6


 259:Drivers/STM32F4xx_HAL_Driver/Src/stm32f4xx_hal_tim.c ****   *         requires a timer reset to avoid unexpected direction
 260:Drivers/STM32F4xx_HAL_Driver/Src/stm32f4xx_hal_tim.c ****   *         due to DIR bit readonly in center aligned mode.
 261:Drivers/STM32F4xx_HAL_Driver/Src/stm32f4xx_hal_tim.c ****   *         Ex: call @ref HAL_TIM_Base_DeInit() before HAL_TIM_Base_Init()
 262:Drivers/STM32F4xx_HAL_Driver/Src/stm32f4xx_hal_tim.c ****   * @param  htim TIM Base handle
 263:Drivers/STM32F4xx_HAL_Driver/Src/stm32f4xx_hal_tim.c ****   * @retval HAL status
 264:Drivers/STM32F4xx_HAL_Driver/Src/stm32f4xx_hal_tim.c ****   */
 265:Drivers/STM32F4xx_HAL_Driver/Src/stm32f4xx_hal_tim.c **** HAL_StatusTypeDef HAL_TIM_Base_Init(TIM_HandleTypeDef *htim)
 266:Drivers/STM32F4xx_HAL_Driver/Src/stm32f4xx_hal_tim.c **** {
  29              		.loc 1 266 1
  30              		.cfi_startproc
  31              		@ args = 0, pretend = 0, frame = 8
  32              		@ frame_needed = 1, uses_anonymous_args = 0
  33 0000 80B5     		push	{r7, lr}
  34              	.LCFI0:
  35              		.cfi_def_cfa_offset 8
  36              		.cfi_offset 7, -8
  37              		.cfi_offset 14, -4
  38 0002 82B0     		sub	sp, sp, #8
  39              	.LCFI1:
  40              		.cfi_def_cfa_offset 16
  41 0004 00AF     		add	r7, sp, #0
  42              	.LCFI2:
  43              		.cfi_def_cfa_register 7
  44 0006 7860     		str	r0, [r7, #4]
 267:Drivers/STM32F4xx_HAL_Driver/Src/stm32f4xx_hal_tim.c ****   /* Check the TIM handle allocation */
 268:Drivers/STM32F4xx_HAL_Driver/Src/stm32f4xx_hal_tim.c ****   if (htim == NULL)
  45              		.loc 1 268 6
  46 0008 7B68     		ldr	r3, [r7, #4]
  47 000a 002B     		cmp	r3, #0
  48 000c 01D1     		bne	.L2
 269:Drivers/STM32F4xx_HAL_Driver/Src/stm32f4xx_hal_tim.c ****   {
 270:Drivers/STM32F4xx_HAL_Driver/Src/stm32f4xx_hal_tim.c ****     return HAL_ERROR;
  49              		.loc 1 270 12
  50 000e 0123     		movs	r3, #1
  51 0010 1DE0     		b	.L3
  52              	.L2:
 271:Drivers/STM32F4xx_HAL_Driver/Src/stm32f4xx_hal_tim.c ****   }
 272:Drivers/STM32F4xx_HAL_Driver/Src/stm32f4xx_hal_tim.c **** 
 273:Drivers/STM32F4xx_HAL_Driver/Src/stm32f4xx_hal_tim.c ****   /* Check the parameters */
 274:Drivers/STM32F4xx_HAL_Driver/Src/stm32f4xx_hal_tim.c ****   assert_param(IS_TIM_INSTANCE(htim->Instance));
 275:Drivers/STM32F4xx_HAL_Driver/Src/stm32f4xx_hal_tim.c ****   assert_param(IS_TIM_COUNTER_MODE(htim->Init.CounterMode));
 276:Drivers/STM32F4xx_HAL_Driver/Src/stm32f4xx_hal_tim.c ****   assert_param(IS_TIM_CLOCKDIVISION_DIV(htim->Init.ClockDivision));
 277:Drivers/STM32F4xx_HAL_Driver/Src/stm32f4xx_hal_tim.c ****   assert_param(IS_TIM_AUTORELOAD_PRELOAD(htim->Init.AutoReloadPreload));
 278:Drivers/STM32F4xx_HAL_Driver/Src/stm32f4xx_hal_tim.c **** 
 279:Drivers/STM32F4xx_HAL_Driver/Src/stm32f4xx_hal_tim.c ****   if (htim->State == HAL_TIM_STATE_RESET)
  53              		.loc 1 279 11
  54 0012 7B68     		ldr	r3, [r7, #4]
  55 0014 93F83D30 		ldrb	r3, [r3, #61]
  56 0018 DBB2     		uxtb	r3, r3
  57              		.loc 1 279 6
  58 001a 002B     		cmp	r3, #0
  59 001c 06D1     		bne	.L4
 280:Drivers/STM32F4xx_HAL_Driver/Src/stm32f4xx_hal_tim.c ****   {
 281:Drivers/STM32F4xx_HAL_Driver/Src/stm32f4xx_hal_tim.c ****     /* Allocate lock resource and initialize it */
 282:Drivers/STM32F4xx_HAL_Driver/Src/stm32f4xx_hal_tim.c ****     htim->Lock = HAL_UNLOCKED;
  60              		.loc 1 282 16
  61 001e 7B68     		ldr	r3, [r7, #4]
ARM GAS  /tmp/ccg0QfjD.s 			page 7


  62 0020 0022     		movs	r2, #0
  63 0022 83F83C20 		strb	r2, [r3, #60]
 283:Drivers/STM32F4xx_HAL_Driver/Src/stm32f4xx_hal_tim.c **** 
 284:Drivers/STM32F4xx_HAL_Driver/Src/stm32f4xx_hal_tim.c **** #if (USE_HAL_TIM_REGISTER_CALLBACKS == 1)
 285:Drivers/STM32F4xx_HAL_Driver/Src/stm32f4xx_hal_tim.c ****     /* Reset interrupt callbacks to legacy weak callbacks */
 286:Drivers/STM32F4xx_HAL_Driver/Src/stm32f4xx_hal_tim.c ****     TIM_ResetCallback(htim);
 287:Drivers/STM32F4xx_HAL_Driver/Src/stm32f4xx_hal_tim.c **** 
 288:Drivers/STM32F4xx_HAL_Driver/Src/stm32f4xx_hal_tim.c ****     if (htim->Base_MspInitCallback == NULL)
 289:Drivers/STM32F4xx_HAL_Driver/Src/stm32f4xx_hal_tim.c ****     {
 290:Drivers/STM32F4xx_HAL_Driver/Src/stm32f4xx_hal_tim.c ****       htim->Base_MspInitCallback = HAL_TIM_Base_MspInit;
 291:Drivers/STM32F4xx_HAL_Driver/Src/stm32f4xx_hal_tim.c ****     }
 292:Drivers/STM32F4xx_HAL_Driver/Src/stm32f4xx_hal_tim.c ****     /* Init the low level hardware : GPIO, CLOCK, NVIC */
 293:Drivers/STM32F4xx_HAL_Driver/Src/stm32f4xx_hal_tim.c ****     htim->Base_MspInitCallback(htim);
 294:Drivers/STM32F4xx_HAL_Driver/Src/stm32f4xx_hal_tim.c **** #else
 295:Drivers/STM32F4xx_HAL_Driver/Src/stm32f4xx_hal_tim.c ****     /* Init the low level hardware : GPIO, CLOCK, NVIC */
 296:Drivers/STM32F4xx_HAL_Driver/Src/stm32f4xx_hal_tim.c ****     HAL_TIM_Base_MspInit(htim);
  64              		.loc 1 296 5
  65 0026 7868     		ldr	r0, [r7, #4]
  66 0028 FFF7FEFF 		bl	HAL_TIM_Base_MspInit
  67              	.L4:
 297:Drivers/STM32F4xx_HAL_Driver/Src/stm32f4xx_hal_tim.c **** #endif /* USE_HAL_TIM_REGISTER_CALLBACKS */
 298:Drivers/STM32F4xx_HAL_Driver/Src/stm32f4xx_hal_tim.c ****   }
 299:Drivers/STM32F4xx_HAL_Driver/Src/stm32f4xx_hal_tim.c **** 
 300:Drivers/STM32F4xx_HAL_Driver/Src/stm32f4xx_hal_tim.c ****   /* Set the TIM state */
 301:Drivers/STM32F4xx_HAL_Driver/Src/stm32f4xx_hal_tim.c ****   htim->State = HAL_TIM_STATE_BUSY;
  68              		.loc 1 301 15
  69 002c 7B68     		ldr	r3, [r7, #4]
  70 002e 0222     		movs	r2, #2
  71 0030 83F83D20 		strb	r2, [r3, #61]
 302:Drivers/STM32F4xx_HAL_Driver/Src/stm32f4xx_hal_tim.c **** 
 303:Drivers/STM32F4xx_HAL_Driver/Src/stm32f4xx_hal_tim.c ****   /* Set the Time Base configuration */
 304:Drivers/STM32F4xx_HAL_Driver/Src/stm32f4xx_hal_tim.c ****   TIM_Base_SetConfig(htim->Instance, &htim->Init);
  72              		.loc 1 304 3
  73 0034 7B68     		ldr	r3, [r7, #4]
  74 0036 1A68     		ldr	r2, [r3]
  75 0038 7B68     		ldr	r3, [r7, #4]
  76 003a 0433     		adds	r3, r3, #4
  77 003c 1946     		mov	r1, r3
  78 003e 1046     		mov	r0, r2
  79 0040 FFF7FEFF 		bl	TIM_Base_SetConfig
 305:Drivers/STM32F4xx_HAL_Driver/Src/stm32f4xx_hal_tim.c **** 
 306:Drivers/STM32F4xx_HAL_Driver/Src/stm32f4xx_hal_tim.c ****   /* Initialize the TIM state*/
 307:Drivers/STM32F4xx_HAL_Driver/Src/stm32f4xx_hal_tim.c ****   htim->State = HAL_TIM_STATE_READY;
  80              		.loc 1 307 15
  81 0044 7B68     		ldr	r3, [r7, #4]
  82 0046 0122     		movs	r2, #1
  83 0048 83F83D20 		strb	r2, [r3, #61]
 308:Drivers/STM32F4xx_HAL_Driver/Src/stm32f4xx_hal_tim.c **** 
 309:Drivers/STM32F4xx_HAL_Driver/Src/stm32f4xx_hal_tim.c ****   return HAL_OK;
  84              		.loc 1 309 10
  85 004c 0023     		movs	r3, #0
  86              	.L3:
 310:Drivers/STM32F4xx_HAL_Driver/Src/stm32f4xx_hal_tim.c **** }
  87              		.loc 1 310 1
  88 004e 1846     		mov	r0, r3
  89 0050 0837     		adds	r7, r7, #8
  90              	.LCFI3:
ARM GAS  /tmp/ccg0QfjD.s 			page 8


  91              		.cfi_def_cfa_offset 8
  92 0052 BD46     		mov	sp, r7
  93              	.LCFI4:
  94              		.cfi_def_cfa_register 13
  95              		@ sp needed
  96 0054 80BD     		pop	{r7, pc}
  97              		.cfi_endproc
  98              	.LFE130:
 100              		.section	.text.HAL_TIM_Base_DeInit,"ax",%progbits
 101              		.align	1
 102              		.global	HAL_TIM_Base_DeInit
 103              		.syntax unified
 104              		.thumb
 105              		.thumb_func
 106              		.fpu fpv4-sp-d16
 108              	HAL_TIM_Base_DeInit:
 109              	.LFB131:
 311:Drivers/STM32F4xx_HAL_Driver/Src/stm32f4xx_hal_tim.c **** 
 312:Drivers/STM32F4xx_HAL_Driver/Src/stm32f4xx_hal_tim.c **** /**
 313:Drivers/STM32F4xx_HAL_Driver/Src/stm32f4xx_hal_tim.c ****   * @brief  DeInitializes the TIM Base peripheral
 314:Drivers/STM32F4xx_HAL_Driver/Src/stm32f4xx_hal_tim.c ****   * @param  htim TIM Base handle
 315:Drivers/STM32F4xx_HAL_Driver/Src/stm32f4xx_hal_tim.c ****   * @retval HAL status
 316:Drivers/STM32F4xx_HAL_Driver/Src/stm32f4xx_hal_tim.c ****   */
 317:Drivers/STM32F4xx_HAL_Driver/Src/stm32f4xx_hal_tim.c **** HAL_StatusTypeDef HAL_TIM_Base_DeInit(TIM_HandleTypeDef *htim)
 318:Drivers/STM32F4xx_HAL_Driver/Src/stm32f4xx_hal_tim.c **** {
 110              		.loc 1 318 1
 111              		.cfi_startproc
 112              		@ args = 0, pretend = 0, frame = 8
 113              		@ frame_needed = 1, uses_anonymous_args = 0
 114 0000 80B5     		push	{r7, lr}
 115              	.LCFI5:
 116              		.cfi_def_cfa_offset 8
 117              		.cfi_offset 7, -8
 118              		.cfi_offset 14, -4
 119 0002 82B0     		sub	sp, sp, #8
 120              	.LCFI6:
 121              		.cfi_def_cfa_offset 16
 122 0004 00AF     		add	r7, sp, #0
 123              	.LCFI7:
 124              		.cfi_def_cfa_register 7
 125 0006 7860     		str	r0, [r7, #4]
 319:Drivers/STM32F4xx_HAL_Driver/Src/stm32f4xx_hal_tim.c ****   /* Check the parameters */
 320:Drivers/STM32F4xx_HAL_Driver/Src/stm32f4xx_hal_tim.c ****   assert_param(IS_TIM_INSTANCE(htim->Instance));
 321:Drivers/STM32F4xx_HAL_Driver/Src/stm32f4xx_hal_tim.c **** 
 322:Drivers/STM32F4xx_HAL_Driver/Src/stm32f4xx_hal_tim.c ****   htim->State = HAL_TIM_STATE_BUSY;
 126              		.loc 1 322 15
 127 0008 7B68     		ldr	r3, [r7, #4]
 128 000a 0222     		movs	r2, #2
 129 000c 83F83D20 		strb	r2, [r3, #61]
 323:Drivers/STM32F4xx_HAL_Driver/Src/stm32f4xx_hal_tim.c **** 
 324:Drivers/STM32F4xx_HAL_Driver/Src/stm32f4xx_hal_tim.c ****   /* Disable the TIM Peripheral Clock */
 325:Drivers/STM32F4xx_HAL_Driver/Src/stm32f4xx_hal_tim.c ****   __HAL_TIM_DISABLE(htim);
 130              		.loc 1 325 3
 131 0010 7B68     		ldr	r3, [r7, #4]
 132 0012 1B68     		ldr	r3, [r3]
 133 0014 1A6A     		ldr	r2, [r3, #32]
 134 0016 41F21113 		movw	r3, #4369
ARM GAS  /tmp/ccg0QfjD.s 			page 9


 135 001a 1340     		ands	r3, r3, r2
 136 001c 002B     		cmp	r3, #0
 137 001e 0FD1     		bne	.L6
 138              		.loc 1 325 3 is_stmt 0 discriminator 1
 139 0020 7B68     		ldr	r3, [r7, #4]
 140 0022 1B68     		ldr	r3, [r3]
 141 0024 1A6A     		ldr	r2, [r3, #32]
 142 0026 40F24443 		movw	r3, #1092
 143 002a 1340     		ands	r3, r3, r2
 144 002c 002B     		cmp	r3, #0
 145 002e 07D1     		bne	.L6
 146              		.loc 1 325 3 discriminator 2
 147 0030 7B68     		ldr	r3, [r7, #4]
 148 0032 1B68     		ldr	r3, [r3]
 149 0034 1A68     		ldr	r2, [r3]
 150 0036 7B68     		ldr	r3, [r7, #4]
 151 0038 1B68     		ldr	r3, [r3]
 152 003a 22F00102 		bic	r2, r2, #1
 153 003e 1A60     		str	r2, [r3]
 154              	.L6:
 326:Drivers/STM32F4xx_HAL_Driver/Src/stm32f4xx_hal_tim.c **** 
 327:Drivers/STM32F4xx_HAL_Driver/Src/stm32f4xx_hal_tim.c **** #if (USE_HAL_TIM_REGISTER_CALLBACKS == 1)
 328:Drivers/STM32F4xx_HAL_Driver/Src/stm32f4xx_hal_tim.c ****   if (htim->Base_MspDeInitCallback == NULL)
 329:Drivers/STM32F4xx_HAL_Driver/Src/stm32f4xx_hal_tim.c ****   {
 330:Drivers/STM32F4xx_HAL_Driver/Src/stm32f4xx_hal_tim.c ****     htim->Base_MspDeInitCallback = HAL_TIM_Base_MspDeInit;
 331:Drivers/STM32F4xx_HAL_Driver/Src/stm32f4xx_hal_tim.c ****   }
 332:Drivers/STM32F4xx_HAL_Driver/Src/stm32f4xx_hal_tim.c ****   /* DeInit the low level hardware */
 333:Drivers/STM32F4xx_HAL_Driver/Src/stm32f4xx_hal_tim.c ****   htim->Base_MspDeInitCallback(htim);
 334:Drivers/STM32F4xx_HAL_Driver/Src/stm32f4xx_hal_tim.c **** #else
 335:Drivers/STM32F4xx_HAL_Driver/Src/stm32f4xx_hal_tim.c ****   /* DeInit the low level hardware: GPIO, CLOCK, NVIC */
 336:Drivers/STM32F4xx_HAL_Driver/Src/stm32f4xx_hal_tim.c ****   HAL_TIM_Base_MspDeInit(htim);
 155              		.loc 1 336 3 is_stmt 1
 156 0040 7868     		ldr	r0, [r7, #4]
 157 0042 FFF7FEFF 		bl	HAL_TIM_Base_MspDeInit
 337:Drivers/STM32F4xx_HAL_Driver/Src/stm32f4xx_hal_tim.c **** #endif /* USE_HAL_TIM_REGISTER_CALLBACKS */
 338:Drivers/STM32F4xx_HAL_Driver/Src/stm32f4xx_hal_tim.c **** 
 339:Drivers/STM32F4xx_HAL_Driver/Src/stm32f4xx_hal_tim.c ****   /* Change TIM state */
 340:Drivers/STM32F4xx_HAL_Driver/Src/stm32f4xx_hal_tim.c ****   htim->State = HAL_TIM_STATE_RESET;
 158              		.loc 1 340 15
 159 0046 7B68     		ldr	r3, [r7, #4]
 160 0048 0022     		movs	r2, #0
 161 004a 83F83D20 		strb	r2, [r3, #61]
 341:Drivers/STM32F4xx_HAL_Driver/Src/stm32f4xx_hal_tim.c **** 
 342:Drivers/STM32F4xx_HAL_Driver/Src/stm32f4xx_hal_tim.c ****   /* Release Lock */
 343:Drivers/STM32F4xx_HAL_Driver/Src/stm32f4xx_hal_tim.c ****   __HAL_UNLOCK(htim);
 162              		.loc 1 343 3
 163 004e 7B68     		ldr	r3, [r7, #4]
 164 0050 0022     		movs	r2, #0
 165 0052 83F83C20 		strb	r2, [r3, #60]
 344:Drivers/STM32F4xx_HAL_Driver/Src/stm32f4xx_hal_tim.c **** 
 345:Drivers/STM32F4xx_HAL_Driver/Src/stm32f4xx_hal_tim.c ****   return HAL_OK;
 166              		.loc 1 345 10
 167 0056 0023     		movs	r3, #0
 346:Drivers/STM32F4xx_HAL_Driver/Src/stm32f4xx_hal_tim.c **** }
 168              		.loc 1 346 1
 169 0058 1846     		mov	r0, r3
 170 005a 0837     		adds	r7, r7, #8
ARM GAS  /tmp/ccg0QfjD.s 			page 10


 171              	.LCFI8:
 172              		.cfi_def_cfa_offset 8
 173 005c BD46     		mov	sp, r7
 174              	.LCFI9:
 175              		.cfi_def_cfa_register 13
 176              		@ sp needed
 177 005e 80BD     		pop	{r7, pc}
 178              		.cfi_endproc
 179              	.LFE131:
 181              		.section	.text.HAL_TIM_Base_MspInit,"ax",%progbits
 182              		.align	1
 183              		.weak	HAL_TIM_Base_MspInit
 184              		.syntax unified
 185              		.thumb
 186              		.thumb_func
 187              		.fpu fpv4-sp-d16
 189              	HAL_TIM_Base_MspInit:
 190              	.LFB132:
 347:Drivers/STM32F4xx_HAL_Driver/Src/stm32f4xx_hal_tim.c **** 
 348:Drivers/STM32F4xx_HAL_Driver/Src/stm32f4xx_hal_tim.c **** /**
 349:Drivers/STM32F4xx_HAL_Driver/Src/stm32f4xx_hal_tim.c ****   * @brief  Initializes the TIM Base MSP.
 350:Drivers/STM32F4xx_HAL_Driver/Src/stm32f4xx_hal_tim.c ****   * @param  htim TIM Base handle
 351:Drivers/STM32F4xx_HAL_Driver/Src/stm32f4xx_hal_tim.c ****   * @retval None
 352:Drivers/STM32F4xx_HAL_Driver/Src/stm32f4xx_hal_tim.c ****   */
 353:Drivers/STM32F4xx_HAL_Driver/Src/stm32f4xx_hal_tim.c **** __weak void HAL_TIM_Base_MspInit(TIM_HandleTypeDef *htim)
 354:Drivers/STM32F4xx_HAL_Driver/Src/stm32f4xx_hal_tim.c **** {
 191              		.loc 1 354 1
 192              		.cfi_startproc
 193              		@ args = 0, pretend = 0, frame = 8
 194              		@ frame_needed = 1, uses_anonymous_args = 0
 195              		@ link register save eliminated.
 196 0000 80B4     		push	{r7}
 197              	.LCFI10:
 198              		.cfi_def_cfa_offset 4
 199              		.cfi_offset 7, -4
 200 0002 83B0     		sub	sp, sp, #12
 201              	.LCFI11:
 202              		.cfi_def_cfa_offset 16
 203 0004 00AF     		add	r7, sp, #0
 204              	.LCFI12:
 205              		.cfi_def_cfa_register 7
 206 0006 7860     		str	r0, [r7, #4]
 355:Drivers/STM32F4xx_HAL_Driver/Src/stm32f4xx_hal_tim.c ****   /* Prevent unused argument(s) compilation warning */
 356:Drivers/STM32F4xx_HAL_Driver/Src/stm32f4xx_hal_tim.c ****   UNUSED(htim);
 357:Drivers/STM32F4xx_HAL_Driver/Src/stm32f4xx_hal_tim.c **** 
 358:Drivers/STM32F4xx_HAL_Driver/Src/stm32f4xx_hal_tim.c ****   /* NOTE : This function should not be modified, when the callback is needed,
 359:Drivers/STM32F4xx_HAL_Driver/Src/stm32f4xx_hal_tim.c ****             the HAL_TIM_Base_MspInit could be implemented in the user file
 360:Drivers/STM32F4xx_HAL_Driver/Src/stm32f4xx_hal_tim.c ****    */
 361:Drivers/STM32F4xx_HAL_Driver/Src/stm32f4xx_hal_tim.c **** }
 207              		.loc 1 361 1
 208 0008 00BF     		nop
 209 000a 0C37     		adds	r7, r7, #12
 210              	.LCFI13:
 211              		.cfi_def_cfa_offset 4
 212 000c BD46     		mov	sp, r7
 213              	.LCFI14:
 214              		.cfi_def_cfa_register 13
ARM GAS  /tmp/ccg0QfjD.s 			page 11


 215              		@ sp needed
 216 000e 5DF8047B 		ldr	r7, [sp], #4
 217              	.LCFI15:
 218              		.cfi_restore 7
 219              		.cfi_def_cfa_offset 0
 220 0012 7047     		bx	lr
 221              		.cfi_endproc
 222              	.LFE132:
 224              		.section	.text.HAL_TIM_Base_MspDeInit,"ax",%progbits
 225              		.align	1
 226              		.weak	HAL_TIM_Base_MspDeInit
 227              		.syntax unified
 228              		.thumb
 229              		.thumb_func
 230              		.fpu fpv4-sp-d16
 232              	HAL_TIM_Base_MspDeInit:
 233              	.LFB133:
 362:Drivers/STM32F4xx_HAL_Driver/Src/stm32f4xx_hal_tim.c **** 
 363:Drivers/STM32F4xx_HAL_Driver/Src/stm32f4xx_hal_tim.c **** /**
 364:Drivers/STM32F4xx_HAL_Driver/Src/stm32f4xx_hal_tim.c ****   * @brief  DeInitializes TIM Base MSP.
 365:Drivers/STM32F4xx_HAL_Driver/Src/stm32f4xx_hal_tim.c ****   * @param  htim TIM Base handle
 366:Drivers/STM32F4xx_HAL_Driver/Src/stm32f4xx_hal_tim.c ****   * @retval None
 367:Drivers/STM32F4xx_HAL_Driver/Src/stm32f4xx_hal_tim.c ****   */
 368:Drivers/STM32F4xx_HAL_Driver/Src/stm32f4xx_hal_tim.c **** __weak void HAL_TIM_Base_MspDeInit(TIM_HandleTypeDef *htim)
 369:Drivers/STM32F4xx_HAL_Driver/Src/stm32f4xx_hal_tim.c **** {
 234              		.loc 1 369 1
 235              		.cfi_startproc
 236              		@ args = 0, pretend = 0, frame = 8
 237              		@ frame_needed = 1, uses_anonymous_args = 0
 238              		@ link register save eliminated.
 239 0000 80B4     		push	{r7}
 240              	.LCFI16:
 241              		.cfi_def_cfa_offset 4
 242              		.cfi_offset 7, -4
 243 0002 83B0     		sub	sp, sp, #12
 244              	.LCFI17:
 245              		.cfi_def_cfa_offset 16
 246 0004 00AF     		add	r7, sp, #0
 247              	.LCFI18:
 248              		.cfi_def_cfa_register 7
 249 0006 7860     		str	r0, [r7, #4]
 370:Drivers/STM32F4xx_HAL_Driver/Src/stm32f4xx_hal_tim.c ****   /* Prevent unused argument(s) compilation warning */
 371:Drivers/STM32F4xx_HAL_Driver/Src/stm32f4xx_hal_tim.c ****   UNUSED(htim);
 372:Drivers/STM32F4xx_HAL_Driver/Src/stm32f4xx_hal_tim.c **** 
 373:Drivers/STM32F4xx_HAL_Driver/Src/stm32f4xx_hal_tim.c ****   /* NOTE : This function should not be modified, when the callback is needed,
 374:Drivers/STM32F4xx_HAL_Driver/Src/stm32f4xx_hal_tim.c ****             the HAL_TIM_Base_MspDeInit could be implemented in the user file
 375:Drivers/STM32F4xx_HAL_Driver/Src/stm32f4xx_hal_tim.c ****    */
 376:Drivers/STM32F4xx_HAL_Driver/Src/stm32f4xx_hal_tim.c **** }
 250              		.loc 1 376 1
 251 0008 00BF     		nop
 252 000a 0C37     		adds	r7, r7, #12
 253              	.LCFI19:
 254              		.cfi_def_cfa_offset 4
 255 000c BD46     		mov	sp, r7
 256              	.LCFI20:
 257              		.cfi_def_cfa_register 13
 258              		@ sp needed
ARM GAS  /tmp/ccg0QfjD.s 			page 12


 259 000e 5DF8047B 		ldr	r7, [sp], #4
 260              	.LCFI21:
 261              		.cfi_restore 7
 262              		.cfi_def_cfa_offset 0
 263 0012 7047     		bx	lr
 264              		.cfi_endproc
 265              	.LFE133:
 267              		.section	.text.HAL_TIM_Base_Start,"ax",%progbits
 268              		.align	1
 269              		.global	HAL_TIM_Base_Start
 270              		.syntax unified
 271              		.thumb
 272              		.thumb_func
 273              		.fpu fpv4-sp-d16
 275              	HAL_TIM_Base_Start:
 276              	.LFB134:
 377:Drivers/STM32F4xx_HAL_Driver/Src/stm32f4xx_hal_tim.c **** 
 378:Drivers/STM32F4xx_HAL_Driver/Src/stm32f4xx_hal_tim.c **** 
 379:Drivers/STM32F4xx_HAL_Driver/Src/stm32f4xx_hal_tim.c **** /**
 380:Drivers/STM32F4xx_HAL_Driver/Src/stm32f4xx_hal_tim.c ****   * @brief  Starts the TIM Base generation.
 381:Drivers/STM32F4xx_HAL_Driver/Src/stm32f4xx_hal_tim.c ****   * @param  htim TIM Base handle
 382:Drivers/STM32F4xx_HAL_Driver/Src/stm32f4xx_hal_tim.c ****   * @retval HAL status
 383:Drivers/STM32F4xx_HAL_Driver/Src/stm32f4xx_hal_tim.c ****   */
 384:Drivers/STM32F4xx_HAL_Driver/Src/stm32f4xx_hal_tim.c **** HAL_StatusTypeDef HAL_TIM_Base_Start(TIM_HandleTypeDef *htim)
 385:Drivers/STM32F4xx_HAL_Driver/Src/stm32f4xx_hal_tim.c **** {
 277              		.loc 1 385 1
 278              		.cfi_startproc
 279              		@ args = 0, pretend = 0, frame = 16
 280              		@ frame_needed = 1, uses_anonymous_args = 0
 281              		@ link register save eliminated.
 282 0000 80B4     		push	{r7}
 283              	.LCFI22:
 284              		.cfi_def_cfa_offset 4
 285              		.cfi_offset 7, -4
 286 0002 85B0     		sub	sp, sp, #20
 287              	.LCFI23:
 288              		.cfi_def_cfa_offset 24
 289 0004 00AF     		add	r7, sp, #0
 290              	.LCFI24:
 291              		.cfi_def_cfa_register 7
 292 0006 7860     		str	r0, [r7, #4]
 386:Drivers/STM32F4xx_HAL_Driver/Src/stm32f4xx_hal_tim.c ****   uint32_t tmpsmcr;
 387:Drivers/STM32F4xx_HAL_Driver/Src/stm32f4xx_hal_tim.c **** 
 388:Drivers/STM32F4xx_HAL_Driver/Src/stm32f4xx_hal_tim.c ****   /* Check the parameters */
 389:Drivers/STM32F4xx_HAL_Driver/Src/stm32f4xx_hal_tim.c ****   assert_param(IS_TIM_INSTANCE(htim->Instance));
 390:Drivers/STM32F4xx_HAL_Driver/Src/stm32f4xx_hal_tim.c **** 
 391:Drivers/STM32F4xx_HAL_Driver/Src/stm32f4xx_hal_tim.c ****   /* Set the TIM state */
 392:Drivers/STM32F4xx_HAL_Driver/Src/stm32f4xx_hal_tim.c ****   htim->State = HAL_TIM_STATE_BUSY;
 293              		.loc 1 392 15
 294 0008 7B68     		ldr	r3, [r7, #4]
 295 000a 0222     		movs	r2, #2
 296 000c 83F83D20 		strb	r2, [r3, #61]
 393:Drivers/STM32F4xx_HAL_Driver/Src/stm32f4xx_hal_tim.c **** 
 394:Drivers/STM32F4xx_HAL_Driver/Src/stm32f4xx_hal_tim.c ****   /* Enable the Peripheral, except in trigger mode where enable is automatically done with trigger 
 395:Drivers/STM32F4xx_HAL_Driver/Src/stm32f4xx_hal_tim.c ****   tmpsmcr = htim->Instance->SMCR & TIM_SMCR_SMS;
 297              		.loc 1 395 17
 298 0010 7B68     		ldr	r3, [r7, #4]
ARM GAS  /tmp/ccg0QfjD.s 			page 13


 299 0012 1B68     		ldr	r3, [r3]
 300              		.loc 1 395 27
 301 0014 9B68     		ldr	r3, [r3, #8]
 302              		.loc 1 395 11
 303 0016 03F00703 		and	r3, r3, #7
 304 001a FB60     		str	r3, [r7, #12]
 396:Drivers/STM32F4xx_HAL_Driver/Src/stm32f4xx_hal_tim.c ****   if (!IS_TIM_SLAVEMODE_TRIGGER_ENABLED(tmpsmcr))
 305              		.loc 1 396 6
 306 001c FB68     		ldr	r3, [r7, #12]
 307 001e 062B     		cmp	r3, #6
 308 0020 07D0     		beq	.L11
 397:Drivers/STM32F4xx_HAL_Driver/Src/stm32f4xx_hal_tim.c ****   {
 398:Drivers/STM32F4xx_HAL_Driver/Src/stm32f4xx_hal_tim.c ****     __HAL_TIM_ENABLE(htim);
 309              		.loc 1 398 5
 310 0022 7B68     		ldr	r3, [r7, #4]
 311 0024 1B68     		ldr	r3, [r3]
 312 0026 1A68     		ldr	r2, [r3]
 313 0028 7B68     		ldr	r3, [r7, #4]
 314 002a 1B68     		ldr	r3, [r3]
 315 002c 42F00102 		orr	r2, r2, #1
 316 0030 1A60     		str	r2, [r3]
 317              	.L11:
 399:Drivers/STM32F4xx_HAL_Driver/Src/stm32f4xx_hal_tim.c ****   }
 400:Drivers/STM32F4xx_HAL_Driver/Src/stm32f4xx_hal_tim.c **** 
 401:Drivers/STM32F4xx_HAL_Driver/Src/stm32f4xx_hal_tim.c ****   /* Change the TIM state*/
 402:Drivers/STM32F4xx_HAL_Driver/Src/stm32f4xx_hal_tim.c ****   htim->State = HAL_TIM_STATE_READY;
 318              		.loc 1 402 15
 319 0032 7B68     		ldr	r3, [r7, #4]
 320 0034 0122     		movs	r2, #1
 321 0036 83F83D20 		strb	r2, [r3, #61]
 403:Drivers/STM32F4xx_HAL_Driver/Src/stm32f4xx_hal_tim.c **** 
 404:Drivers/STM32F4xx_HAL_Driver/Src/stm32f4xx_hal_tim.c ****   /* Return function status */
 405:Drivers/STM32F4xx_HAL_Driver/Src/stm32f4xx_hal_tim.c ****   return HAL_OK;
 322              		.loc 1 405 10
 323 003a 0023     		movs	r3, #0
 406:Drivers/STM32F4xx_HAL_Driver/Src/stm32f4xx_hal_tim.c **** }
 324              		.loc 1 406 1
 325 003c 1846     		mov	r0, r3
 326 003e 1437     		adds	r7, r7, #20
 327              	.LCFI25:
 328              		.cfi_def_cfa_offset 4
 329 0040 BD46     		mov	sp, r7
 330              	.LCFI26:
 331              		.cfi_def_cfa_register 13
 332              		@ sp needed
 333 0042 5DF8047B 		ldr	r7, [sp], #4
 334              	.LCFI27:
 335              		.cfi_restore 7
 336              		.cfi_def_cfa_offset 0
 337 0046 7047     		bx	lr
 338              		.cfi_endproc
 339              	.LFE134:
 341              		.section	.text.HAL_TIM_Base_Stop,"ax",%progbits
 342              		.align	1
 343              		.global	HAL_TIM_Base_Stop
 344              		.syntax unified
 345              		.thumb
ARM GAS  /tmp/ccg0QfjD.s 			page 14


 346              		.thumb_func
 347              		.fpu fpv4-sp-d16
 349              	HAL_TIM_Base_Stop:
 350              	.LFB135:
 407:Drivers/STM32F4xx_HAL_Driver/Src/stm32f4xx_hal_tim.c **** 
 408:Drivers/STM32F4xx_HAL_Driver/Src/stm32f4xx_hal_tim.c **** /**
 409:Drivers/STM32F4xx_HAL_Driver/Src/stm32f4xx_hal_tim.c ****   * @brief  Stops the TIM Base generation.
 410:Drivers/STM32F4xx_HAL_Driver/Src/stm32f4xx_hal_tim.c ****   * @param  htim TIM Base handle
 411:Drivers/STM32F4xx_HAL_Driver/Src/stm32f4xx_hal_tim.c ****   * @retval HAL status
 412:Drivers/STM32F4xx_HAL_Driver/Src/stm32f4xx_hal_tim.c ****   */
 413:Drivers/STM32F4xx_HAL_Driver/Src/stm32f4xx_hal_tim.c **** HAL_StatusTypeDef HAL_TIM_Base_Stop(TIM_HandleTypeDef *htim)
 414:Drivers/STM32F4xx_HAL_Driver/Src/stm32f4xx_hal_tim.c **** {
 351              		.loc 1 414 1
 352              		.cfi_startproc
 353              		@ args = 0, pretend = 0, frame = 8
 354              		@ frame_needed = 1, uses_anonymous_args = 0
 355              		@ link register save eliminated.
 356 0000 80B4     		push	{r7}
 357              	.LCFI28:
 358              		.cfi_def_cfa_offset 4
 359              		.cfi_offset 7, -4
 360 0002 83B0     		sub	sp, sp, #12
 361              	.LCFI29:
 362              		.cfi_def_cfa_offset 16
 363 0004 00AF     		add	r7, sp, #0
 364              	.LCFI30:
 365              		.cfi_def_cfa_register 7
 366 0006 7860     		str	r0, [r7, #4]
 415:Drivers/STM32F4xx_HAL_Driver/Src/stm32f4xx_hal_tim.c ****   /* Check the parameters */
 416:Drivers/STM32F4xx_HAL_Driver/Src/stm32f4xx_hal_tim.c ****   assert_param(IS_TIM_INSTANCE(htim->Instance));
 417:Drivers/STM32F4xx_HAL_Driver/Src/stm32f4xx_hal_tim.c **** 
 418:Drivers/STM32F4xx_HAL_Driver/Src/stm32f4xx_hal_tim.c ****   /* Set the TIM state */
 419:Drivers/STM32F4xx_HAL_Driver/Src/stm32f4xx_hal_tim.c ****   htim->State = HAL_TIM_STATE_BUSY;
 367              		.loc 1 419 15
 368 0008 7B68     		ldr	r3, [r7, #4]
 369 000a 0222     		movs	r2, #2
 370 000c 83F83D20 		strb	r2, [r3, #61]
 420:Drivers/STM32F4xx_HAL_Driver/Src/stm32f4xx_hal_tim.c **** 
 421:Drivers/STM32F4xx_HAL_Driver/Src/stm32f4xx_hal_tim.c ****   /* Disable the Peripheral */
 422:Drivers/STM32F4xx_HAL_Driver/Src/stm32f4xx_hal_tim.c ****   __HAL_TIM_DISABLE(htim);
 371              		.loc 1 422 3
 372 0010 7B68     		ldr	r3, [r7, #4]
 373 0012 1B68     		ldr	r3, [r3]
 374 0014 1A6A     		ldr	r2, [r3, #32]
 375 0016 41F21113 		movw	r3, #4369
 376 001a 1340     		ands	r3, r3, r2
 377 001c 002B     		cmp	r3, #0
 378 001e 0FD1     		bne	.L14
 379              		.loc 1 422 3 is_stmt 0 discriminator 1
 380 0020 7B68     		ldr	r3, [r7, #4]
 381 0022 1B68     		ldr	r3, [r3]
 382 0024 1A6A     		ldr	r2, [r3, #32]
 383 0026 40F24443 		movw	r3, #1092
 384 002a 1340     		ands	r3, r3, r2
 385 002c 002B     		cmp	r3, #0
 386 002e 07D1     		bne	.L14
 387              		.loc 1 422 3 discriminator 2
ARM GAS  /tmp/ccg0QfjD.s 			page 15


 388 0030 7B68     		ldr	r3, [r7, #4]
 389 0032 1B68     		ldr	r3, [r3]
 390 0034 1A68     		ldr	r2, [r3]
 391 0036 7B68     		ldr	r3, [r7, #4]
 392 0038 1B68     		ldr	r3, [r3]
 393 003a 22F00102 		bic	r2, r2, #1
 394 003e 1A60     		str	r2, [r3]
 395              	.L14:
 423:Drivers/STM32F4xx_HAL_Driver/Src/stm32f4xx_hal_tim.c **** 
 424:Drivers/STM32F4xx_HAL_Driver/Src/stm32f4xx_hal_tim.c ****   /* Change the TIM state*/
 425:Drivers/STM32F4xx_HAL_Driver/Src/stm32f4xx_hal_tim.c ****   htim->State = HAL_TIM_STATE_READY;
 396              		.loc 1 425 15 is_stmt 1
 397 0040 7B68     		ldr	r3, [r7, #4]
 398 0042 0122     		movs	r2, #1
 399 0044 83F83D20 		strb	r2, [r3, #61]
 426:Drivers/STM32F4xx_HAL_Driver/Src/stm32f4xx_hal_tim.c **** 
 427:Drivers/STM32F4xx_HAL_Driver/Src/stm32f4xx_hal_tim.c ****   /* Return function status */
 428:Drivers/STM32F4xx_HAL_Driver/Src/stm32f4xx_hal_tim.c ****   return HAL_OK;
 400              		.loc 1 428 10
 401 0048 0023     		movs	r3, #0
 429:Drivers/STM32F4xx_HAL_Driver/Src/stm32f4xx_hal_tim.c **** }
 402              		.loc 1 429 1
 403 004a 1846     		mov	r0, r3
 404 004c 0C37     		adds	r7, r7, #12
 405              	.LCFI31:
 406              		.cfi_def_cfa_offset 4
 407 004e BD46     		mov	sp, r7
 408              	.LCFI32:
 409              		.cfi_def_cfa_register 13
 410              		@ sp needed
 411 0050 5DF8047B 		ldr	r7, [sp], #4
 412              	.LCFI33:
 413              		.cfi_restore 7
 414              		.cfi_def_cfa_offset 0
 415 0054 7047     		bx	lr
 416              		.cfi_endproc
 417              	.LFE135:
 419              		.section	.text.HAL_TIM_Base_Start_IT,"ax",%progbits
 420              		.align	1
 421              		.global	HAL_TIM_Base_Start_IT
 422              		.syntax unified
 423              		.thumb
 424              		.thumb_func
 425              		.fpu fpv4-sp-d16
 427              	HAL_TIM_Base_Start_IT:
 428              	.LFB136:
 430:Drivers/STM32F4xx_HAL_Driver/Src/stm32f4xx_hal_tim.c **** 
 431:Drivers/STM32F4xx_HAL_Driver/Src/stm32f4xx_hal_tim.c **** /**
 432:Drivers/STM32F4xx_HAL_Driver/Src/stm32f4xx_hal_tim.c ****   * @brief  Starts the TIM Base generation in interrupt mode.
 433:Drivers/STM32F4xx_HAL_Driver/Src/stm32f4xx_hal_tim.c ****   * @param  htim TIM Base handle
 434:Drivers/STM32F4xx_HAL_Driver/Src/stm32f4xx_hal_tim.c ****   * @retval HAL status
 435:Drivers/STM32F4xx_HAL_Driver/Src/stm32f4xx_hal_tim.c ****   */
 436:Drivers/STM32F4xx_HAL_Driver/Src/stm32f4xx_hal_tim.c **** HAL_StatusTypeDef HAL_TIM_Base_Start_IT(TIM_HandleTypeDef *htim)
 437:Drivers/STM32F4xx_HAL_Driver/Src/stm32f4xx_hal_tim.c **** {
 429              		.loc 1 437 1
 430              		.cfi_startproc
 431              		@ args = 0, pretend = 0, frame = 16
ARM GAS  /tmp/ccg0QfjD.s 			page 16


 432              		@ frame_needed = 1, uses_anonymous_args = 0
 433              		@ link register save eliminated.
 434 0000 80B4     		push	{r7}
 435              	.LCFI34:
 436              		.cfi_def_cfa_offset 4
 437              		.cfi_offset 7, -4
 438 0002 85B0     		sub	sp, sp, #20
 439              	.LCFI35:
 440              		.cfi_def_cfa_offset 24
 441 0004 00AF     		add	r7, sp, #0
 442              	.LCFI36:
 443              		.cfi_def_cfa_register 7
 444 0006 7860     		str	r0, [r7, #4]
 438:Drivers/STM32F4xx_HAL_Driver/Src/stm32f4xx_hal_tim.c ****   uint32_t tmpsmcr;
 439:Drivers/STM32F4xx_HAL_Driver/Src/stm32f4xx_hal_tim.c **** 
 440:Drivers/STM32F4xx_HAL_Driver/Src/stm32f4xx_hal_tim.c ****   /* Check the parameters */
 441:Drivers/STM32F4xx_HAL_Driver/Src/stm32f4xx_hal_tim.c ****   assert_param(IS_TIM_INSTANCE(htim->Instance));
 442:Drivers/STM32F4xx_HAL_Driver/Src/stm32f4xx_hal_tim.c **** 
 443:Drivers/STM32F4xx_HAL_Driver/Src/stm32f4xx_hal_tim.c ****   /* Enable the TIM Update interrupt */
 444:Drivers/STM32F4xx_HAL_Driver/Src/stm32f4xx_hal_tim.c ****   __HAL_TIM_ENABLE_IT(htim, TIM_IT_UPDATE);
 445              		.loc 1 444 3
 446 0008 7B68     		ldr	r3, [r7, #4]
 447 000a 1B68     		ldr	r3, [r3]
 448 000c DA68     		ldr	r2, [r3, #12]
 449 000e 7B68     		ldr	r3, [r7, #4]
 450 0010 1B68     		ldr	r3, [r3]
 451 0012 42F00102 		orr	r2, r2, #1
 452 0016 DA60     		str	r2, [r3, #12]
 445:Drivers/STM32F4xx_HAL_Driver/Src/stm32f4xx_hal_tim.c **** 
 446:Drivers/STM32F4xx_HAL_Driver/Src/stm32f4xx_hal_tim.c ****   /* Enable the Peripheral, except in trigger mode where enable is automatically done with trigger 
 447:Drivers/STM32F4xx_HAL_Driver/Src/stm32f4xx_hal_tim.c ****   tmpsmcr = htim->Instance->SMCR & TIM_SMCR_SMS;
 453              		.loc 1 447 17
 454 0018 7B68     		ldr	r3, [r7, #4]
 455 001a 1B68     		ldr	r3, [r3]
 456              		.loc 1 447 27
 457 001c 9B68     		ldr	r3, [r3, #8]
 458              		.loc 1 447 11
 459 001e 03F00703 		and	r3, r3, #7
 460 0022 FB60     		str	r3, [r7, #12]
 448:Drivers/STM32F4xx_HAL_Driver/Src/stm32f4xx_hal_tim.c ****   if (!IS_TIM_SLAVEMODE_TRIGGER_ENABLED(tmpsmcr))
 461              		.loc 1 448 6
 462 0024 FB68     		ldr	r3, [r7, #12]
 463 0026 062B     		cmp	r3, #6
 464 0028 07D0     		beq	.L17
 449:Drivers/STM32F4xx_HAL_Driver/Src/stm32f4xx_hal_tim.c ****   {
 450:Drivers/STM32F4xx_HAL_Driver/Src/stm32f4xx_hal_tim.c ****     __HAL_TIM_ENABLE(htim);
 465              		.loc 1 450 5
 466 002a 7B68     		ldr	r3, [r7, #4]
 467 002c 1B68     		ldr	r3, [r3]
 468 002e 1A68     		ldr	r2, [r3]
 469 0030 7B68     		ldr	r3, [r7, #4]
 470 0032 1B68     		ldr	r3, [r3]
 471 0034 42F00102 		orr	r2, r2, #1
 472 0038 1A60     		str	r2, [r3]
 473              	.L17:
 451:Drivers/STM32F4xx_HAL_Driver/Src/stm32f4xx_hal_tim.c ****   }
 452:Drivers/STM32F4xx_HAL_Driver/Src/stm32f4xx_hal_tim.c **** 
ARM GAS  /tmp/ccg0QfjD.s 			page 17


 453:Drivers/STM32F4xx_HAL_Driver/Src/stm32f4xx_hal_tim.c ****   /* Return function status */
 454:Drivers/STM32F4xx_HAL_Driver/Src/stm32f4xx_hal_tim.c ****   return HAL_OK;
 474              		.loc 1 454 10
 475 003a 0023     		movs	r3, #0
 455:Drivers/STM32F4xx_HAL_Driver/Src/stm32f4xx_hal_tim.c **** }
 476              		.loc 1 455 1
 477 003c 1846     		mov	r0, r3
 478 003e 1437     		adds	r7, r7, #20
 479              	.LCFI37:
 480              		.cfi_def_cfa_offset 4
 481 0040 BD46     		mov	sp, r7
 482              	.LCFI38:
 483              		.cfi_def_cfa_register 13
 484              		@ sp needed
 485 0042 5DF8047B 		ldr	r7, [sp], #4
 486              	.LCFI39:
 487              		.cfi_restore 7
 488              		.cfi_def_cfa_offset 0
 489 0046 7047     		bx	lr
 490              		.cfi_endproc
 491              	.LFE136:
 493              		.section	.text.HAL_TIM_Base_Stop_IT,"ax",%progbits
 494              		.align	1
 495              		.global	HAL_TIM_Base_Stop_IT
 496              		.syntax unified
 497              		.thumb
 498              		.thumb_func
 499              		.fpu fpv4-sp-d16
 501              	HAL_TIM_Base_Stop_IT:
 502              	.LFB137:
 456:Drivers/STM32F4xx_HAL_Driver/Src/stm32f4xx_hal_tim.c **** 
 457:Drivers/STM32F4xx_HAL_Driver/Src/stm32f4xx_hal_tim.c **** /**
 458:Drivers/STM32F4xx_HAL_Driver/Src/stm32f4xx_hal_tim.c ****   * @brief  Stops the TIM Base generation in interrupt mode.
 459:Drivers/STM32F4xx_HAL_Driver/Src/stm32f4xx_hal_tim.c ****   * @param  htim TIM Base handle
 460:Drivers/STM32F4xx_HAL_Driver/Src/stm32f4xx_hal_tim.c ****   * @retval HAL status
 461:Drivers/STM32F4xx_HAL_Driver/Src/stm32f4xx_hal_tim.c ****   */
 462:Drivers/STM32F4xx_HAL_Driver/Src/stm32f4xx_hal_tim.c **** HAL_StatusTypeDef HAL_TIM_Base_Stop_IT(TIM_HandleTypeDef *htim)
 463:Drivers/STM32F4xx_HAL_Driver/Src/stm32f4xx_hal_tim.c **** {
 503              		.loc 1 463 1
 504              		.cfi_startproc
 505              		@ args = 0, pretend = 0, frame = 8
 506              		@ frame_needed = 1, uses_anonymous_args = 0
 507              		@ link register save eliminated.
 508 0000 80B4     		push	{r7}
 509              	.LCFI40:
 510              		.cfi_def_cfa_offset 4
 511              		.cfi_offset 7, -4
 512 0002 83B0     		sub	sp, sp, #12
 513              	.LCFI41:
 514              		.cfi_def_cfa_offset 16
 515 0004 00AF     		add	r7, sp, #0
 516              	.LCFI42:
 517              		.cfi_def_cfa_register 7
 518 0006 7860     		str	r0, [r7, #4]
 464:Drivers/STM32F4xx_HAL_Driver/Src/stm32f4xx_hal_tim.c ****   /* Check the parameters */
 465:Drivers/STM32F4xx_HAL_Driver/Src/stm32f4xx_hal_tim.c ****   assert_param(IS_TIM_INSTANCE(htim->Instance));
 466:Drivers/STM32F4xx_HAL_Driver/Src/stm32f4xx_hal_tim.c ****   /* Disable the TIM Update interrupt */
ARM GAS  /tmp/ccg0QfjD.s 			page 18


 467:Drivers/STM32F4xx_HAL_Driver/Src/stm32f4xx_hal_tim.c ****   __HAL_TIM_DISABLE_IT(htim, TIM_IT_UPDATE);
 519              		.loc 1 467 3
 520 0008 7B68     		ldr	r3, [r7, #4]
 521 000a 1B68     		ldr	r3, [r3]
 522 000c DA68     		ldr	r2, [r3, #12]
 523 000e 7B68     		ldr	r3, [r7, #4]
 524 0010 1B68     		ldr	r3, [r3]
 525 0012 22F00102 		bic	r2, r2, #1
 526 0016 DA60     		str	r2, [r3, #12]
 468:Drivers/STM32F4xx_HAL_Driver/Src/stm32f4xx_hal_tim.c **** 
 469:Drivers/STM32F4xx_HAL_Driver/Src/stm32f4xx_hal_tim.c ****   /* Disable the Peripheral */
 470:Drivers/STM32F4xx_HAL_Driver/Src/stm32f4xx_hal_tim.c ****   __HAL_TIM_DISABLE(htim);
 527              		.loc 1 470 3
 528 0018 7B68     		ldr	r3, [r7, #4]
 529 001a 1B68     		ldr	r3, [r3]
 530 001c 1A6A     		ldr	r2, [r3, #32]
 531 001e 41F21113 		movw	r3, #4369
 532 0022 1340     		ands	r3, r3, r2
 533 0024 002B     		cmp	r3, #0
 534 0026 0FD1     		bne	.L20
 535              		.loc 1 470 3 is_stmt 0 discriminator 1
 536 0028 7B68     		ldr	r3, [r7, #4]
 537 002a 1B68     		ldr	r3, [r3]
 538 002c 1A6A     		ldr	r2, [r3, #32]
 539 002e 40F24443 		movw	r3, #1092
 540 0032 1340     		ands	r3, r3, r2
 541 0034 002B     		cmp	r3, #0
 542 0036 07D1     		bne	.L20
 543              		.loc 1 470 3 discriminator 2
 544 0038 7B68     		ldr	r3, [r7, #4]
 545 003a 1B68     		ldr	r3, [r3]
 546 003c 1A68     		ldr	r2, [r3]
 547 003e 7B68     		ldr	r3, [r7, #4]
 548 0040 1B68     		ldr	r3, [r3]
 549 0042 22F00102 		bic	r2, r2, #1
 550 0046 1A60     		str	r2, [r3]
 551              	.L20:
 471:Drivers/STM32F4xx_HAL_Driver/Src/stm32f4xx_hal_tim.c **** 
 472:Drivers/STM32F4xx_HAL_Driver/Src/stm32f4xx_hal_tim.c ****   /* Return function status */
 473:Drivers/STM32F4xx_HAL_Driver/Src/stm32f4xx_hal_tim.c ****   return HAL_OK;
 552              		.loc 1 473 10 is_stmt 1
 553 0048 0023     		movs	r3, #0
 474:Drivers/STM32F4xx_HAL_Driver/Src/stm32f4xx_hal_tim.c **** }
 554              		.loc 1 474 1
 555 004a 1846     		mov	r0, r3
 556 004c 0C37     		adds	r7, r7, #12
 557              	.LCFI43:
 558              		.cfi_def_cfa_offset 4
 559 004e BD46     		mov	sp, r7
 560              	.LCFI44:
 561              		.cfi_def_cfa_register 13
 562              		@ sp needed
 563 0050 5DF8047B 		ldr	r7, [sp], #4
 564              	.LCFI45:
 565              		.cfi_restore 7
 566              		.cfi_def_cfa_offset 0
 567 0054 7047     		bx	lr
ARM GAS  /tmp/ccg0QfjD.s 			page 19


 568              		.cfi_endproc
 569              	.LFE137:
 571              		.section	.text.HAL_TIM_Base_Start_DMA,"ax",%progbits
 572              		.align	1
 573              		.global	HAL_TIM_Base_Start_DMA
 574              		.syntax unified
 575              		.thumb
 576              		.thumb_func
 577              		.fpu fpv4-sp-d16
 579              	HAL_TIM_Base_Start_DMA:
 580              	.LFB138:
 475:Drivers/STM32F4xx_HAL_Driver/Src/stm32f4xx_hal_tim.c **** 
 476:Drivers/STM32F4xx_HAL_Driver/Src/stm32f4xx_hal_tim.c **** /**
 477:Drivers/STM32F4xx_HAL_Driver/Src/stm32f4xx_hal_tim.c ****   * @brief  Starts the TIM Base generation in DMA mode.
 478:Drivers/STM32F4xx_HAL_Driver/Src/stm32f4xx_hal_tim.c ****   * @param  htim TIM Base handle
 479:Drivers/STM32F4xx_HAL_Driver/Src/stm32f4xx_hal_tim.c ****   * @param  pData The source Buffer address.
 480:Drivers/STM32F4xx_HAL_Driver/Src/stm32f4xx_hal_tim.c ****   * @param  Length The length of data to be transferred from memory to peripheral.
 481:Drivers/STM32F4xx_HAL_Driver/Src/stm32f4xx_hal_tim.c ****   * @retval HAL status
 482:Drivers/STM32F4xx_HAL_Driver/Src/stm32f4xx_hal_tim.c ****   */
 483:Drivers/STM32F4xx_HAL_Driver/Src/stm32f4xx_hal_tim.c **** HAL_StatusTypeDef HAL_TIM_Base_Start_DMA(TIM_HandleTypeDef *htim, uint32_t *pData, uint16_t Length)
 484:Drivers/STM32F4xx_HAL_Driver/Src/stm32f4xx_hal_tim.c **** {
 581              		.loc 1 484 1
 582              		.cfi_startproc
 583              		@ args = 0, pretend = 0, frame = 24
 584              		@ frame_needed = 1, uses_anonymous_args = 0
 585 0000 80B5     		push	{r7, lr}
 586              	.LCFI46:
 587              		.cfi_def_cfa_offset 8
 588              		.cfi_offset 7, -8
 589              		.cfi_offset 14, -4
 590 0002 86B0     		sub	sp, sp, #24
 591              	.LCFI47:
 592              		.cfi_def_cfa_offset 32
 593 0004 00AF     		add	r7, sp, #0
 594              	.LCFI48:
 595              		.cfi_def_cfa_register 7
 596 0006 F860     		str	r0, [r7, #12]
 597 0008 B960     		str	r1, [r7, #8]
 598 000a 1346     		mov	r3, r2
 599 000c FB80     		strh	r3, [r7, #6]	@ movhi
 485:Drivers/STM32F4xx_HAL_Driver/Src/stm32f4xx_hal_tim.c ****   uint32_t tmpsmcr;
 486:Drivers/STM32F4xx_HAL_Driver/Src/stm32f4xx_hal_tim.c **** 
 487:Drivers/STM32F4xx_HAL_Driver/Src/stm32f4xx_hal_tim.c ****   /* Check the parameters */
 488:Drivers/STM32F4xx_HAL_Driver/Src/stm32f4xx_hal_tim.c ****   assert_param(IS_TIM_DMA_INSTANCE(htim->Instance));
 489:Drivers/STM32F4xx_HAL_Driver/Src/stm32f4xx_hal_tim.c **** 
 490:Drivers/STM32F4xx_HAL_Driver/Src/stm32f4xx_hal_tim.c ****   if (htim->State == HAL_TIM_STATE_BUSY)
 600              		.loc 1 490 11
 601 000e FB68     		ldr	r3, [r7, #12]
 602 0010 93F83D30 		ldrb	r3, [r3, #61]
 603 0014 DBB2     		uxtb	r3, r3
 604              		.loc 1 490 6
 605 0016 022B     		cmp	r3, #2
 606 0018 01D1     		bne	.L23
 491:Drivers/STM32F4xx_HAL_Driver/Src/stm32f4xx_hal_tim.c ****   {
 492:Drivers/STM32F4xx_HAL_Driver/Src/stm32f4xx_hal_tim.c ****     return HAL_BUSY;
 607              		.loc 1 492 12
 608 001a 0223     		movs	r3, #2
ARM GAS  /tmp/ccg0QfjD.s 			page 20


 609 001c 46E0     		b	.L24
 610              	.L23:
 493:Drivers/STM32F4xx_HAL_Driver/Src/stm32f4xx_hal_tim.c ****   }
 494:Drivers/STM32F4xx_HAL_Driver/Src/stm32f4xx_hal_tim.c ****   else if (htim->State == HAL_TIM_STATE_READY)
 611              		.loc 1 494 16
 612 001e FB68     		ldr	r3, [r7, #12]
 613 0020 93F83D30 		ldrb	r3, [r3, #61]
 614 0024 DBB2     		uxtb	r3, r3
 615              		.loc 1 494 11
 616 0026 012B     		cmp	r3, #1
 617 0028 0BD1     		bne	.L25
 495:Drivers/STM32F4xx_HAL_Driver/Src/stm32f4xx_hal_tim.c ****   {
 496:Drivers/STM32F4xx_HAL_Driver/Src/stm32f4xx_hal_tim.c ****     if ((pData == NULL) && (Length > 0U))
 618              		.loc 1 496 8
 619 002a BB68     		ldr	r3, [r7, #8]
 620 002c 002B     		cmp	r3, #0
 621 002e 04D1     		bne	.L26
 622              		.loc 1 496 25 discriminator 1
 623 0030 FB88     		ldrh	r3, [r7, #6]
 624 0032 002B     		cmp	r3, #0
 625 0034 01D0     		beq	.L26
 497:Drivers/STM32F4xx_HAL_Driver/Src/stm32f4xx_hal_tim.c ****     {
 498:Drivers/STM32F4xx_HAL_Driver/Src/stm32f4xx_hal_tim.c ****       return HAL_ERROR;
 626              		.loc 1 498 14
 627 0036 0123     		movs	r3, #1
 628 0038 38E0     		b	.L24
 629              	.L26:
 499:Drivers/STM32F4xx_HAL_Driver/Src/stm32f4xx_hal_tim.c ****     }
 500:Drivers/STM32F4xx_HAL_Driver/Src/stm32f4xx_hal_tim.c ****     else
 501:Drivers/STM32F4xx_HAL_Driver/Src/stm32f4xx_hal_tim.c ****     {
 502:Drivers/STM32F4xx_HAL_Driver/Src/stm32f4xx_hal_tim.c ****       htim->State = HAL_TIM_STATE_BUSY;
 630              		.loc 1 502 19
 631 003a FB68     		ldr	r3, [r7, #12]
 632 003c 0222     		movs	r2, #2
 633 003e 83F83D20 		strb	r2, [r3, #61]
 634              	.L25:
 503:Drivers/STM32F4xx_HAL_Driver/Src/stm32f4xx_hal_tim.c ****     }
 504:Drivers/STM32F4xx_HAL_Driver/Src/stm32f4xx_hal_tim.c ****   }
 505:Drivers/STM32F4xx_HAL_Driver/Src/stm32f4xx_hal_tim.c ****   else
 506:Drivers/STM32F4xx_HAL_Driver/Src/stm32f4xx_hal_tim.c ****   {
 507:Drivers/STM32F4xx_HAL_Driver/Src/stm32f4xx_hal_tim.c ****     /* nothing to do */
 508:Drivers/STM32F4xx_HAL_Driver/Src/stm32f4xx_hal_tim.c ****   }
 509:Drivers/STM32F4xx_HAL_Driver/Src/stm32f4xx_hal_tim.c **** 
 510:Drivers/STM32F4xx_HAL_Driver/Src/stm32f4xx_hal_tim.c ****   /* Set the DMA Period elapsed callbacks */
 511:Drivers/STM32F4xx_HAL_Driver/Src/stm32f4xx_hal_tim.c ****   htim->hdma[TIM_DMA_ID_UPDATE]->XferCpltCallback = TIM_DMAPeriodElapsedCplt;
 635              		.loc 1 511 13
 636 0042 FB68     		ldr	r3, [r7, #12]
 637 0044 1B6A     		ldr	r3, [r3, #32]
 638              		.loc 1 511 51
 639 0046 1B4A     		ldr	r2, .L29
 640 0048 DA63     		str	r2, [r3, #60]
 512:Drivers/STM32F4xx_HAL_Driver/Src/stm32f4xx_hal_tim.c ****   htim->hdma[TIM_DMA_ID_UPDATE]->XferHalfCpltCallback = TIM_DMAPeriodElapsedHalfCplt;
 641              		.loc 1 512 13
 642 004a FB68     		ldr	r3, [r7, #12]
 643 004c 1B6A     		ldr	r3, [r3, #32]
 644              		.loc 1 512 55
 645 004e 1A4A     		ldr	r2, .L29+4
ARM GAS  /tmp/ccg0QfjD.s 			page 21


 646 0050 1A64     		str	r2, [r3, #64]
 513:Drivers/STM32F4xx_HAL_Driver/Src/stm32f4xx_hal_tim.c **** 
 514:Drivers/STM32F4xx_HAL_Driver/Src/stm32f4xx_hal_tim.c ****   /* Set the DMA error callback */
 515:Drivers/STM32F4xx_HAL_Driver/Src/stm32f4xx_hal_tim.c ****   htim->hdma[TIM_DMA_ID_UPDATE]->XferErrorCallback = TIM_DMAError ;
 647              		.loc 1 515 13
 648 0052 FB68     		ldr	r3, [r7, #12]
 649 0054 1B6A     		ldr	r3, [r3, #32]
 650              		.loc 1 515 52
 651 0056 194A     		ldr	r2, .L29+8
 652 0058 DA64     		str	r2, [r3, #76]
 516:Drivers/STM32F4xx_HAL_Driver/Src/stm32f4xx_hal_tim.c **** 
 517:Drivers/STM32F4xx_HAL_Driver/Src/stm32f4xx_hal_tim.c ****   /* Enable the DMA stream */
 518:Drivers/STM32F4xx_HAL_Driver/Src/stm32f4xx_hal_tim.c ****   if (HAL_DMA_Start_IT(htim->hdma[TIM_DMA_ID_UPDATE], (uint32_t)pData, (uint32_t)&htim->Instance->A
 653              		.loc 1 518 7
 654 005a FB68     		ldr	r3, [r7, #12]
 655 005c 186A     		ldr	r0, [r3, #32]
 656 005e B968     		ldr	r1, [r7, #8]
 657              		.loc 1 518 87
 658 0060 FB68     		ldr	r3, [r7, #12]
 659 0062 1B68     		ldr	r3, [r3]
 660              		.loc 1 518 82
 661 0064 2C33     		adds	r3, r3, #44
 662              		.loc 1 518 7
 663 0066 1A46     		mov	r2, r3
 664 0068 FB88     		ldrh	r3, [r7, #6]
 665 006a FFF7FEFF 		bl	HAL_DMA_Start_IT
 666 006e 0346     		mov	r3, r0
 667              		.loc 1 518 6
 668 0070 002B     		cmp	r3, #0
 669 0072 01D0     		beq	.L27
 519:Drivers/STM32F4xx_HAL_Driver/Src/stm32f4xx_hal_tim.c ****   {
 520:Drivers/STM32F4xx_HAL_Driver/Src/stm32f4xx_hal_tim.c ****     return HAL_ERROR;
 670              		.loc 1 520 12
 671 0074 0123     		movs	r3, #1
 672 0076 19E0     		b	.L24
 673              	.L27:
 521:Drivers/STM32F4xx_HAL_Driver/Src/stm32f4xx_hal_tim.c ****   }
 522:Drivers/STM32F4xx_HAL_Driver/Src/stm32f4xx_hal_tim.c **** 
 523:Drivers/STM32F4xx_HAL_Driver/Src/stm32f4xx_hal_tim.c ****   /* Enable the TIM Update DMA request */
 524:Drivers/STM32F4xx_HAL_Driver/Src/stm32f4xx_hal_tim.c ****   __HAL_TIM_ENABLE_DMA(htim, TIM_DMA_UPDATE);
 674              		.loc 1 524 3
 675 0078 FB68     		ldr	r3, [r7, #12]
 676 007a 1B68     		ldr	r3, [r3]
 677 007c DA68     		ldr	r2, [r3, #12]
 678 007e FB68     		ldr	r3, [r7, #12]
 679 0080 1B68     		ldr	r3, [r3]
 680 0082 42F48072 		orr	r2, r2, #256
 681 0086 DA60     		str	r2, [r3, #12]
 525:Drivers/STM32F4xx_HAL_Driver/Src/stm32f4xx_hal_tim.c **** 
 526:Drivers/STM32F4xx_HAL_Driver/Src/stm32f4xx_hal_tim.c ****   /* Enable the Peripheral, except in trigger mode where enable is automatically done with trigger 
 527:Drivers/STM32F4xx_HAL_Driver/Src/stm32f4xx_hal_tim.c ****   tmpsmcr = htim->Instance->SMCR & TIM_SMCR_SMS;
 682              		.loc 1 527 17
 683 0088 FB68     		ldr	r3, [r7, #12]
 684 008a 1B68     		ldr	r3, [r3]
 685              		.loc 1 527 27
 686 008c 9B68     		ldr	r3, [r3, #8]
 687              		.loc 1 527 11
ARM GAS  /tmp/ccg0QfjD.s 			page 22


 688 008e 03F00703 		and	r3, r3, #7
 689 0092 7B61     		str	r3, [r7, #20]
 528:Drivers/STM32F4xx_HAL_Driver/Src/stm32f4xx_hal_tim.c ****   if (!IS_TIM_SLAVEMODE_TRIGGER_ENABLED(tmpsmcr))
 690              		.loc 1 528 6
 691 0094 7B69     		ldr	r3, [r7, #20]
 692 0096 062B     		cmp	r3, #6
 693 0098 07D0     		beq	.L28
 529:Drivers/STM32F4xx_HAL_Driver/Src/stm32f4xx_hal_tim.c ****   {
 530:Drivers/STM32F4xx_HAL_Driver/Src/stm32f4xx_hal_tim.c ****     __HAL_TIM_ENABLE(htim);
 694              		.loc 1 530 5
 695 009a FB68     		ldr	r3, [r7, #12]
 696 009c 1B68     		ldr	r3, [r3]
 697 009e 1A68     		ldr	r2, [r3]
 698 00a0 FB68     		ldr	r3, [r7, #12]
 699 00a2 1B68     		ldr	r3, [r3]
 700 00a4 42F00102 		orr	r2, r2, #1
 701 00a8 1A60     		str	r2, [r3]
 702              	.L28:
 531:Drivers/STM32F4xx_HAL_Driver/Src/stm32f4xx_hal_tim.c ****   }
 532:Drivers/STM32F4xx_HAL_Driver/Src/stm32f4xx_hal_tim.c **** 
 533:Drivers/STM32F4xx_HAL_Driver/Src/stm32f4xx_hal_tim.c ****   /* Return function status */
 534:Drivers/STM32F4xx_HAL_Driver/Src/stm32f4xx_hal_tim.c ****   return HAL_OK;
 703              		.loc 1 534 10
 704 00aa 0023     		movs	r3, #0
 705              	.L24:
 535:Drivers/STM32F4xx_HAL_Driver/Src/stm32f4xx_hal_tim.c **** }
 706              		.loc 1 535 1
 707 00ac 1846     		mov	r0, r3
 708 00ae 1837     		adds	r7, r7, #24
 709              	.LCFI49:
 710              		.cfi_def_cfa_offset 8
 711 00b0 BD46     		mov	sp, r7
 712              	.LCFI50:
 713              		.cfi_def_cfa_register 13
 714              		@ sp needed
 715 00b2 80BD     		pop	{r7, pc}
 716              	.L30:
 717              		.align	2
 718              	.L29:
 719 00b4 00000000 		.word	TIM_DMAPeriodElapsedCplt
 720 00b8 00000000 		.word	TIM_DMAPeriodElapsedHalfCplt
 721 00bc 00000000 		.word	TIM_DMAError
 722              		.cfi_endproc
 723              	.LFE138:
 725              		.section	.text.HAL_TIM_Base_Stop_DMA,"ax",%progbits
 726              		.align	1
 727              		.global	HAL_TIM_Base_Stop_DMA
 728              		.syntax unified
 729              		.thumb
 730              		.thumb_func
 731              		.fpu fpv4-sp-d16
 733              	HAL_TIM_Base_Stop_DMA:
 734              	.LFB139:
 536:Drivers/STM32F4xx_HAL_Driver/Src/stm32f4xx_hal_tim.c **** 
 537:Drivers/STM32F4xx_HAL_Driver/Src/stm32f4xx_hal_tim.c **** /**
 538:Drivers/STM32F4xx_HAL_Driver/Src/stm32f4xx_hal_tim.c ****   * @brief  Stops the TIM Base generation in DMA mode.
 539:Drivers/STM32F4xx_HAL_Driver/Src/stm32f4xx_hal_tim.c ****   * @param  htim TIM Base handle
ARM GAS  /tmp/ccg0QfjD.s 			page 23


 540:Drivers/STM32F4xx_HAL_Driver/Src/stm32f4xx_hal_tim.c ****   * @retval HAL status
 541:Drivers/STM32F4xx_HAL_Driver/Src/stm32f4xx_hal_tim.c ****   */
 542:Drivers/STM32F4xx_HAL_Driver/Src/stm32f4xx_hal_tim.c **** HAL_StatusTypeDef HAL_TIM_Base_Stop_DMA(TIM_HandleTypeDef *htim)
 543:Drivers/STM32F4xx_HAL_Driver/Src/stm32f4xx_hal_tim.c **** {
 735              		.loc 1 543 1
 736              		.cfi_startproc
 737              		@ args = 0, pretend = 0, frame = 8
 738              		@ frame_needed = 1, uses_anonymous_args = 0
 739 0000 80B5     		push	{r7, lr}
 740              	.LCFI51:
 741              		.cfi_def_cfa_offset 8
 742              		.cfi_offset 7, -8
 743              		.cfi_offset 14, -4
 744 0002 82B0     		sub	sp, sp, #8
 745              	.LCFI52:
 746              		.cfi_def_cfa_offset 16
 747 0004 00AF     		add	r7, sp, #0
 748              	.LCFI53:
 749              		.cfi_def_cfa_register 7
 750 0006 7860     		str	r0, [r7, #4]
 544:Drivers/STM32F4xx_HAL_Driver/Src/stm32f4xx_hal_tim.c ****   /* Check the parameters */
 545:Drivers/STM32F4xx_HAL_Driver/Src/stm32f4xx_hal_tim.c ****   assert_param(IS_TIM_DMA_INSTANCE(htim->Instance));
 546:Drivers/STM32F4xx_HAL_Driver/Src/stm32f4xx_hal_tim.c **** 
 547:Drivers/STM32F4xx_HAL_Driver/Src/stm32f4xx_hal_tim.c ****   /* Disable the TIM Update DMA request */
 548:Drivers/STM32F4xx_HAL_Driver/Src/stm32f4xx_hal_tim.c ****   __HAL_TIM_DISABLE_DMA(htim, TIM_DMA_UPDATE);
 751              		.loc 1 548 3
 752 0008 7B68     		ldr	r3, [r7, #4]
 753 000a 1B68     		ldr	r3, [r3]
 754 000c DA68     		ldr	r2, [r3, #12]
 755 000e 7B68     		ldr	r3, [r7, #4]
 756 0010 1B68     		ldr	r3, [r3]
 757 0012 22F48072 		bic	r2, r2, #256
 758 0016 DA60     		str	r2, [r3, #12]
 549:Drivers/STM32F4xx_HAL_Driver/Src/stm32f4xx_hal_tim.c **** 
 550:Drivers/STM32F4xx_HAL_Driver/Src/stm32f4xx_hal_tim.c ****   (void)HAL_DMA_Abort_IT(htim->hdma[TIM_DMA_ID_UPDATE]);
 759              		.loc 1 550 9
 760 0018 7B68     		ldr	r3, [r7, #4]
 761 001a 1B6A     		ldr	r3, [r3, #32]
 762 001c 1846     		mov	r0, r3
 763 001e FFF7FEFF 		bl	HAL_DMA_Abort_IT
 551:Drivers/STM32F4xx_HAL_Driver/Src/stm32f4xx_hal_tim.c **** 
 552:Drivers/STM32F4xx_HAL_Driver/Src/stm32f4xx_hal_tim.c ****   /* Disable the Peripheral */
 553:Drivers/STM32F4xx_HAL_Driver/Src/stm32f4xx_hal_tim.c ****   __HAL_TIM_DISABLE(htim);
 764              		.loc 1 553 3
 765 0022 7B68     		ldr	r3, [r7, #4]
 766 0024 1B68     		ldr	r3, [r3]
 767 0026 1A6A     		ldr	r2, [r3, #32]
 768 0028 41F21113 		movw	r3, #4369
 769 002c 1340     		ands	r3, r3, r2
 770 002e 002B     		cmp	r3, #0
 771 0030 0FD1     		bne	.L32
 772              		.loc 1 553 3 is_stmt 0 discriminator 1
 773 0032 7B68     		ldr	r3, [r7, #4]
 774 0034 1B68     		ldr	r3, [r3]
 775 0036 1A6A     		ldr	r2, [r3, #32]
 776 0038 40F24443 		movw	r3, #1092
 777 003c 1340     		ands	r3, r3, r2
ARM GAS  /tmp/ccg0QfjD.s 			page 24


 778 003e 002B     		cmp	r3, #0
 779 0040 07D1     		bne	.L32
 780              		.loc 1 553 3 discriminator 2
 781 0042 7B68     		ldr	r3, [r7, #4]
 782 0044 1B68     		ldr	r3, [r3]
 783 0046 1A68     		ldr	r2, [r3]
 784 0048 7B68     		ldr	r3, [r7, #4]
 785 004a 1B68     		ldr	r3, [r3]
 786 004c 22F00102 		bic	r2, r2, #1
 787 0050 1A60     		str	r2, [r3]
 788              	.L32:
 554:Drivers/STM32F4xx_HAL_Driver/Src/stm32f4xx_hal_tim.c **** 
 555:Drivers/STM32F4xx_HAL_Driver/Src/stm32f4xx_hal_tim.c ****   /* Change the htim state */
 556:Drivers/STM32F4xx_HAL_Driver/Src/stm32f4xx_hal_tim.c ****   htim->State = HAL_TIM_STATE_READY;
 789              		.loc 1 556 15 is_stmt 1
 790 0052 7B68     		ldr	r3, [r7, #4]
 791 0054 0122     		movs	r2, #1
 792 0056 83F83D20 		strb	r2, [r3, #61]
 557:Drivers/STM32F4xx_HAL_Driver/Src/stm32f4xx_hal_tim.c **** 
 558:Drivers/STM32F4xx_HAL_Driver/Src/stm32f4xx_hal_tim.c ****   /* Return function status */
 559:Drivers/STM32F4xx_HAL_Driver/Src/stm32f4xx_hal_tim.c ****   return HAL_OK;
 793              		.loc 1 559 10
 794 005a 0023     		movs	r3, #0
 560:Drivers/STM32F4xx_HAL_Driver/Src/stm32f4xx_hal_tim.c **** }
 795              		.loc 1 560 1
 796 005c 1846     		mov	r0, r3
 797 005e 0837     		adds	r7, r7, #8
 798              	.LCFI54:
 799              		.cfi_def_cfa_offset 8
 800 0060 BD46     		mov	sp, r7
 801              	.LCFI55:
 802              		.cfi_def_cfa_register 13
 803              		@ sp needed
 804 0062 80BD     		pop	{r7, pc}
 805              		.cfi_endproc
 806              	.LFE139:
 808              		.section	.text.HAL_TIM_OC_Init,"ax",%progbits
 809              		.align	1
 810              		.global	HAL_TIM_OC_Init
 811              		.syntax unified
 812              		.thumb
 813              		.thumb_func
 814              		.fpu fpv4-sp-d16
 816              	HAL_TIM_OC_Init:
 817              	.LFB140:
 561:Drivers/STM32F4xx_HAL_Driver/Src/stm32f4xx_hal_tim.c **** 
 562:Drivers/STM32F4xx_HAL_Driver/Src/stm32f4xx_hal_tim.c **** /**
 563:Drivers/STM32F4xx_HAL_Driver/Src/stm32f4xx_hal_tim.c ****   * @}
 564:Drivers/STM32F4xx_HAL_Driver/Src/stm32f4xx_hal_tim.c ****   */
 565:Drivers/STM32F4xx_HAL_Driver/Src/stm32f4xx_hal_tim.c **** 
 566:Drivers/STM32F4xx_HAL_Driver/Src/stm32f4xx_hal_tim.c **** /** @defgroup TIM_Exported_Functions_Group2 TIM Output Compare functions
 567:Drivers/STM32F4xx_HAL_Driver/Src/stm32f4xx_hal_tim.c ****   *  @brief    TIM Output Compare functions
 568:Drivers/STM32F4xx_HAL_Driver/Src/stm32f4xx_hal_tim.c ****   *
 569:Drivers/STM32F4xx_HAL_Driver/Src/stm32f4xx_hal_tim.c **** @verbatim
 570:Drivers/STM32F4xx_HAL_Driver/Src/stm32f4xx_hal_tim.c ****   ==============================================================================
 571:Drivers/STM32F4xx_HAL_Driver/Src/stm32f4xx_hal_tim.c ****                   ##### TIM Output Compare functions #####
 572:Drivers/STM32F4xx_HAL_Driver/Src/stm32f4xx_hal_tim.c ****   ==============================================================================
ARM GAS  /tmp/ccg0QfjD.s 			page 25


 573:Drivers/STM32F4xx_HAL_Driver/Src/stm32f4xx_hal_tim.c ****   [..]
 574:Drivers/STM32F4xx_HAL_Driver/Src/stm32f4xx_hal_tim.c ****     This section provides functions allowing to:
 575:Drivers/STM32F4xx_HAL_Driver/Src/stm32f4xx_hal_tim.c ****     (+) Initialize and configure the TIM Output Compare.
 576:Drivers/STM32F4xx_HAL_Driver/Src/stm32f4xx_hal_tim.c ****     (+) De-initialize the TIM Output Compare.
 577:Drivers/STM32F4xx_HAL_Driver/Src/stm32f4xx_hal_tim.c ****     (+) Start the TIM Output Compare.
 578:Drivers/STM32F4xx_HAL_Driver/Src/stm32f4xx_hal_tim.c ****     (+) Stop the TIM Output Compare.
 579:Drivers/STM32F4xx_HAL_Driver/Src/stm32f4xx_hal_tim.c ****     (+) Start the TIM Output Compare and enable interrupt.
 580:Drivers/STM32F4xx_HAL_Driver/Src/stm32f4xx_hal_tim.c ****     (+) Stop the TIM Output Compare and disable interrupt.
 581:Drivers/STM32F4xx_HAL_Driver/Src/stm32f4xx_hal_tim.c ****     (+) Start the TIM Output Compare and enable DMA transfer.
 582:Drivers/STM32F4xx_HAL_Driver/Src/stm32f4xx_hal_tim.c ****     (+) Stop the TIM Output Compare and disable DMA transfer.
 583:Drivers/STM32F4xx_HAL_Driver/Src/stm32f4xx_hal_tim.c **** 
 584:Drivers/STM32F4xx_HAL_Driver/Src/stm32f4xx_hal_tim.c **** @endverbatim
 585:Drivers/STM32F4xx_HAL_Driver/Src/stm32f4xx_hal_tim.c ****   * @{
 586:Drivers/STM32F4xx_HAL_Driver/Src/stm32f4xx_hal_tim.c ****   */
 587:Drivers/STM32F4xx_HAL_Driver/Src/stm32f4xx_hal_tim.c **** /**
 588:Drivers/STM32F4xx_HAL_Driver/Src/stm32f4xx_hal_tim.c ****   * @brief  Initializes the TIM Output Compare according to the specified
 589:Drivers/STM32F4xx_HAL_Driver/Src/stm32f4xx_hal_tim.c ****   *         parameters in the TIM_HandleTypeDef and initializes the associated handle.
 590:Drivers/STM32F4xx_HAL_Driver/Src/stm32f4xx_hal_tim.c ****   * @note   Switching from Center Aligned counter mode to Edge counter mode (or reverse)
 591:Drivers/STM32F4xx_HAL_Driver/Src/stm32f4xx_hal_tim.c ****   *         requires a timer reset to avoid unexpected direction
 592:Drivers/STM32F4xx_HAL_Driver/Src/stm32f4xx_hal_tim.c ****   *         due to DIR bit readonly in center aligned mode.
 593:Drivers/STM32F4xx_HAL_Driver/Src/stm32f4xx_hal_tim.c ****   *         Ex: call @ref HAL_TIM_OC_DeInit() before HAL_TIM_OC_Init()
 594:Drivers/STM32F4xx_HAL_Driver/Src/stm32f4xx_hal_tim.c ****   * @param  htim TIM Output Compare handle
 595:Drivers/STM32F4xx_HAL_Driver/Src/stm32f4xx_hal_tim.c ****   * @retval HAL status
 596:Drivers/STM32F4xx_HAL_Driver/Src/stm32f4xx_hal_tim.c ****   */
 597:Drivers/STM32F4xx_HAL_Driver/Src/stm32f4xx_hal_tim.c **** HAL_StatusTypeDef HAL_TIM_OC_Init(TIM_HandleTypeDef *htim)
 598:Drivers/STM32F4xx_HAL_Driver/Src/stm32f4xx_hal_tim.c **** {
 818              		.loc 1 598 1
 819              		.cfi_startproc
 820              		@ args = 0, pretend = 0, frame = 8
 821              		@ frame_needed = 1, uses_anonymous_args = 0
 822 0000 80B5     		push	{r7, lr}
 823              	.LCFI56:
 824              		.cfi_def_cfa_offset 8
 825              		.cfi_offset 7, -8
 826              		.cfi_offset 14, -4
 827 0002 82B0     		sub	sp, sp, #8
 828              	.LCFI57:
 829              		.cfi_def_cfa_offset 16
 830 0004 00AF     		add	r7, sp, #0
 831              	.LCFI58:
 832              		.cfi_def_cfa_register 7
 833 0006 7860     		str	r0, [r7, #4]
 599:Drivers/STM32F4xx_HAL_Driver/Src/stm32f4xx_hal_tim.c ****   /* Check the TIM handle allocation */
 600:Drivers/STM32F4xx_HAL_Driver/Src/stm32f4xx_hal_tim.c ****   if (htim == NULL)
 834              		.loc 1 600 6
 835 0008 7B68     		ldr	r3, [r7, #4]
 836 000a 002B     		cmp	r3, #0
 837 000c 01D1     		bne	.L35
 601:Drivers/STM32F4xx_HAL_Driver/Src/stm32f4xx_hal_tim.c ****   {
 602:Drivers/STM32F4xx_HAL_Driver/Src/stm32f4xx_hal_tim.c ****     return HAL_ERROR;
 838              		.loc 1 602 12
 839 000e 0123     		movs	r3, #1
 840 0010 1DE0     		b	.L36
 841              	.L35:
 603:Drivers/STM32F4xx_HAL_Driver/Src/stm32f4xx_hal_tim.c ****   }
 604:Drivers/STM32F4xx_HAL_Driver/Src/stm32f4xx_hal_tim.c **** 
 605:Drivers/STM32F4xx_HAL_Driver/Src/stm32f4xx_hal_tim.c ****   /* Check the parameters */
ARM GAS  /tmp/ccg0QfjD.s 			page 26


 606:Drivers/STM32F4xx_HAL_Driver/Src/stm32f4xx_hal_tim.c ****   assert_param(IS_TIM_INSTANCE(htim->Instance));
 607:Drivers/STM32F4xx_HAL_Driver/Src/stm32f4xx_hal_tim.c ****   assert_param(IS_TIM_COUNTER_MODE(htim->Init.CounterMode));
 608:Drivers/STM32F4xx_HAL_Driver/Src/stm32f4xx_hal_tim.c ****   assert_param(IS_TIM_CLOCKDIVISION_DIV(htim->Init.ClockDivision));
 609:Drivers/STM32F4xx_HAL_Driver/Src/stm32f4xx_hal_tim.c ****   assert_param(IS_TIM_AUTORELOAD_PRELOAD(htim->Init.AutoReloadPreload));
 610:Drivers/STM32F4xx_HAL_Driver/Src/stm32f4xx_hal_tim.c **** 
 611:Drivers/STM32F4xx_HAL_Driver/Src/stm32f4xx_hal_tim.c ****   if (htim->State == HAL_TIM_STATE_RESET)
 842              		.loc 1 611 11
 843 0012 7B68     		ldr	r3, [r7, #4]
 844 0014 93F83D30 		ldrb	r3, [r3, #61]
 845 0018 DBB2     		uxtb	r3, r3
 846              		.loc 1 611 6
 847 001a 002B     		cmp	r3, #0
 848 001c 06D1     		bne	.L37
 612:Drivers/STM32F4xx_HAL_Driver/Src/stm32f4xx_hal_tim.c ****   {
 613:Drivers/STM32F4xx_HAL_Driver/Src/stm32f4xx_hal_tim.c ****     /* Allocate lock resource and initialize it */
 614:Drivers/STM32F4xx_HAL_Driver/Src/stm32f4xx_hal_tim.c ****     htim->Lock = HAL_UNLOCKED;
 849              		.loc 1 614 16
 850 001e 7B68     		ldr	r3, [r7, #4]
 851 0020 0022     		movs	r2, #0
 852 0022 83F83C20 		strb	r2, [r3, #60]
 615:Drivers/STM32F4xx_HAL_Driver/Src/stm32f4xx_hal_tim.c **** 
 616:Drivers/STM32F4xx_HAL_Driver/Src/stm32f4xx_hal_tim.c **** #if (USE_HAL_TIM_REGISTER_CALLBACKS == 1)
 617:Drivers/STM32F4xx_HAL_Driver/Src/stm32f4xx_hal_tim.c ****     /* Reset interrupt callbacks to legacy weak callbacks */
 618:Drivers/STM32F4xx_HAL_Driver/Src/stm32f4xx_hal_tim.c ****     TIM_ResetCallback(htim);
 619:Drivers/STM32F4xx_HAL_Driver/Src/stm32f4xx_hal_tim.c **** 
 620:Drivers/STM32F4xx_HAL_Driver/Src/stm32f4xx_hal_tim.c ****     if (htim->OC_MspInitCallback == NULL)
 621:Drivers/STM32F4xx_HAL_Driver/Src/stm32f4xx_hal_tim.c ****     {
 622:Drivers/STM32F4xx_HAL_Driver/Src/stm32f4xx_hal_tim.c ****       htim->OC_MspInitCallback = HAL_TIM_OC_MspInit;
 623:Drivers/STM32F4xx_HAL_Driver/Src/stm32f4xx_hal_tim.c ****     }
 624:Drivers/STM32F4xx_HAL_Driver/Src/stm32f4xx_hal_tim.c ****     /* Init the low level hardware : GPIO, CLOCK, NVIC */
 625:Drivers/STM32F4xx_HAL_Driver/Src/stm32f4xx_hal_tim.c ****     htim->OC_MspInitCallback(htim);
 626:Drivers/STM32F4xx_HAL_Driver/Src/stm32f4xx_hal_tim.c **** #else
 627:Drivers/STM32F4xx_HAL_Driver/Src/stm32f4xx_hal_tim.c ****     /* Init the low level hardware : GPIO, CLOCK, NVIC and DMA */
 628:Drivers/STM32F4xx_HAL_Driver/Src/stm32f4xx_hal_tim.c ****     HAL_TIM_OC_MspInit(htim);
 853              		.loc 1 628 5
 854 0026 7868     		ldr	r0, [r7, #4]
 855 0028 FFF7FEFF 		bl	HAL_TIM_OC_MspInit
 856              	.L37:
 629:Drivers/STM32F4xx_HAL_Driver/Src/stm32f4xx_hal_tim.c **** #endif /* USE_HAL_TIM_REGISTER_CALLBACKS */
 630:Drivers/STM32F4xx_HAL_Driver/Src/stm32f4xx_hal_tim.c ****   }
 631:Drivers/STM32F4xx_HAL_Driver/Src/stm32f4xx_hal_tim.c **** 
 632:Drivers/STM32F4xx_HAL_Driver/Src/stm32f4xx_hal_tim.c ****   /* Set the TIM state */
 633:Drivers/STM32F4xx_HAL_Driver/Src/stm32f4xx_hal_tim.c ****   htim->State = HAL_TIM_STATE_BUSY;
 857              		.loc 1 633 15
 858 002c 7B68     		ldr	r3, [r7, #4]
 859 002e 0222     		movs	r2, #2
 860 0030 83F83D20 		strb	r2, [r3, #61]
 634:Drivers/STM32F4xx_HAL_Driver/Src/stm32f4xx_hal_tim.c **** 
 635:Drivers/STM32F4xx_HAL_Driver/Src/stm32f4xx_hal_tim.c ****   /* Init the base time for the Output Compare */
 636:Drivers/STM32F4xx_HAL_Driver/Src/stm32f4xx_hal_tim.c ****   TIM_Base_SetConfig(htim->Instance,  &htim->Init);
 861              		.loc 1 636 3
 862 0034 7B68     		ldr	r3, [r7, #4]
 863 0036 1A68     		ldr	r2, [r3]
 864 0038 7B68     		ldr	r3, [r7, #4]
 865 003a 0433     		adds	r3, r3, #4
 866 003c 1946     		mov	r1, r3
 867 003e 1046     		mov	r0, r2
ARM GAS  /tmp/ccg0QfjD.s 			page 27


 868 0040 FFF7FEFF 		bl	TIM_Base_SetConfig
 637:Drivers/STM32F4xx_HAL_Driver/Src/stm32f4xx_hal_tim.c **** 
 638:Drivers/STM32F4xx_HAL_Driver/Src/stm32f4xx_hal_tim.c ****   /* Initialize the TIM state*/
 639:Drivers/STM32F4xx_HAL_Driver/Src/stm32f4xx_hal_tim.c ****   htim->State = HAL_TIM_STATE_READY;
 869              		.loc 1 639 15
 870 0044 7B68     		ldr	r3, [r7, #4]
 871 0046 0122     		movs	r2, #1
 872 0048 83F83D20 		strb	r2, [r3, #61]
 640:Drivers/STM32F4xx_HAL_Driver/Src/stm32f4xx_hal_tim.c **** 
 641:Drivers/STM32F4xx_HAL_Driver/Src/stm32f4xx_hal_tim.c ****   return HAL_OK;
 873              		.loc 1 641 10
 874 004c 0023     		movs	r3, #0
 875              	.L36:
 642:Drivers/STM32F4xx_HAL_Driver/Src/stm32f4xx_hal_tim.c **** }
 876              		.loc 1 642 1
 877 004e 1846     		mov	r0, r3
 878 0050 0837     		adds	r7, r7, #8
 879              	.LCFI59:
 880              		.cfi_def_cfa_offset 8
 881 0052 BD46     		mov	sp, r7
 882              	.LCFI60:
 883              		.cfi_def_cfa_register 13
 884              		@ sp needed
 885 0054 80BD     		pop	{r7, pc}
 886              		.cfi_endproc
 887              	.LFE140:
 889              		.section	.text.HAL_TIM_OC_DeInit,"ax",%progbits
 890              		.align	1
 891              		.global	HAL_TIM_OC_DeInit
 892              		.syntax unified
 893              		.thumb
 894              		.thumb_func
 895              		.fpu fpv4-sp-d16
 897              	HAL_TIM_OC_DeInit:
 898              	.LFB141:
 643:Drivers/STM32F4xx_HAL_Driver/Src/stm32f4xx_hal_tim.c **** 
 644:Drivers/STM32F4xx_HAL_Driver/Src/stm32f4xx_hal_tim.c **** /**
 645:Drivers/STM32F4xx_HAL_Driver/Src/stm32f4xx_hal_tim.c ****   * @brief  DeInitializes the TIM peripheral
 646:Drivers/STM32F4xx_HAL_Driver/Src/stm32f4xx_hal_tim.c ****   * @param  htim TIM Output Compare handle
 647:Drivers/STM32F4xx_HAL_Driver/Src/stm32f4xx_hal_tim.c ****   * @retval HAL status
 648:Drivers/STM32F4xx_HAL_Driver/Src/stm32f4xx_hal_tim.c ****   */
 649:Drivers/STM32F4xx_HAL_Driver/Src/stm32f4xx_hal_tim.c **** HAL_StatusTypeDef HAL_TIM_OC_DeInit(TIM_HandleTypeDef *htim)
 650:Drivers/STM32F4xx_HAL_Driver/Src/stm32f4xx_hal_tim.c **** {
 899              		.loc 1 650 1
 900              		.cfi_startproc
 901              		@ args = 0, pretend = 0, frame = 8
 902              		@ frame_needed = 1, uses_anonymous_args = 0
 903 0000 80B5     		push	{r7, lr}
 904              	.LCFI61:
 905              		.cfi_def_cfa_offset 8
 906              		.cfi_offset 7, -8
 907              		.cfi_offset 14, -4
 908 0002 82B0     		sub	sp, sp, #8
 909              	.LCFI62:
 910              		.cfi_def_cfa_offset 16
 911 0004 00AF     		add	r7, sp, #0
 912              	.LCFI63:
ARM GAS  /tmp/ccg0QfjD.s 			page 28


 913              		.cfi_def_cfa_register 7
 914 0006 7860     		str	r0, [r7, #4]
 651:Drivers/STM32F4xx_HAL_Driver/Src/stm32f4xx_hal_tim.c ****   /* Check the parameters */
 652:Drivers/STM32F4xx_HAL_Driver/Src/stm32f4xx_hal_tim.c ****   assert_param(IS_TIM_INSTANCE(htim->Instance));
 653:Drivers/STM32F4xx_HAL_Driver/Src/stm32f4xx_hal_tim.c **** 
 654:Drivers/STM32F4xx_HAL_Driver/Src/stm32f4xx_hal_tim.c ****   htim->State = HAL_TIM_STATE_BUSY;
 915              		.loc 1 654 15
 916 0008 7B68     		ldr	r3, [r7, #4]
 917 000a 0222     		movs	r2, #2
 918 000c 83F83D20 		strb	r2, [r3, #61]
 655:Drivers/STM32F4xx_HAL_Driver/Src/stm32f4xx_hal_tim.c **** 
 656:Drivers/STM32F4xx_HAL_Driver/Src/stm32f4xx_hal_tim.c ****   /* Disable the TIM Peripheral Clock */
 657:Drivers/STM32F4xx_HAL_Driver/Src/stm32f4xx_hal_tim.c ****   __HAL_TIM_DISABLE(htim);
 919              		.loc 1 657 3
 920 0010 7B68     		ldr	r3, [r7, #4]
 921 0012 1B68     		ldr	r3, [r3]
 922 0014 1A6A     		ldr	r2, [r3, #32]
 923 0016 41F21113 		movw	r3, #4369
 924 001a 1340     		ands	r3, r3, r2
 925 001c 002B     		cmp	r3, #0
 926 001e 0FD1     		bne	.L39
 927              		.loc 1 657 3 is_stmt 0 discriminator 1
 928 0020 7B68     		ldr	r3, [r7, #4]
 929 0022 1B68     		ldr	r3, [r3]
 930 0024 1A6A     		ldr	r2, [r3, #32]
 931 0026 40F24443 		movw	r3, #1092
 932 002a 1340     		ands	r3, r3, r2
 933 002c 002B     		cmp	r3, #0
 934 002e 07D1     		bne	.L39
 935              		.loc 1 657 3 discriminator 2
 936 0030 7B68     		ldr	r3, [r7, #4]
 937 0032 1B68     		ldr	r3, [r3]
 938 0034 1A68     		ldr	r2, [r3]
 939 0036 7B68     		ldr	r3, [r7, #4]
 940 0038 1B68     		ldr	r3, [r3]
 941 003a 22F00102 		bic	r2, r2, #1
 942 003e 1A60     		str	r2, [r3]
 943              	.L39:
 658:Drivers/STM32F4xx_HAL_Driver/Src/stm32f4xx_hal_tim.c **** 
 659:Drivers/STM32F4xx_HAL_Driver/Src/stm32f4xx_hal_tim.c **** #if (USE_HAL_TIM_REGISTER_CALLBACKS == 1)
 660:Drivers/STM32F4xx_HAL_Driver/Src/stm32f4xx_hal_tim.c ****   if (htim->OC_MspDeInitCallback == NULL)
 661:Drivers/STM32F4xx_HAL_Driver/Src/stm32f4xx_hal_tim.c ****   {
 662:Drivers/STM32F4xx_HAL_Driver/Src/stm32f4xx_hal_tim.c ****     htim->OC_MspDeInitCallback = HAL_TIM_OC_MspDeInit;
 663:Drivers/STM32F4xx_HAL_Driver/Src/stm32f4xx_hal_tim.c ****   }
 664:Drivers/STM32F4xx_HAL_Driver/Src/stm32f4xx_hal_tim.c ****   /* DeInit the low level hardware */
 665:Drivers/STM32F4xx_HAL_Driver/Src/stm32f4xx_hal_tim.c ****   htim->OC_MspDeInitCallback(htim);
 666:Drivers/STM32F4xx_HAL_Driver/Src/stm32f4xx_hal_tim.c **** #else
 667:Drivers/STM32F4xx_HAL_Driver/Src/stm32f4xx_hal_tim.c ****   /* DeInit the low level hardware: GPIO, CLOCK, NVIC and DMA */
 668:Drivers/STM32F4xx_HAL_Driver/Src/stm32f4xx_hal_tim.c ****   HAL_TIM_OC_MspDeInit(htim);
 944              		.loc 1 668 3 is_stmt 1
 945 0040 7868     		ldr	r0, [r7, #4]
 946 0042 FFF7FEFF 		bl	HAL_TIM_OC_MspDeInit
 669:Drivers/STM32F4xx_HAL_Driver/Src/stm32f4xx_hal_tim.c **** #endif /* USE_HAL_TIM_REGISTER_CALLBACKS */
 670:Drivers/STM32F4xx_HAL_Driver/Src/stm32f4xx_hal_tim.c **** 
 671:Drivers/STM32F4xx_HAL_Driver/Src/stm32f4xx_hal_tim.c ****   /* Change TIM state */
 672:Drivers/STM32F4xx_HAL_Driver/Src/stm32f4xx_hal_tim.c ****   htim->State = HAL_TIM_STATE_RESET;
 947              		.loc 1 672 15
ARM GAS  /tmp/ccg0QfjD.s 			page 29


 948 0046 7B68     		ldr	r3, [r7, #4]
 949 0048 0022     		movs	r2, #0
 950 004a 83F83D20 		strb	r2, [r3, #61]
 673:Drivers/STM32F4xx_HAL_Driver/Src/stm32f4xx_hal_tim.c **** 
 674:Drivers/STM32F4xx_HAL_Driver/Src/stm32f4xx_hal_tim.c ****   /* Release Lock */
 675:Drivers/STM32F4xx_HAL_Driver/Src/stm32f4xx_hal_tim.c ****   __HAL_UNLOCK(htim);
 951              		.loc 1 675 3
 952 004e 7B68     		ldr	r3, [r7, #4]
 953 0050 0022     		movs	r2, #0
 954 0052 83F83C20 		strb	r2, [r3, #60]
 676:Drivers/STM32F4xx_HAL_Driver/Src/stm32f4xx_hal_tim.c **** 
 677:Drivers/STM32F4xx_HAL_Driver/Src/stm32f4xx_hal_tim.c ****   return HAL_OK;
 955              		.loc 1 677 10
 956 0056 0023     		movs	r3, #0
 678:Drivers/STM32F4xx_HAL_Driver/Src/stm32f4xx_hal_tim.c **** }
 957              		.loc 1 678 1
 958 0058 1846     		mov	r0, r3
 959 005a 0837     		adds	r7, r7, #8
 960              	.LCFI64:
 961              		.cfi_def_cfa_offset 8
 962 005c BD46     		mov	sp, r7
 963              	.LCFI65:
 964              		.cfi_def_cfa_register 13
 965              		@ sp needed
 966 005e 80BD     		pop	{r7, pc}
 967              		.cfi_endproc
 968              	.LFE141:
 970              		.section	.text.HAL_TIM_OC_MspInit,"ax",%progbits
 971              		.align	1
 972              		.weak	HAL_TIM_OC_MspInit
 973              		.syntax unified
 974              		.thumb
 975              		.thumb_func
 976              		.fpu fpv4-sp-d16
 978              	HAL_TIM_OC_MspInit:
 979              	.LFB142:
 679:Drivers/STM32F4xx_HAL_Driver/Src/stm32f4xx_hal_tim.c **** 
 680:Drivers/STM32F4xx_HAL_Driver/Src/stm32f4xx_hal_tim.c **** /**
 681:Drivers/STM32F4xx_HAL_Driver/Src/stm32f4xx_hal_tim.c ****   * @brief  Initializes the TIM Output Compare MSP.
 682:Drivers/STM32F4xx_HAL_Driver/Src/stm32f4xx_hal_tim.c ****   * @param  htim TIM Output Compare handle
 683:Drivers/STM32F4xx_HAL_Driver/Src/stm32f4xx_hal_tim.c ****   * @retval None
 684:Drivers/STM32F4xx_HAL_Driver/Src/stm32f4xx_hal_tim.c ****   */
 685:Drivers/STM32F4xx_HAL_Driver/Src/stm32f4xx_hal_tim.c **** __weak void HAL_TIM_OC_MspInit(TIM_HandleTypeDef *htim)
 686:Drivers/STM32F4xx_HAL_Driver/Src/stm32f4xx_hal_tim.c **** {
 980              		.loc 1 686 1
 981              		.cfi_startproc
 982              		@ args = 0, pretend = 0, frame = 8
 983              		@ frame_needed = 1, uses_anonymous_args = 0
 984              		@ link register save eliminated.
 985 0000 80B4     		push	{r7}
 986              	.LCFI66:
 987              		.cfi_def_cfa_offset 4
 988              		.cfi_offset 7, -4
 989 0002 83B0     		sub	sp, sp, #12
 990              	.LCFI67:
 991              		.cfi_def_cfa_offset 16
 992 0004 00AF     		add	r7, sp, #0
ARM GAS  /tmp/ccg0QfjD.s 			page 30


 993              	.LCFI68:
 994              		.cfi_def_cfa_register 7
 995 0006 7860     		str	r0, [r7, #4]
 687:Drivers/STM32F4xx_HAL_Driver/Src/stm32f4xx_hal_tim.c ****   /* Prevent unused argument(s) compilation warning */
 688:Drivers/STM32F4xx_HAL_Driver/Src/stm32f4xx_hal_tim.c ****   UNUSED(htim);
 689:Drivers/STM32F4xx_HAL_Driver/Src/stm32f4xx_hal_tim.c **** 
 690:Drivers/STM32F4xx_HAL_Driver/Src/stm32f4xx_hal_tim.c ****   /* NOTE : This function should not be modified, when the callback is needed,
 691:Drivers/STM32F4xx_HAL_Driver/Src/stm32f4xx_hal_tim.c ****             the HAL_TIM_OC_MspInit could be implemented in the user file
 692:Drivers/STM32F4xx_HAL_Driver/Src/stm32f4xx_hal_tim.c ****    */
 693:Drivers/STM32F4xx_HAL_Driver/Src/stm32f4xx_hal_tim.c **** }
 996              		.loc 1 693 1
 997 0008 00BF     		nop
 998 000a 0C37     		adds	r7, r7, #12
 999              	.LCFI69:
 1000              		.cfi_def_cfa_offset 4
 1001 000c BD46     		mov	sp, r7
 1002              	.LCFI70:
 1003              		.cfi_def_cfa_register 13
 1004              		@ sp needed
 1005 000e 5DF8047B 		ldr	r7, [sp], #4
 1006              	.LCFI71:
 1007              		.cfi_restore 7
 1008              		.cfi_def_cfa_offset 0
 1009 0012 7047     		bx	lr
 1010              		.cfi_endproc
 1011              	.LFE142:
 1013              		.section	.text.HAL_TIM_OC_MspDeInit,"ax",%progbits
 1014              		.align	1
 1015              		.weak	HAL_TIM_OC_MspDeInit
 1016              		.syntax unified
 1017              		.thumb
 1018              		.thumb_func
 1019              		.fpu fpv4-sp-d16
 1021              	HAL_TIM_OC_MspDeInit:
 1022              	.LFB143:
 694:Drivers/STM32F4xx_HAL_Driver/Src/stm32f4xx_hal_tim.c **** 
 695:Drivers/STM32F4xx_HAL_Driver/Src/stm32f4xx_hal_tim.c **** /**
 696:Drivers/STM32F4xx_HAL_Driver/Src/stm32f4xx_hal_tim.c ****   * @brief  DeInitializes TIM Output Compare MSP.
 697:Drivers/STM32F4xx_HAL_Driver/Src/stm32f4xx_hal_tim.c ****   * @param  htim TIM Output Compare handle
 698:Drivers/STM32F4xx_HAL_Driver/Src/stm32f4xx_hal_tim.c ****   * @retval None
 699:Drivers/STM32F4xx_HAL_Driver/Src/stm32f4xx_hal_tim.c ****   */
 700:Drivers/STM32F4xx_HAL_Driver/Src/stm32f4xx_hal_tim.c **** __weak void HAL_TIM_OC_MspDeInit(TIM_HandleTypeDef *htim)
 701:Drivers/STM32F4xx_HAL_Driver/Src/stm32f4xx_hal_tim.c **** {
 1023              		.loc 1 701 1
 1024              		.cfi_startproc
 1025              		@ args = 0, pretend = 0, frame = 8
 1026              		@ frame_needed = 1, uses_anonymous_args = 0
 1027              		@ link register save eliminated.
 1028 0000 80B4     		push	{r7}
 1029              	.LCFI72:
 1030              		.cfi_def_cfa_offset 4
 1031              		.cfi_offset 7, -4
 1032 0002 83B0     		sub	sp, sp, #12
 1033              	.LCFI73:
 1034              		.cfi_def_cfa_offset 16
 1035 0004 00AF     		add	r7, sp, #0
 1036              	.LCFI74:
ARM GAS  /tmp/ccg0QfjD.s 			page 31


 1037              		.cfi_def_cfa_register 7
 1038 0006 7860     		str	r0, [r7, #4]
 702:Drivers/STM32F4xx_HAL_Driver/Src/stm32f4xx_hal_tim.c ****   /* Prevent unused argument(s) compilation warning */
 703:Drivers/STM32F4xx_HAL_Driver/Src/stm32f4xx_hal_tim.c ****   UNUSED(htim);
 704:Drivers/STM32F4xx_HAL_Driver/Src/stm32f4xx_hal_tim.c **** 
 705:Drivers/STM32F4xx_HAL_Driver/Src/stm32f4xx_hal_tim.c ****   /* NOTE : This function should not be modified, when the callback is needed,
 706:Drivers/STM32F4xx_HAL_Driver/Src/stm32f4xx_hal_tim.c ****             the HAL_TIM_OC_MspDeInit could be implemented in the user file
 707:Drivers/STM32F4xx_HAL_Driver/Src/stm32f4xx_hal_tim.c ****    */
 708:Drivers/STM32F4xx_HAL_Driver/Src/stm32f4xx_hal_tim.c **** }
 1039              		.loc 1 708 1
 1040 0008 00BF     		nop
 1041 000a 0C37     		adds	r7, r7, #12
 1042              	.LCFI75:
 1043              		.cfi_def_cfa_offset 4
 1044 000c BD46     		mov	sp, r7
 1045              	.LCFI76:
 1046              		.cfi_def_cfa_register 13
 1047              		@ sp needed
 1048 000e 5DF8047B 		ldr	r7, [sp], #4
 1049              	.LCFI77:
 1050              		.cfi_restore 7
 1051              		.cfi_def_cfa_offset 0
 1052 0012 7047     		bx	lr
 1053              		.cfi_endproc
 1054              	.LFE143:
 1056              		.section	.text.HAL_TIM_OC_Start,"ax",%progbits
 1057              		.align	1
 1058              		.global	HAL_TIM_OC_Start
 1059              		.syntax unified
 1060              		.thumb
 1061              		.thumb_func
 1062              		.fpu fpv4-sp-d16
 1064              	HAL_TIM_OC_Start:
 1065              	.LFB144:
 709:Drivers/STM32F4xx_HAL_Driver/Src/stm32f4xx_hal_tim.c **** 
 710:Drivers/STM32F4xx_HAL_Driver/Src/stm32f4xx_hal_tim.c **** /**
 711:Drivers/STM32F4xx_HAL_Driver/Src/stm32f4xx_hal_tim.c ****   * @brief  Starts the TIM Output Compare signal generation.
 712:Drivers/STM32F4xx_HAL_Driver/Src/stm32f4xx_hal_tim.c ****   * @param  htim TIM Output Compare handle
 713:Drivers/STM32F4xx_HAL_Driver/Src/stm32f4xx_hal_tim.c ****   * @param  Channel TIM Channel to be enabled
 714:Drivers/STM32F4xx_HAL_Driver/Src/stm32f4xx_hal_tim.c ****   *          This parameter can be one of the following values:
 715:Drivers/STM32F4xx_HAL_Driver/Src/stm32f4xx_hal_tim.c ****   *            @arg TIM_CHANNEL_1: TIM Channel 1 selected
 716:Drivers/STM32F4xx_HAL_Driver/Src/stm32f4xx_hal_tim.c ****   *            @arg TIM_CHANNEL_2: TIM Channel 2 selected
 717:Drivers/STM32F4xx_HAL_Driver/Src/stm32f4xx_hal_tim.c ****   *            @arg TIM_CHANNEL_3: TIM Channel 3 selected
 718:Drivers/STM32F4xx_HAL_Driver/Src/stm32f4xx_hal_tim.c ****   *            @arg TIM_CHANNEL_4: TIM Channel 4 selected
 719:Drivers/STM32F4xx_HAL_Driver/Src/stm32f4xx_hal_tim.c ****   * @retval HAL status
 720:Drivers/STM32F4xx_HAL_Driver/Src/stm32f4xx_hal_tim.c ****   */
 721:Drivers/STM32F4xx_HAL_Driver/Src/stm32f4xx_hal_tim.c **** HAL_StatusTypeDef HAL_TIM_OC_Start(TIM_HandleTypeDef *htim, uint32_t Channel)
 722:Drivers/STM32F4xx_HAL_Driver/Src/stm32f4xx_hal_tim.c **** {
 1066              		.loc 1 722 1
 1067              		.cfi_startproc
 1068              		@ args = 0, pretend = 0, frame = 16
 1069              		@ frame_needed = 1, uses_anonymous_args = 0
 1070 0000 80B5     		push	{r7, lr}
 1071              	.LCFI78:
 1072              		.cfi_def_cfa_offset 8
 1073              		.cfi_offset 7, -8
 1074              		.cfi_offset 14, -4
ARM GAS  /tmp/ccg0QfjD.s 			page 32


 1075 0002 84B0     		sub	sp, sp, #16
 1076              	.LCFI79:
 1077              		.cfi_def_cfa_offset 24
 1078 0004 00AF     		add	r7, sp, #0
 1079              	.LCFI80:
 1080              		.cfi_def_cfa_register 7
 1081 0006 7860     		str	r0, [r7, #4]
 1082 0008 3960     		str	r1, [r7]
 723:Drivers/STM32F4xx_HAL_Driver/Src/stm32f4xx_hal_tim.c ****   uint32_t tmpsmcr;
 724:Drivers/STM32F4xx_HAL_Driver/Src/stm32f4xx_hal_tim.c **** 
 725:Drivers/STM32F4xx_HAL_Driver/Src/stm32f4xx_hal_tim.c ****   /* Check the parameters */
 726:Drivers/STM32F4xx_HAL_Driver/Src/stm32f4xx_hal_tim.c ****   assert_param(IS_TIM_CCX_INSTANCE(htim->Instance, Channel));
 727:Drivers/STM32F4xx_HAL_Driver/Src/stm32f4xx_hal_tim.c **** 
 728:Drivers/STM32F4xx_HAL_Driver/Src/stm32f4xx_hal_tim.c ****   /* Enable the Output compare channel */
 729:Drivers/STM32F4xx_HAL_Driver/Src/stm32f4xx_hal_tim.c ****   TIM_CCxChannelCmd(htim->Instance, Channel, TIM_CCx_ENABLE);
 1083              		.loc 1 729 3
 1084 000a 7B68     		ldr	r3, [r7, #4]
 1085 000c 1B68     		ldr	r3, [r3]
 1086 000e 0122     		movs	r2, #1
 1087 0010 3968     		ldr	r1, [r7]
 1088 0012 1846     		mov	r0, r3
 1089 0014 FFF7FEFF 		bl	TIM_CCxChannelCmd
 730:Drivers/STM32F4xx_HAL_Driver/Src/stm32f4xx_hal_tim.c **** 
 731:Drivers/STM32F4xx_HAL_Driver/Src/stm32f4xx_hal_tim.c ****   if (IS_TIM_BREAK_INSTANCE(htim->Instance) != RESET)
 1090              		.loc 1 731 7
 1091 0018 7B68     		ldr	r3, [r7, #4]
 1092 001a 1B68     		ldr	r3, [r3]
 1093 001c 154A     		ldr	r2, .L50
 1094 001e 9342     		cmp	r3, r2
 1095 0020 04D0     		beq	.L44
 1096              		.loc 1 731 7 is_stmt 0 discriminator 2
 1097 0022 7B68     		ldr	r3, [r7, #4]
 1098 0024 1B68     		ldr	r3, [r3]
 1099 0026 144A     		ldr	r2, .L50+4
 1100 0028 9342     		cmp	r3, r2
 1101 002a 01D1     		bne	.L45
 1102              	.L44:
 1103              		.loc 1 731 7 discriminator 3
 1104 002c 0123     		movs	r3, #1
 1105 002e 00E0     		b	.L46
 1106              	.L45:
 1107              		.loc 1 731 7 discriminator 4
 1108 0030 0023     		movs	r3, #0
 1109              	.L46:
 1110              		.loc 1 731 6 is_stmt 1 discriminator 6
 1111 0032 002B     		cmp	r3, #0
 1112 0034 07D0     		beq	.L47
 732:Drivers/STM32F4xx_HAL_Driver/Src/stm32f4xx_hal_tim.c ****   {
 733:Drivers/STM32F4xx_HAL_Driver/Src/stm32f4xx_hal_tim.c ****     /* Enable the main output */
 734:Drivers/STM32F4xx_HAL_Driver/Src/stm32f4xx_hal_tim.c ****     __HAL_TIM_MOE_ENABLE(htim);
 1113              		.loc 1 734 5
 1114 0036 7B68     		ldr	r3, [r7, #4]
 1115 0038 1B68     		ldr	r3, [r3]
 1116 003a 5A6C     		ldr	r2, [r3, #68]
 1117 003c 7B68     		ldr	r3, [r7, #4]
 1118 003e 1B68     		ldr	r3, [r3]
 1119 0040 42F40042 		orr	r2, r2, #32768
ARM GAS  /tmp/ccg0QfjD.s 			page 33


 1120 0044 5A64     		str	r2, [r3, #68]
 1121              	.L47:
 735:Drivers/STM32F4xx_HAL_Driver/Src/stm32f4xx_hal_tim.c ****   }
 736:Drivers/STM32F4xx_HAL_Driver/Src/stm32f4xx_hal_tim.c **** 
 737:Drivers/STM32F4xx_HAL_Driver/Src/stm32f4xx_hal_tim.c ****   /* Enable the Peripheral, except in trigger mode where enable is automatically done with trigger 
 738:Drivers/STM32F4xx_HAL_Driver/Src/stm32f4xx_hal_tim.c ****   tmpsmcr = htim->Instance->SMCR & TIM_SMCR_SMS;
 1122              		.loc 1 738 17
 1123 0046 7B68     		ldr	r3, [r7, #4]
 1124 0048 1B68     		ldr	r3, [r3]
 1125              		.loc 1 738 27
 1126 004a 9B68     		ldr	r3, [r3, #8]
 1127              		.loc 1 738 11
 1128 004c 03F00703 		and	r3, r3, #7
 1129 0050 FB60     		str	r3, [r7, #12]
 739:Drivers/STM32F4xx_HAL_Driver/Src/stm32f4xx_hal_tim.c ****   if (!IS_TIM_SLAVEMODE_TRIGGER_ENABLED(tmpsmcr))
 1130              		.loc 1 739 6
 1131 0052 FB68     		ldr	r3, [r7, #12]
 1132 0054 062B     		cmp	r3, #6
 1133 0056 07D0     		beq	.L48
 740:Drivers/STM32F4xx_HAL_Driver/Src/stm32f4xx_hal_tim.c ****   {
 741:Drivers/STM32F4xx_HAL_Driver/Src/stm32f4xx_hal_tim.c ****     __HAL_TIM_ENABLE(htim);
 1134              		.loc 1 741 5
 1135 0058 7B68     		ldr	r3, [r7, #4]
 1136 005a 1B68     		ldr	r3, [r3]
 1137 005c 1A68     		ldr	r2, [r3]
 1138 005e 7B68     		ldr	r3, [r7, #4]
 1139 0060 1B68     		ldr	r3, [r3]
 1140 0062 42F00102 		orr	r2, r2, #1
 1141 0066 1A60     		str	r2, [r3]
 1142              	.L48:
 742:Drivers/STM32F4xx_HAL_Driver/Src/stm32f4xx_hal_tim.c ****   }
 743:Drivers/STM32F4xx_HAL_Driver/Src/stm32f4xx_hal_tim.c **** 
 744:Drivers/STM32F4xx_HAL_Driver/Src/stm32f4xx_hal_tim.c ****   /* Return function status */
 745:Drivers/STM32F4xx_HAL_Driver/Src/stm32f4xx_hal_tim.c ****   return HAL_OK;
 1143              		.loc 1 745 10
 1144 0068 0023     		movs	r3, #0
 746:Drivers/STM32F4xx_HAL_Driver/Src/stm32f4xx_hal_tim.c **** }
 1145              		.loc 1 746 1
 1146 006a 1846     		mov	r0, r3
 1147 006c 1037     		adds	r7, r7, #16
 1148              	.LCFI81:
 1149              		.cfi_def_cfa_offset 8
 1150 006e BD46     		mov	sp, r7
 1151              	.LCFI82:
 1152              		.cfi_def_cfa_register 13
 1153              		@ sp needed
 1154 0070 80BD     		pop	{r7, pc}
 1155              	.L51:
 1156 0072 00BF     		.align	2
 1157              	.L50:
 1158 0074 00000140 		.word	1073807360
 1159 0078 00040140 		.word	1073808384
 1160              		.cfi_endproc
 1161              	.LFE144:
 1163              		.section	.text.HAL_TIM_OC_Stop,"ax",%progbits
 1164              		.align	1
 1165              		.global	HAL_TIM_OC_Stop
ARM GAS  /tmp/ccg0QfjD.s 			page 34


 1166              		.syntax unified
 1167              		.thumb
 1168              		.thumb_func
 1169              		.fpu fpv4-sp-d16
 1171              	HAL_TIM_OC_Stop:
 1172              	.LFB145:
 747:Drivers/STM32F4xx_HAL_Driver/Src/stm32f4xx_hal_tim.c **** 
 748:Drivers/STM32F4xx_HAL_Driver/Src/stm32f4xx_hal_tim.c **** /**
 749:Drivers/STM32F4xx_HAL_Driver/Src/stm32f4xx_hal_tim.c ****   * @brief  Stops the TIM Output Compare signal generation.
 750:Drivers/STM32F4xx_HAL_Driver/Src/stm32f4xx_hal_tim.c ****   * @param  htim TIM Output Compare handle
 751:Drivers/STM32F4xx_HAL_Driver/Src/stm32f4xx_hal_tim.c ****   * @param  Channel TIM Channel to be disabled
 752:Drivers/STM32F4xx_HAL_Driver/Src/stm32f4xx_hal_tim.c ****   *          This parameter can be one of the following values:
 753:Drivers/STM32F4xx_HAL_Driver/Src/stm32f4xx_hal_tim.c ****   *            @arg TIM_CHANNEL_1: TIM Channel 1 selected
 754:Drivers/STM32F4xx_HAL_Driver/Src/stm32f4xx_hal_tim.c ****   *            @arg TIM_CHANNEL_2: TIM Channel 2 selected
 755:Drivers/STM32F4xx_HAL_Driver/Src/stm32f4xx_hal_tim.c ****   *            @arg TIM_CHANNEL_3: TIM Channel 3 selected
 756:Drivers/STM32F4xx_HAL_Driver/Src/stm32f4xx_hal_tim.c ****   *            @arg TIM_CHANNEL_4: TIM Channel 4 selected
 757:Drivers/STM32F4xx_HAL_Driver/Src/stm32f4xx_hal_tim.c ****   * @retval HAL status
 758:Drivers/STM32F4xx_HAL_Driver/Src/stm32f4xx_hal_tim.c ****   */
 759:Drivers/STM32F4xx_HAL_Driver/Src/stm32f4xx_hal_tim.c **** HAL_StatusTypeDef HAL_TIM_OC_Stop(TIM_HandleTypeDef *htim, uint32_t Channel)
 760:Drivers/STM32F4xx_HAL_Driver/Src/stm32f4xx_hal_tim.c **** {
 1173              		.loc 1 760 1
 1174              		.cfi_startproc
 1175              		@ args = 0, pretend = 0, frame = 8
 1176              		@ frame_needed = 1, uses_anonymous_args = 0
 1177 0000 80B5     		push	{r7, lr}
 1178              	.LCFI83:
 1179              		.cfi_def_cfa_offset 8
 1180              		.cfi_offset 7, -8
 1181              		.cfi_offset 14, -4
 1182 0002 82B0     		sub	sp, sp, #8
 1183              	.LCFI84:
 1184              		.cfi_def_cfa_offset 16
 1185 0004 00AF     		add	r7, sp, #0
 1186              	.LCFI85:
 1187              		.cfi_def_cfa_register 7
 1188 0006 7860     		str	r0, [r7, #4]
 1189 0008 3960     		str	r1, [r7]
 761:Drivers/STM32F4xx_HAL_Driver/Src/stm32f4xx_hal_tim.c ****   /* Check the parameters */
 762:Drivers/STM32F4xx_HAL_Driver/Src/stm32f4xx_hal_tim.c ****   assert_param(IS_TIM_CCX_INSTANCE(htim->Instance, Channel));
 763:Drivers/STM32F4xx_HAL_Driver/Src/stm32f4xx_hal_tim.c **** 
 764:Drivers/STM32F4xx_HAL_Driver/Src/stm32f4xx_hal_tim.c ****   /* Disable the Output compare channel */
 765:Drivers/STM32F4xx_HAL_Driver/Src/stm32f4xx_hal_tim.c ****   TIM_CCxChannelCmd(htim->Instance, Channel, TIM_CCx_DISABLE);
 1190              		.loc 1 765 3
 1191 000a 7B68     		ldr	r3, [r7, #4]
 1192 000c 1B68     		ldr	r3, [r3]
 1193 000e 0022     		movs	r2, #0
 1194 0010 3968     		ldr	r1, [r7]
 1195 0012 1846     		mov	r0, r3
 1196 0014 FFF7FEFF 		bl	TIM_CCxChannelCmd
 766:Drivers/STM32F4xx_HAL_Driver/Src/stm32f4xx_hal_tim.c **** 
 767:Drivers/STM32F4xx_HAL_Driver/Src/stm32f4xx_hal_tim.c ****   if (IS_TIM_BREAK_INSTANCE(htim->Instance) != RESET)
 1197              		.loc 1 767 7
 1198 0018 7B68     		ldr	r3, [r7, #4]
 1199 001a 1B68     		ldr	r3, [r3]
 1200 001c 204A     		ldr	r2, .L59
 1201 001e 9342     		cmp	r3, r2
 1202 0020 04D0     		beq	.L53
ARM GAS  /tmp/ccg0QfjD.s 			page 35


 1203              		.loc 1 767 7 is_stmt 0 discriminator 2
 1204 0022 7B68     		ldr	r3, [r7, #4]
 1205 0024 1B68     		ldr	r3, [r3]
 1206 0026 1F4A     		ldr	r2, .L59+4
 1207 0028 9342     		cmp	r3, r2
 1208 002a 01D1     		bne	.L54
 1209              	.L53:
 1210              		.loc 1 767 7 discriminator 3
 1211 002c 0123     		movs	r3, #1
 1212 002e 00E0     		b	.L55
 1213              	.L54:
 1214              		.loc 1 767 7 discriminator 4
 1215 0030 0023     		movs	r3, #0
 1216              	.L55:
 1217              		.loc 1 767 6 is_stmt 1 discriminator 6
 1218 0032 002B     		cmp	r3, #0
 1219 0034 17D0     		beq	.L56
 768:Drivers/STM32F4xx_HAL_Driver/Src/stm32f4xx_hal_tim.c ****   {
 769:Drivers/STM32F4xx_HAL_Driver/Src/stm32f4xx_hal_tim.c ****     /* Disable the Main Output */
 770:Drivers/STM32F4xx_HAL_Driver/Src/stm32f4xx_hal_tim.c ****     __HAL_TIM_MOE_DISABLE(htim);
 1220              		.loc 1 770 5
 1221 0036 7B68     		ldr	r3, [r7, #4]
 1222 0038 1B68     		ldr	r3, [r3]
 1223 003a 1A6A     		ldr	r2, [r3, #32]
 1224 003c 41F21113 		movw	r3, #4369
 1225 0040 1340     		ands	r3, r3, r2
 1226 0042 002B     		cmp	r3, #0
 1227 0044 0FD1     		bne	.L56
 1228              		.loc 1 770 5 is_stmt 0 discriminator 1
 1229 0046 7B68     		ldr	r3, [r7, #4]
 1230 0048 1B68     		ldr	r3, [r3]
 1231 004a 1A6A     		ldr	r2, [r3, #32]
 1232 004c 40F24443 		movw	r3, #1092
 1233 0050 1340     		ands	r3, r3, r2
 1234 0052 002B     		cmp	r3, #0
 1235 0054 07D1     		bne	.L56
 1236              		.loc 1 770 5 discriminator 2
 1237 0056 7B68     		ldr	r3, [r7, #4]
 1238 0058 1B68     		ldr	r3, [r3]
 1239 005a 5A6C     		ldr	r2, [r3, #68]
 1240 005c 7B68     		ldr	r3, [r7, #4]
 1241 005e 1B68     		ldr	r3, [r3]
 1242 0060 22F40042 		bic	r2, r2, #32768
 1243 0064 5A64     		str	r2, [r3, #68]
 1244              	.L56:
 771:Drivers/STM32F4xx_HAL_Driver/Src/stm32f4xx_hal_tim.c ****   }
 772:Drivers/STM32F4xx_HAL_Driver/Src/stm32f4xx_hal_tim.c **** 
 773:Drivers/STM32F4xx_HAL_Driver/Src/stm32f4xx_hal_tim.c ****   /* Disable the Peripheral */
 774:Drivers/STM32F4xx_HAL_Driver/Src/stm32f4xx_hal_tim.c ****   __HAL_TIM_DISABLE(htim);
 1245              		.loc 1 774 3 is_stmt 1
 1246 0066 7B68     		ldr	r3, [r7, #4]
 1247 0068 1B68     		ldr	r3, [r3]
 1248 006a 1A6A     		ldr	r2, [r3, #32]
 1249 006c 41F21113 		movw	r3, #4369
 1250 0070 1340     		ands	r3, r3, r2
 1251 0072 002B     		cmp	r3, #0
 1252 0074 0FD1     		bne	.L57
ARM GAS  /tmp/ccg0QfjD.s 			page 36


 1253              		.loc 1 774 3 is_stmt 0 discriminator 1
 1254 0076 7B68     		ldr	r3, [r7, #4]
 1255 0078 1B68     		ldr	r3, [r3]
 1256 007a 1A6A     		ldr	r2, [r3, #32]
 1257 007c 40F24443 		movw	r3, #1092
 1258 0080 1340     		ands	r3, r3, r2
 1259 0082 002B     		cmp	r3, #0
 1260 0084 07D1     		bne	.L57
 1261              		.loc 1 774 3 discriminator 2
 1262 0086 7B68     		ldr	r3, [r7, #4]
 1263 0088 1B68     		ldr	r3, [r3]
 1264 008a 1A68     		ldr	r2, [r3]
 1265 008c 7B68     		ldr	r3, [r7, #4]
 1266 008e 1B68     		ldr	r3, [r3]
 1267 0090 22F00102 		bic	r2, r2, #1
 1268 0094 1A60     		str	r2, [r3]
 1269              	.L57:
 775:Drivers/STM32F4xx_HAL_Driver/Src/stm32f4xx_hal_tim.c **** 
 776:Drivers/STM32F4xx_HAL_Driver/Src/stm32f4xx_hal_tim.c ****   /* Return function status */
 777:Drivers/STM32F4xx_HAL_Driver/Src/stm32f4xx_hal_tim.c ****   return HAL_OK;
 1270              		.loc 1 777 10 is_stmt 1
 1271 0096 0023     		movs	r3, #0
 778:Drivers/STM32F4xx_HAL_Driver/Src/stm32f4xx_hal_tim.c **** }
 1272              		.loc 1 778 1
 1273 0098 1846     		mov	r0, r3
 1274 009a 0837     		adds	r7, r7, #8
 1275              	.LCFI86:
 1276              		.cfi_def_cfa_offset 8
 1277 009c BD46     		mov	sp, r7
 1278              	.LCFI87:
 1279              		.cfi_def_cfa_register 13
 1280              		@ sp needed
 1281 009e 80BD     		pop	{r7, pc}
 1282              	.L60:
 1283              		.align	2
 1284              	.L59:
 1285 00a0 00000140 		.word	1073807360
 1286 00a4 00040140 		.word	1073808384
 1287              		.cfi_endproc
 1288              	.LFE145:
 1290              		.section	.text.HAL_TIM_OC_Start_IT,"ax",%progbits
 1291              		.align	1
 1292              		.global	HAL_TIM_OC_Start_IT
 1293              		.syntax unified
 1294              		.thumb
 1295              		.thumb_func
 1296              		.fpu fpv4-sp-d16
 1298              	HAL_TIM_OC_Start_IT:
 1299              	.LFB146:
 779:Drivers/STM32F4xx_HAL_Driver/Src/stm32f4xx_hal_tim.c **** 
 780:Drivers/STM32F4xx_HAL_Driver/Src/stm32f4xx_hal_tim.c **** /**
 781:Drivers/STM32F4xx_HAL_Driver/Src/stm32f4xx_hal_tim.c ****   * @brief  Starts the TIM Output Compare signal generation in interrupt mode.
 782:Drivers/STM32F4xx_HAL_Driver/Src/stm32f4xx_hal_tim.c ****   * @param  htim TIM Output Compare handle
 783:Drivers/STM32F4xx_HAL_Driver/Src/stm32f4xx_hal_tim.c ****   * @param  Channel TIM Channel to be enabled
 784:Drivers/STM32F4xx_HAL_Driver/Src/stm32f4xx_hal_tim.c ****   *          This parameter can be one of the following values:
 785:Drivers/STM32F4xx_HAL_Driver/Src/stm32f4xx_hal_tim.c ****   *            @arg TIM_CHANNEL_1: TIM Channel 1 selected
 786:Drivers/STM32F4xx_HAL_Driver/Src/stm32f4xx_hal_tim.c ****   *            @arg TIM_CHANNEL_2: TIM Channel 2 selected
ARM GAS  /tmp/ccg0QfjD.s 			page 37


 787:Drivers/STM32F4xx_HAL_Driver/Src/stm32f4xx_hal_tim.c ****   *            @arg TIM_CHANNEL_3: TIM Channel 3 selected
 788:Drivers/STM32F4xx_HAL_Driver/Src/stm32f4xx_hal_tim.c ****   *            @arg TIM_CHANNEL_4: TIM Channel 4 selected
 789:Drivers/STM32F4xx_HAL_Driver/Src/stm32f4xx_hal_tim.c ****   * @retval HAL status
 790:Drivers/STM32F4xx_HAL_Driver/Src/stm32f4xx_hal_tim.c ****   */
 791:Drivers/STM32F4xx_HAL_Driver/Src/stm32f4xx_hal_tim.c **** HAL_StatusTypeDef HAL_TIM_OC_Start_IT(TIM_HandleTypeDef *htim, uint32_t Channel)
 792:Drivers/STM32F4xx_HAL_Driver/Src/stm32f4xx_hal_tim.c **** {
 1300              		.loc 1 792 1
 1301              		.cfi_startproc
 1302              		@ args = 0, pretend = 0, frame = 16
 1303              		@ frame_needed = 1, uses_anonymous_args = 0
 1304 0000 80B5     		push	{r7, lr}
 1305              	.LCFI88:
 1306              		.cfi_def_cfa_offset 8
 1307              		.cfi_offset 7, -8
 1308              		.cfi_offset 14, -4
 1309 0002 84B0     		sub	sp, sp, #16
 1310              	.LCFI89:
 1311              		.cfi_def_cfa_offset 24
 1312 0004 00AF     		add	r7, sp, #0
 1313              	.LCFI90:
 1314              		.cfi_def_cfa_register 7
 1315 0006 7860     		str	r0, [r7, #4]
 1316 0008 3960     		str	r1, [r7]
 793:Drivers/STM32F4xx_HAL_Driver/Src/stm32f4xx_hal_tim.c ****   uint32_t tmpsmcr;
 794:Drivers/STM32F4xx_HAL_Driver/Src/stm32f4xx_hal_tim.c **** 
 795:Drivers/STM32F4xx_HAL_Driver/Src/stm32f4xx_hal_tim.c ****   /* Check the parameters */
 796:Drivers/STM32F4xx_HAL_Driver/Src/stm32f4xx_hal_tim.c ****   assert_param(IS_TIM_CCX_INSTANCE(htim->Instance, Channel));
 797:Drivers/STM32F4xx_HAL_Driver/Src/stm32f4xx_hal_tim.c **** 
 798:Drivers/STM32F4xx_HAL_Driver/Src/stm32f4xx_hal_tim.c ****   switch (Channel)
 1317              		.loc 1 798 3
 1318 000a 3B68     		ldr	r3, [r7]
 1319 000c 0C2B     		cmp	r3, #12
 1320 000e 41D8     		bhi	.L75
 1321 0010 01A2     		adr	r2, .L64
 1322 0012 52F823F0 		ldr	pc, [r2, r3, lsl #2]
 1323 0016 00BF     		.p2align 2
 1324              	.L64:
 1325 0018 4D000000 		.word	.L67+1
 1326 001c 95000000 		.word	.L75+1
 1327 0020 95000000 		.word	.L75+1
 1328 0024 95000000 		.word	.L75+1
 1329 0028 5F000000 		.word	.L66+1
 1330 002c 95000000 		.word	.L75+1
 1331 0030 95000000 		.word	.L75+1
 1332 0034 95000000 		.word	.L75+1
 1333 0038 71000000 		.word	.L65+1
 1334 003c 95000000 		.word	.L75+1
 1335 0040 95000000 		.word	.L75+1
 1336 0044 95000000 		.word	.L75+1
 1337 0048 83000000 		.word	.L63+1
 1338              		.p2align 1
 1339              	.L67:
 799:Drivers/STM32F4xx_HAL_Driver/Src/stm32f4xx_hal_tim.c ****   {
 800:Drivers/STM32F4xx_HAL_Driver/Src/stm32f4xx_hal_tim.c ****     case TIM_CHANNEL_1:
 801:Drivers/STM32F4xx_HAL_Driver/Src/stm32f4xx_hal_tim.c ****     {
 802:Drivers/STM32F4xx_HAL_Driver/Src/stm32f4xx_hal_tim.c ****       /* Enable the TIM Capture/Compare 1 interrupt */
 803:Drivers/STM32F4xx_HAL_Driver/Src/stm32f4xx_hal_tim.c ****       __HAL_TIM_ENABLE_IT(htim, TIM_IT_CC1);
ARM GAS  /tmp/ccg0QfjD.s 			page 38


 1340              		.loc 1 803 7
 1341 004c 7B68     		ldr	r3, [r7, #4]
 1342 004e 1B68     		ldr	r3, [r3]
 1343 0050 DA68     		ldr	r2, [r3, #12]
 1344 0052 7B68     		ldr	r3, [r7, #4]
 1345 0054 1B68     		ldr	r3, [r3]
 1346 0056 42F00202 		orr	r2, r2, #2
 1347 005a DA60     		str	r2, [r3, #12]
 804:Drivers/STM32F4xx_HAL_Driver/Src/stm32f4xx_hal_tim.c ****       break;
 1348              		.loc 1 804 7
 1349 005c 1BE0     		b	.L68
 1350              	.L66:
 805:Drivers/STM32F4xx_HAL_Driver/Src/stm32f4xx_hal_tim.c ****     }
 806:Drivers/STM32F4xx_HAL_Driver/Src/stm32f4xx_hal_tim.c **** 
 807:Drivers/STM32F4xx_HAL_Driver/Src/stm32f4xx_hal_tim.c ****     case TIM_CHANNEL_2:
 808:Drivers/STM32F4xx_HAL_Driver/Src/stm32f4xx_hal_tim.c ****     {
 809:Drivers/STM32F4xx_HAL_Driver/Src/stm32f4xx_hal_tim.c ****       /* Enable the TIM Capture/Compare 2 interrupt */
 810:Drivers/STM32F4xx_HAL_Driver/Src/stm32f4xx_hal_tim.c ****       __HAL_TIM_ENABLE_IT(htim, TIM_IT_CC2);
 1351              		.loc 1 810 7
 1352 005e 7B68     		ldr	r3, [r7, #4]
 1353 0060 1B68     		ldr	r3, [r3]
 1354 0062 DA68     		ldr	r2, [r3, #12]
 1355 0064 7B68     		ldr	r3, [r7, #4]
 1356 0066 1B68     		ldr	r3, [r3]
 1357 0068 42F00402 		orr	r2, r2, #4
 1358 006c DA60     		str	r2, [r3, #12]
 811:Drivers/STM32F4xx_HAL_Driver/Src/stm32f4xx_hal_tim.c ****       break;
 1359              		.loc 1 811 7
 1360 006e 12E0     		b	.L68
 1361              	.L65:
 812:Drivers/STM32F4xx_HAL_Driver/Src/stm32f4xx_hal_tim.c ****     }
 813:Drivers/STM32F4xx_HAL_Driver/Src/stm32f4xx_hal_tim.c **** 
 814:Drivers/STM32F4xx_HAL_Driver/Src/stm32f4xx_hal_tim.c ****     case TIM_CHANNEL_3:
 815:Drivers/STM32F4xx_HAL_Driver/Src/stm32f4xx_hal_tim.c ****     {
 816:Drivers/STM32F4xx_HAL_Driver/Src/stm32f4xx_hal_tim.c ****       /* Enable the TIM Capture/Compare 3 interrupt */
 817:Drivers/STM32F4xx_HAL_Driver/Src/stm32f4xx_hal_tim.c ****       __HAL_TIM_ENABLE_IT(htim, TIM_IT_CC3);
 1362              		.loc 1 817 7
 1363 0070 7B68     		ldr	r3, [r7, #4]
 1364 0072 1B68     		ldr	r3, [r3]
 1365 0074 DA68     		ldr	r2, [r3, #12]
 1366 0076 7B68     		ldr	r3, [r7, #4]
 1367 0078 1B68     		ldr	r3, [r3]
 1368 007a 42F00802 		orr	r2, r2, #8
 1369 007e DA60     		str	r2, [r3, #12]
 818:Drivers/STM32F4xx_HAL_Driver/Src/stm32f4xx_hal_tim.c ****       break;
 1370              		.loc 1 818 7
 1371 0080 09E0     		b	.L68
 1372              	.L63:
 819:Drivers/STM32F4xx_HAL_Driver/Src/stm32f4xx_hal_tim.c ****     }
 820:Drivers/STM32F4xx_HAL_Driver/Src/stm32f4xx_hal_tim.c **** 
 821:Drivers/STM32F4xx_HAL_Driver/Src/stm32f4xx_hal_tim.c ****     case TIM_CHANNEL_4:
 822:Drivers/STM32F4xx_HAL_Driver/Src/stm32f4xx_hal_tim.c ****     {
 823:Drivers/STM32F4xx_HAL_Driver/Src/stm32f4xx_hal_tim.c ****       /* Enable the TIM Capture/Compare 4 interrupt */
 824:Drivers/STM32F4xx_HAL_Driver/Src/stm32f4xx_hal_tim.c ****       __HAL_TIM_ENABLE_IT(htim, TIM_IT_CC4);
 1373              		.loc 1 824 7
 1374 0082 7B68     		ldr	r3, [r7, #4]
 1375 0084 1B68     		ldr	r3, [r3]
ARM GAS  /tmp/ccg0QfjD.s 			page 39


 1376 0086 DA68     		ldr	r2, [r3, #12]
 1377 0088 7B68     		ldr	r3, [r7, #4]
 1378 008a 1B68     		ldr	r3, [r3]
 1379 008c 42F01002 		orr	r2, r2, #16
 1380 0090 DA60     		str	r2, [r3, #12]
 825:Drivers/STM32F4xx_HAL_Driver/Src/stm32f4xx_hal_tim.c ****       break;
 1381              		.loc 1 825 7
 1382 0092 00E0     		b	.L68
 1383              	.L75:
 826:Drivers/STM32F4xx_HAL_Driver/Src/stm32f4xx_hal_tim.c ****     }
 827:Drivers/STM32F4xx_HAL_Driver/Src/stm32f4xx_hal_tim.c **** 
 828:Drivers/STM32F4xx_HAL_Driver/Src/stm32f4xx_hal_tim.c ****     default:
 829:Drivers/STM32F4xx_HAL_Driver/Src/stm32f4xx_hal_tim.c ****       break;
 1384              		.loc 1 829 7
 1385 0094 00BF     		nop
 1386              	.L68:
 830:Drivers/STM32F4xx_HAL_Driver/Src/stm32f4xx_hal_tim.c ****   }
 831:Drivers/STM32F4xx_HAL_Driver/Src/stm32f4xx_hal_tim.c **** 
 832:Drivers/STM32F4xx_HAL_Driver/Src/stm32f4xx_hal_tim.c ****   /* Enable the Output compare channel */
 833:Drivers/STM32F4xx_HAL_Driver/Src/stm32f4xx_hal_tim.c ****   TIM_CCxChannelCmd(htim->Instance, Channel, TIM_CCx_ENABLE);
 1387              		.loc 1 833 3
 1388 0096 7B68     		ldr	r3, [r7, #4]
 1389 0098 1B68     		ldr	r3, [r3]
 1390 009a 0122     		movs	r2, #1
 1391 009c 3968     		ldr	r1, [r7]
 1392 009e 1846     		mov	r0, r3
 1393 00a0 FFF7FEFF 		bl	TIM_CCxChannelCmd
 834:Drivers/STM32F4xx_HAL_Driver/Src/stm32f4xx_hal_tim.c **** 
 835:Drivers/STM32F4xx_HAL_Driver/Src/stm32f4xx_hal_tim.c ****   if (IS_TIM_BREAK_INSTANCE(htim->Instance) != RESET)
 1394              		.loc 1 835 7
 1395 00a4 7B68     		ldr	r3, [r7, #4]
 1396 00a6 1B68     		ldr	r3, [r3]
 1397 00a8 154A     		ldr	r2, .L76
 1398 00aa 9342     		cmp	r3, r2
 1399 00ac 04D0     		beq	.L69
 1400              		.loc 1 835 7 is_stmt 0 discriminator 2
 1401 00ae 7B68     		ldr	r3, [r7, #4]
 1402 00b0 1B68     		ldr	r3, [r3]
 1403 00b2 144A     		ldr	r2, .L76+4
 1404 00b4 9342     		cmp	r3, r2
 1405 00b6 01D1     		bne	.L70
 1406              	.L69:
 1407              		.loc 1 835 7 discriminator 3
 1408 00b8 0123     		movs	r3, #1
 1409 00ba 00E0     		b	.L71
 1410              	.L70:
 1411              		.loc 1 835 7 discriminator 4
 1412 00bc 0023     		movs	r3, #0
 1413              	.L71:
 1414              		.loc 1 835 6 is_stmt 1 discriminator 6
 1415 00be 002B     		cmp	r3, #0
 1416 00c0 07D0     		beq	.L72
 836:Drivers/STM32F4xx_HAL_Driver/Src/stm32f4xx_hal_tim.c ****   {
 837:Drivers/STM32F4xx_HAL_Driver/Src/stm32f4xx_hal_tim.c ****     /* Enable the main output */
 838:Drivers/STM32F4xx_HAL_Driver/Src/stm32f4xx_hal_tim.c ****     __HAL_TIM_MOE_ENABLE(htim);
 1417              		.loc 1 838 5
 1418 00c2 7B68     		ldr	r3, [r7, #4]
ARM GAS  /tmp/ccg0QfjD.s 			page 40


 1419 00c4 1B68     		ldr	r3, [r3]
 1420 00c6 5A6C     		ldr	r2, [r3, #68]
 1421 00c8 7B68     		ldr	r3, [r7, #4]
 1422 00ca 1B68     		ldr	r3, [r3]
 1423 00cc 42F40042 		orr	r2, r2, #32768
 1424 00d0 5A64     		str	r2, [r3, #68]
 1425              	.L72:
 839:Drivers/STM32F4xx_HAL_Driver/Src/stm32f4xx_hal_tim.c ****   }
 840:Drivers/STM32F4xx_HAL_Driver/Src/stm32f4xx_hal_tim.c **** 
 841:Drivers/STM32F4xx_HAL_Driver/Src/stm32f4xx_hal_tim.c ****   /* Enable the Peripheral, except in trigger mode where enable is automatically done with trigger 
 842:Drivers/STM32F4xx_HAL_Driver/Src/stm32f4xx_hal_tim.c ****   tmpsmcr = htim->Instance->SMCR & TIM_SMCR_SMS;
 1426              		.loc 1 842 17
 1427 00d2 7B68     		ldr	r3, [r7, #4]
 1428 00d4 1B68     		ldr	r3, [r3]
 1429              		.loc 1 842 27
 1430 00d6 9B68     		ldr	r3, [r3, #8]
 1431              		.loc 1 842 11
 1432 00d8 03F00703 		and	r3, r3, #7
 1433 00dc FB60     		str	r3, [r7, #12]
 843:Drivers/STM32F4xx_HAL_Driver/Src/stm32f4xx_hal_tim.c ****   if (!IS_TIM_SLAVEMODE_TRIGGER_ENABLED(tmpsmcr))
 1434              		.loc 1 843 6
 1435 00de FB68     		ldr	r3, [r7, #12]
 1436 00e0 062B     		cmp	r3, #6
 1437 00e2 07D0     		beq	.L73
 844:Drivers/STM32F4xx_HAL_Driver/Src/stm32f4xx_hal_tim.c ****   {
 845:Drivers/STM32F4xx_HAL_Driver/Src/stm32f4xx_hal_tim.c ****     __HAL_TIM_ENABLE(htim);
 1438              		.loc 1 845 5
 1439 00e4 7B68     		ldr	r3, [r7, #4]
 1440 00e6 1B68     		ldr	r3, [r3]
 1441 00e8 1A68     		ldr	r2, [r3]
 1442 00ea 7B68     		ldr	r3, [r7, #4]
 1443 00ec 1B68     		ldr	r3, [r3]
 1444 00ee 42F00102 		orr	r2, r2, #1
 1445 00f2 1A60     		str	r2, [r3]
 1446              	.L73:
 846:Drivers/STM32F4xx_HAL_Driver/Src/stm32f4xx_hal_tim.c ****   }
 847:Drivers/STM32F4xx_HAL_Driver/Src/stm32f4xx_hal_tim.c **** 
 848:Drivers/STM32F4xx_HAL_Driver/Src/stm32f4xx_hal_tim.c ****   /* Return function status */
 849:Drivers/STM32F4xx_HAL_Driver/Src/stm32f4xx_hal_tim.c ****   return HAL_OK;
 1447              		.loc 1 849 10
 1448 00f4 0023     		movs	r3, #0
 850:Drivers/STM32F4xx_HAL_Driver/Src/stm32f4xx_hal_tim.c **** }
 1449              		.loc 1 850 1
 1450 00f6 1846     		mov	r0, r3
 1451 00f8 1037     		adds	r7, r7, #16
 1452              	.LCFI91:
 1453              		.cfi_def_cfa_offset 8
 1454 00fa BD46     		mov	sp, r7
 1455              	.LCFI92:
 1456              		.cfi_def_cfa_register 13
 1457              		@ sp needed
 1458 00fc 80BD     		pop	{r7, pc}
 1459              	.L77:
 1460 00fe 00BF     		.align	2
 1461              	.L76:
 1462 0100 00000140 		.word	1073807360
 1463 0104 00040140 		.word	1073808384
ARM GAS  /tmp/ccg0QfjD.s 			page 41


 1464              		.cfi_endproc
 1465              	.LFE146:
 1467              		.section	.text.HAL_TIM_OC_Stop_IT,"ax",%progbits
 1468              		.align	1
 1469              		.global	HAL_TIM_OC_Stop_IT
 1470              		.syntax unified
 1471              		.thumb
 1472              		.thumb_func
 1473              		.fpu fpv4-sp-d16
 1475              	HAL_TIM_OC_Stop_IT:
 1476              	.LFB147:
 851:Drivers/STM32F4xx_HAL_Driver/Src/stm32f4xx_hal_tim.c **** 
 852:Drivers/STM32F4xx_HAL_Driver/Src/stm32f4xx_hal_tim.c **** /**
 853:Drivers/STM32F4xx_HAL_Driver/Src/stm32f4xx_hal_tim.c ****   * @brief  Stops the TIM Output Compare signal generation in interrupt mode.
 854:Drivers/STM32F4xx_HAL_Driver/Src/stm32f4xx_hal_tim.c ****   * @param  htim TIM Output Compare handle
 855:Drivers/STM32F4xx_HAL_Driver/Src/stm32f4xx_hal_tim.c ****   * @param  Channel TIM Channel to be disabled
 856:Drivers/STM32F4xx_HAL_Driver/Src/stm32f4xx_hal_tim.c ****   *          This parameter can be one of the following values:
 857:Drivers/STM32F4xx_HAL_Driver/Src/stm32f4xx_hal_tim.c ****   *            @arg TIM_CHANNEL_1: TIM Channel 1 selected
 858:Drivers/STM32F4xx_HAL_Driver/Src/stm32f4xx_hal_tim.c ****   *            @arg TIM_CHANNEL_2: TIM Channel 2 selected
 859:Drivers/STM32F4xx_HAL_Driver/Src/stm32f4xx_hal_tim.c ****   *            @arg TIM_CHANNEL_3: TIM Channel 3 selected
 860:Drivers/STM32F4xx_HAL_Driver/Src/stm32f4xx_hal_tim.c ****   *            @arg TIM_CHANNEL_4: TIM Channel 4 selected
 861:Drivers/STM32F4xx_HAL_Driver/Src/stm32f4xx_hal_tim.c ****   * @retval HAL status
 862:Drivers/STM32F4xx_HAL_Driver/Src/stm32f4xx_hal_tim.c ****   */
 863:Drivers/STM32F4xx_HAL_Driver/Src/stm32f4xx_hal_tim.c **** HAL_StatusTypeDef HAL_TIM_OC_Stop_IT(TIM_HandleTypeDef *htim, uint32_t Channel)
 864:Drivers/STM32F4xx_HAL_Driver/Src/stm32f4xx_hal_tim.c **** {
 1477              		.loc 1 864 1
 1478              		.cfi_startproc
 1479              		@ args = 0, pretend = 0, frame = 8
 1480              		@ frame_needed = 1, uses_anonymous_args = 0
 1481 0000 80B5     		push	{r7, lr}
 1482              	.LCFI93:
 1483              		.cfi_def_cfa_offset 8
 1484              		.cfi_offset 7, -8
 1485              		.cfi_offset 14, -4
 1486 0002 82B0     		sub	sp, sp, #8
 1487              	.LCFI94:
 1488              		.cfi_def_cfa_offset 16
 1489 0004 00AF     		add	r7, sp, #0
 1490              	.LCFI95:
 1491              		.cfi_def_cfa_register 7
 1492 0006 7860     		str	r0, [r7, #4]
 1493 0008 3960     		str	r1, [r7]
 865:Drivers/STM32F4xx_HAL_Driver/Src/stm32f4xx_hal_tim.c ****   /* Check the parameters */
 866:Drivers/STM32F4xx_HAL_Driver/Src/stm32f4xx_hal_tim.c ****   assert_param(IS_TIM_CCX_INSTANCE(htim->Instance, Channel));
 867:Drivers/STM32F4xx_HAL_Driver/Src/stm32f4xx_hal_tim.c **** 
 868:Drivers/STM32F4xx_HAL_Driver/Src/stm32f4xx_hal_tim.c ****   switch (Channel)
 1494              		.loc 1 868 3
 1495 000a 3B68     		ldr	r3, [r7]
 1496 000c 0C2B     		cmp	r3, #12
 1497 000e 41D8     		bhi	.L92
 1498 0010 01A2     		adr	r2, .L81
 1499 0012 52F823F0 		ldr	pc, [r2, r3, lsl #2]
 1500 0016 00BF     		.p2align 2
 1501              	.L81:
 1502 0018 4D000000 		.word	.L84+1
 1503 001c 95000000 		.word	.L92+1
 1504 0020 95000000 		.word	.L92+1
ARM GAS  /tmp/ccg0QfjD.s 			page 42


 1505 0024 95000000 		.word	.L92+1
 1506 0028 5F000000 		.word	.L83+1
 1507 002c 95000000 		.word	.L92+1
 1508 0030 95000000 		.word	.L92+1
 1509 0034 95000000 		.word	.L92+1
 1510 0038 71000000 		.word	.L82+1
 1511 003c 95000000 		.word	.L92+1
 1512 0040 95000000 		.word	.L92+1
 1513 0044 95000000 		.word	.L92+1
 1514 0048 83000000 		.word	.L80+1
 1515              		.p2align 1
 1516              	.L84:
 869:Drivers/STM32F4xx_HAL_Driver/Src/stm32f4xx_hal_tim.c ****   {
 870:Drivers/STM32F4xx_HAL_Driver/Src/stm32f4xx_hal_tim.c ****     case TIM_CHANNEL_1:
 871:Drivers/STM32F4xx_HAL_Driver/Src/stm32f4xx_hal_tim.c ****     {
 872:Drivers/STM32F4xx_HAL_Driver/Src/stm32f4xx_hal_tim.c ****       /* Disable the TIM Capture/Compare 1 interrupt */
 873:Drivers/STM32F4xx_HAL_Driver/Src/stm32f4xx_hal_tim.c ****       __HAL_TIM_DISABLE_IT(htim, TIM_IT_CC1);
 1517              		.loc 1 873 7
 1518 004c 7B68     		ldr	r3, [r7, #4]
 1519 004e 1B68     		ldr	r3, [r3]
 1520 0050 DA68     		ldr	r2, [r3, #12]
 1521 0052 7B68     		ldr	r3, [r7, #4]
 1522 0054 1B68     		ldr	r3, [r3]
 1523 0056 22F00202 		bic	r2, r2, #2
 1524 005a DA60     		str	r2, [r3, #12]
 874:Drivers/STM32F4xx_HAL_Driver/Src/stm32f4xx_hal_tim.c ****       break;
 1525              		.loc 1 874 7
 1526 005c 1BE0     		b	.L85
 1527              	.L83:
 875:Drivers/STM32F4xx_HAL_Driver/Src/stm32f4xx_hal_tim.c ****     }
 876:Drivers/STM32F4xx_HAL_Driver/Src/stm32f4xx_hal_tim.c **** 
 877:Drivers/STM32F4xx_HAL_Driver/Src/stm32f4xx_hal_tim.c ****     case TIM_CHANNEL_2:
 878:Drivers/STM32F4xx_HAL_Driver/Src/stm32f4xx_hal_tim.c ****     {
 879:Drivers/STM32F4xx_HAL_Driver/Src/stm32f4xx_hal_tim.c ****       /* Disable the TIM Capture/Compare 2 interrupt */
 880:Drivers/STM32F4xx_HAL_Driver/Src/stm32f4xx_hal_tim.c ****       __HAL_TIM_DISABLE_IT(htim, TIM_IT_CC2);
 1528              		.loc 1 880 7
 1529 005e 7B68     		ldr	r3, [r7, #4]
 1530 0060 1B68     		ldr	r3, [r3]
 1531 0062 DA68     		ldr	r2, [r3, #12]
 1532 0064 7B68     		ldr	r3, [r7, #4]
 1533 0066 1B68     		ldr	r3, [r3]
 1534 0068 22F00402 		bic	r2, r2, #4
 1535 006c DA60     		str	r2, [r3, #12]
 881:Drivers/STM32F4xx_HAL_Driver/Src/stm32f4xx_hal_tim.c ****       break;
 1536              		.loc 1 881 7
 1537 006e 12E0     		b	.L85
 1538              	.L82:
 882:Drivers/STM32F4xx_HAL_Driver/Src/stm32f4xx_hal_tim.c ****     }
 883:Drivers/STM32F4xx_HAL_Driver/Src/stm32f4xx_hal_tim.c **** 
 884:Drivers/STM32F4xx_HAL_Driver/Src/stm32f4xx_hal_tim.c ****     case TIM_CHANNEL_3:
 885:Drivers/STM32F4xx_HAL_Driver/Src/stm32f4xx_hal_tim.c ****     {
 886:Drivers/STM32F4xx_HAL_Driver/Src/stm32f4xx_hal_tim.c ****       /* Disable the TIM Capture/Compare 3 interrupt */
 887:Drivers/STM32F4xx_HAL_Driver/Src/stm32f4xx_hal_tim.c ****       __HAL_TIM_DISABLE_IT(htim, TIM_IT_CC3);
 1539              		.loc 1 887 7
 1540 0070 7B68     		ldr	r3, [r7, #4]
 1541 0072 1B68     		ldr	r3, [r3]
 1542 0074 DA68     		ldr	r2, [r3, #12]
ARM GAS  /tmp/ccg0QfjD.s 			page 43


 1543 0076 7B68     		ldr	r3, [r7, #4]
 1544 0078 1B68     		ldr	r3, [r3]
 1545 007a 22F00802 		bic	r2, r2, #8
 1546 007e DA60     		str	r2, [r3, #12]
 888:Drivers/STM32F4xx_HAL_Driver/Src/stm32f4xx_hal_tim.c ****       break;
 1547              		.loc 1 888 7
 1548 0080 09E0     		b	.L85
 1549              	.L80:
 889:Drivers/STM32F4xx_HAL_Driver/Src/stm32f4xx_hal_tim.c ****     }
 890:Drivers/STM32F4xx_HAL_Driver/Src/stm32f4xx_hal_tim.c **** 
 891:Drivers/STM32F4xx_HAL_Driver/Src/stm32f4xx_hal_tim.c ****     case TIM_CHANNEL_4:
 892:Drivers/STM32F4xx_HAL_Driver/Src/stm32f4xx_hal_tim.c ****     {
 893:Drivers/STM32F4xx_HAL_Driver/Src/stm32f4xx_hal_tim.c ****       /* Disable the TIM Capture/Compare 4 interrupt */
 894:Drivers/STM32F4xx_HAL_Driver/Src/stm32f4xx_hal_tim.c ****       __HAL_TIM_DISABLE_IT(htim, TIM_IT_CC4);
 1550              		.loc 1 894 7
 1551 0082 7B68     		ldr	r3, [r7, #4]
 1552 0084 1B68     		ldr	r3, [r3]
 1553 0086 DA68     		ldr	r2, [r3, #12]
 1554 0088 7B68     		ldr	r3, [r7, #4]
 1555 008a 1B68     		ldr	r3, [r3]
 1556 008c 22F01002 		bic	r2, r2, #16
 1557 0090 DA60     		str	r2, [r3, #12]
 895:Drivers/STM32F4xx_HAL_Driver/Src/stm32f4xx_hal_tim.c ****       break;
 1558              		.loc 1 895 7
 1559 0092 00E0     		b	.L85
 1560              	.L92:
 896:Drivers/STM32F4xx_HAL_Driver/Src/stm32f4xx_hal_tim.c ****     }
 897:Drivers/STM32F4xx_HAL_Driver/Src/stm32f4xx_hal_tim.c **** 
 898:Drivers/STM32F4xx_HAL_Driver/Src/stm32f4xx_hal_tim.c ****     default:
 899:Drivers/STM32F4xx_HAL_Driver/Src/stm32f4xx_hal_tim.c ****       break;
 1561              		.loc 1 899 7
 1562 0094 00BF     		nop
 1563              	.L85:
 900:Drivers/STM32F4xx_HAL_Driver/Src/stm32f4xx_hal_tim.c ****   }
 901:Drivers/STM32F4xx_HAL_Driver/Src/stm32f4xx_hal_tim.c **** 
 902:Drivers/STM32F4xx_HAL_Driver/Src/stm32f4xx_hal_tim.c ****   /* Disable the Output compare channel */
 903:Drivers/STM32F4xx_HAL_Driver/Src/stm32f4xx_hal_tim.c ****   TIM_CCxChannelCmd(htim->Instance, Channel, TIM_CCx_DISABLE);
 1564              		.loc 1 903 3
 1565 0096 7B68     		ldr	r3, [r7, #4]
 1566 0098 1B68     		ldr	r3, [r3]
 1567 009a 0022     		movs	r2, #0
 1568 009c 3968     		ldr	r1, [r7]
 1569 009e 1846     		mov	r0, r3
 1570 00a0 FFF7FEFF 		bl	TIM_CCxChannelCmd
 904:Drivers/STM32F4xx_HAL_Driver/Src/stm32f4xx_hal_tim.c **** 
 905:Drivers/STM32F4xx_HAL_Driver/Src/stm32f4xx_hal_tim.c ****   if (IS_TIM_BREAK_INSTANCE(htim->Instance) != RESET)
 1571              		.loc 1 905 7
 1572 00a4 7B68     		ldr	r3, [r7, #4]
 1573 00a6 1B68     		ldr	r3, [r3]
 1574 00a8 204A     		ldr	r2, .L93
 1575 00aa 9342     		cmp	r3, r2
 1576 00ac 04D0     		beq	.L86
 1577              		.loc 1 905 7 is_stmt 0 discriminator 2
 1578 00ae 7B68     		ldr	r3, [r7, #4]
 1579 00b0 1B68     		ldr	r3, [r3]
 1580 00b2 1F4A     		ldr	r2, .L93+4
 1581 00b4 9342     		cmp	r3, r2
ARM GAS  /tmp/ccg0QfjD.s 			page 44


 1582 00b6 01D1     		bne	.L87
 1583              	.L86:
 1584              		.loc 1 905 7 discriminator 3
 1585 00b8 0123     		movs	r3, #1
 1586 00ba 00E0     		b	.L88
 1587              	.L87:
 1588              		.loc 1 905 7 discriminator 4
 1589 00bc 0023     		movs	r3, #0
 1590              	.L88:
 1591              		.loc 1 905 6 is_stmt 1 discriminator 6
 1592 00be 002B     		cmp	r3, #0
 1593 00c0 17D0     		beq	.L89
 906:Drivers/STM32F4xx_HAL_Driver/Src/stm32f4xx_hal_tim.c ****   {
 907:Drivers/STM32F4xx_HAL_Driver/Src/stm32f4xx_hal_tim.c ****     /* Disable the Main Output */
 908:Drivers/STM32F4xx_HAL_Driver/Src/stm32f4xx_hal_tim.c ****     __HAL_TIM_MOE_DISABLE(htim);
 1594              		.loc 1 908 5
 1595 00c2 7B68     		ldr	r3, [r7, #4]
 1596 00c4 1B68     		ldr	r3, [r3]
 1597 00c6 1A6A     		ldr	r2, [r3, #32]
 1598 00c8 41F21113 		movw	r3, #4369
 1599 00cc 1340     		ands	r3, r3, r2
 1600 00ce 002B     		cmp	r3, #0
 1601 00d0 0FD1     		bne	.L89
 1602              		.loc 1 908 5 is_stmt 0 discriminator 1
 1603 00d2 7B68     		ldr	r3, [r7, #4]
 1604 00d4 1B68     		ldr	r3, [r3]
 1605 00d6 1A6A     		ldr	r2, [r3, #32]
 1606 00d8 40F24443 		movw	r3, #1092
 1607 00dc 1340     		ands	r3, r3, r2
 1608 00de 002B     		cmp	r3, #0
 1609 00e0 07D1     		bne	.L89
 1610              		.loc 1 908 5 discriminator 2
 1611 00e2 7B68     		ldr	r3, [r7, #4]
 1612 00e4 1B68     		ldr	r3, [r3]
 1613 00e6 5A6C     		ldr	r2, [r3, #68]
 1614 00e8 7B68     		ldr	r3, [r7, #4]
 1615 00ea 1B68     		ldr	r3, [r3]
 1616 00ec 22F40042 		bic	r2, r2, #32768
 1617 00f0 5A64     		str	r2, [r3, #68]
 1618              	.L89:
 909:Drivers/STM32F4xx_HAL_Driver/Src/stm32f4xx_hal_tim.c ****   }
 910:Drivers/STM32F4xx_HAL_Driver/Src/stm32f4xx_hal_tim.c **** 
 911:Drivers/STM32F4xx_HAL_Driver/Src/stm32f4xx_hal_tim.c ****   /* Disable the Peripheral */
 912:Drivers/STM32F4xx_HAL_Driver/Src/stm32f4xx_hal_tim.c ****   __HAL_TIM_DISABLE(htim);
 1619              		.loc 1 912 3 is_stmt 1
 1620 00f2 7B68     		ldr	r3, [r7, #4]
 1621 00f4 1B68     		ldr	r3, [r3]
 1622 00f6 1A6A     		ldr	r2, [r3, #32]
 1623 00f8 41F21113 		movw	r3, #4369
 1624 00fc 1340     		ands	r3, r3, r2
 1625 00fe 002B     		cmp	r3, #0
 1626 0100 0FD1     		bne	.L90
 1627              		.loc 1 912 3 is_stmt 0 discriminator 1
 1628 0102 7B68     		ldr	r3, [r7, #4]
 1629 0104 1B68     		ldr	r3, [r3]
 1630 0106 1A6A     		ldr	r2, [r3, #32]
 1631 0108 40F24443 		movw	r3, #1092
ARM GAS  /tmp/ccg0QfjD.s 			page 45


 1632 010c 1340     		ands	r3, r3, r2
 1633 010e 002B     		cmp	r3, #0
 1634 0110 07D1     		bne	.L90
 1635              		.loc 1 912 3 discriminator 2
 1636 0112 7B68     		ldr	r3, [r7, #4]
 1637 0114 1B68     		ldr	r3, [r3]
 1638 0116 1A68     		ldr	r2, [r3]
 1639 0118 7B68     		ldr	r3, [r7, #4]
 1640 011a 1B68     		ldr	r3, [r3]
 1641 011c 22F00102 		bic	r2, r2, #1
 1642 0120 1A60     		str	r2, [r3]
 1643              	.L90:
 913:Drivers/STM32F4xx_HAL_Driver/Src/stm32f4xx_hal_tim.c **** 
 914:Drivers/STM32F4xx_HAL_Driver/Src/stm32f4xx_hal_tim.c ****   /* Return function status */
 915:Drivers/STM32F4xx_HAL_Driver/Src/stm32f4xx_hal_tim.c ****   return HAL_OK;
 1644              		.loc 1 915 10 is_stmt 1
 1645 0122 0023     		movs	r3, #0
 916:Drivers/STM32F4xx_HAL_Driver/Src/stm32f4xx_hal_tim.c **** }
 1646              		.loc 1 916 1
 1647 0124 1846     		mov	r0, r3
 1648 0126 0837     		adds	r7, r7, #8
 1649              	.LCFI96:
 1650              		.cfi_def_cfa_offset 8
 1651 0128 BD46     		mov	sp, r7
 1652              	.LCFI97:
 1653              		.cfi_def_cfa_register 13
 1654              		@ sp needed
 1655 012a 80BD     		pop	{r7, pc}
 1656              	.L94:
 1657              		.align	2
 1658              	.L93:
 1659 012c 00000140 		.word	1073807360
 1660 0130 00040140 		.word	1073808384
 1661              		.cfi_endproc
 1662              	.LFE147:
 1664              		.section	.text.HAL_TIM_OC_Start_DMA,"ax",%progbits
 1665              		.align	1
 1666              		.global	HAL_TIM_OC_Start_DMA
 1667              		.syntax unified
 1668              		.thumb
 1669              		.thumb_func
 1670              		.fpu fpv4-sp-d16
 1672              	HAL_TIM_OC_Start_DMA:
 1673              	.LFB148:
 917:Drivers/STM32F4xx_HAL_Driver/Src/stm32f4xx_hal_tim.c **** 
 918:Drivers/STM32F4xx_HAL_Driver/Src/stm32f4xx_hal_tim.c **** /**
 919:Drivers/STM32F4xx_HAL_Driver/Src/stm32f4xx_hal_tim.c ****   * @brief  Starts the TIM Output Compare signal generation in DMA mode.
 920:Drivers/STM32F4xx_HAL_Driver/Src/stm32f4xx_hal_tim.c ****   * @param  htim TIM Output Compare handle
 921:Drivers/STM32F4xx_HAL_Driver/Src/stm32f4xx_hal_tim.c ****   * @param  Channel TIM Channel to be enabled
 922:Drivers/STM32F4xx_HAL_Driver/Src/stm32f4xx_hal_tim.c ****   *          This parameter can be one of the following values:
 923:Drivers/STM32F4xx_HAL_Driver/Src/stm32f4xx_hal_tim.c ****   *            @arg TIM_CHANNEL_1: TIM Channel 1 selected
 924:Drivers/STM32F4xx_HAL_Driver/Src/stm32f4xx_hal_tim.c ****   *            @arg TIM_CHANNEL_2: TIM Channel 2 selected
 925:Drivers/STM32F4xx_HAL_Driver/Src/stm32f4xx_hal_tim.c ****   *            @arg TIM_CHANNEL_3: TIM Channel 3 selected
 926:Drivers/STM32F4xx_HAL_Driver/Src/stm32f4xx_hal_tim.c ****   *            @arg TIM_CHANNEL_4: TIM Channel 4 selected
 927:Drivers/STM32F4xx_HAL_Driver/Src/stm32f4xx_hal_tim.c ****   * @param  pData The source Buffer address.
 928:Drivers/STM32F4xx_HAL_Driver/Src/stm32f4xx_hal_tim.c ****   * @param  Length The length of data to be transferred from memory to TIM peripheral
 929:Drivers/STM32F4xx_HAL_Driver/Src/stm32f4xx_hal_tim.c ****   * @retval HAL status
ARM GAS  /tmp/ccg0QfjD.s 			page 46


 930:Drivers/STM32F4xx_HAL_Driver/Src/stm32f4xx_hal_tim.c ****   */
 931:Drivers/STM32F4xx_HAL_Driver/Src/stm32f4xx_hal_tim.c **** HAL_StatusTypeDef HAL_TIM_OC_Start_DMA(TIM_HandleTypeDef *htim, uint32_t Channel, uint32_t *pData, 
 932:Drivers/STM32F4xx_HAL_Driver/Src/stm32f4xx_hal_tim.c **** {
 1674              		.loc 1 932 1
 1675              		.cfi_startproc
 1676              		@ args = 0, pretend = 0, frame = 24
 1677              		@ frame_needed = 1, uses_anonymous_args = 0
 1678 0000 80B5     		push	{r7, lr}
 1679              	.LCFI98:
 1680              		.cfi_def_cfa_offset 8
 1681              		.cfi_offset 7, -8
 1682              		.cfi_offset 14, -4
 1683 0002 86B0     		sub	sp, sp, #24
 1684              	.LCFI99:
 1685              		.cfi_def_cfa_offset 32
 1686 0004 00AF     		add	r7, sp, #0
 1687              	.LCFI100:
 1688              		.cfi_def_cfa_register 7
 1689 0006 F860     		str	r0, [r7, #12]
 1690 0008 B960     		str	r1, [r7, #8]
 1691 000a 7A60     		str	r2, [r7, #4]
 1692 000c 7B80     		strh	r3, [r7, #2]	@ movhi
 933:Drivers/STM32F4xx_HAL_Driver/Src/stm32f4xx_hal_tim.c ****   uint32_t tmpsmcr;
 934:Drivers/STM32F4xx_HAL_Driver/Src/stm32f4xx_hal_tim.c **** 
 935:Drivers/STM32F4xx_HAL_Driver/Src/stm32f4xx_hal_tim.c ****   /* Check the parameters */
 936:Drivers/STM32F4xx_HAL_Driver/Src/stm32f4xx_hal_tim.c ****   assert_param(IS_TIM_CCX_INSTANCE(htim->Instance, Channel));
 937:Drivers/STM32F4xx_HAL_Driver/Src/stm32f4xx_hal_tim.c **** 
 938:Drivers/STM32F4xx_HAL_Driver/Src/stm32f4xx_hal_tim.c ****   if (htim->State == HAL_TIM_STATE_BUSY)
 1693              		.loc 1 938 11
 1694 000e FB68     		ldr	r3, [r7, #12]
 1695 0010 93F83D30 		ldrb	r3, [r3, #61]
 1696 0014 DBB2     		uxtb	r3, r3
 1697              		.loc 1 938 6
 1698 0016 022B     		cmp	r3, #2
 1699 0018 01D1     		bne	.L96
 939:Drivers/STM32F4xx_HAL_Driver/Src/stm32f4xx_hal_tim.c ****   {
 940:Drivers/STM32F4xx_HAL_Driver/Src/stm32f4xx_hal_tim.c ****     return HAL_BUSY;
 1700              		.loc 1 940 12
 1701 001a 0223     		movs	r3, #2
 1702 001c F3E0     		b	.L97
 1703              	.L96:
 941:Drivers/STM32F4xx_HAL_Driver/Src/stm32f4xx_hal_tim.c ****   }
 942:Drivers/STM32F4xx_HAL_Driver/Src/stm32f4xx_hal_tim.c ****   else if (htim->State == HAL_TIM_STATE_READY)
 1704              		.loc 1 942 16
 1705 001e FB68     		ldr	r3, [r7, #12]
 1706 0020 93F83D30 		ldrb	r3, [r3, #61]
 1707 0024 DBB2     		uxtb	r3, r3
 1708              		.loc 1 942 11
 1709 0026 012B     		cmp	r3, #1
 1710 0028 0BD1     		bne	.L98
 943:Drivers/STM32F4xx_HAL_Driver/Src/stm32f4xx_hal_tim.c ****   {
 944:Drivers/STM32F4xx_HAL_Driver/Src/stm32f4xx_hal_tim.c ****     if ((pData == NULL) && (Length > 0U))
 1711              		.loc 1 944 8
 1712 002a 7B68     		ldr	r3, [r7, #4]
 1713 002c 002B     		cmp	r3, #0
 1714 002e 04D1     		bne	.L99
 1715              		.loc 1 944 25 discriminator 1
ARM GAS  /tmp/ccg0QfjD.s 			page 47


 1716 0030 7B88     		ldrh	r3, [r7, #2]
 1717 0032 002B     		cmp	r3, #0
 1718 0034 01D0     		beq	.L99
 945:Drivers/STM32F4xx_HAL_Driver/Src/stm32f4xx_hal_tim.c ****     {
 946:Drivers/STM32F4xx_HAL_Driver/Src/stm32f4xx_hal_tim.c ****       return HAL_ERROR;
 1719              		.loc 1 946 14
 1720 0036 0123     		movs	r3, #1
 1721 0038 E5E0     		b	.L97
 1722              	.L99:
 947:Drivers/STM32F4xx_HAL_Driver/Src/stm32f4xx_hal_tim.c ****     }
 948:Drivers/STM32F4xx_HAL_Driver/Src/stm32f4xx_hal_tim.c ****     else
 949:Drivers/STM32F4xx_HAL_Driver/Src/stm32f4xx_hal_tim.c ****     {
 950:Drivers/STM32F4xx_HAL_Driver/Src/stm32f4xx_hal_tim.c ****       htim->State = HAL_TIM_STATE_BUSY;
 1723              		.loc 1 950 19
 1724 003a FB68     		ldr	r3, [r7, #12]
 1725 003c 0222     		movs	r2, #2
 1726 003e 83F83D20 		strb	r2, [r3, #61]
 1727              	.L98:
 951:Drivers/STM32F4xx_HAL_Driver/Src/stm32f4xx_hal_tim.c ****     }
 952:Drivers/STM32F4xx_HAL_Driver/Src/stm32f4xx_hal_tim.c ****   }
 953:Drivers/STM32F4xx_HAL_Driver/Src/stm32f4xx_hal_tim.c ****   else
 954:Drivers/STM32F4xx_HAL_Driver/Src/stm32f4xx_hal_tim.c ****   {
 955:Drivers/STM32F4xx_HAL_Driver/Src/stm32f4xx_hal_tim.c ****     /* nothing to do */
 956:Drivers/STM32F4xx_HAL_Driver/Src/stm32f4xx_hal_tim.c ****   }
 957:Drivers/STM32F4xx_HAL_Driver/Src/stm32f4xx_hal_tim.c **** 
 958:Drivers/STM32F4xx_HAL_Driver/Src/stm32f4xx_hal_tim.c ****   switch (Channel)
 1728              		.loc 1 958 3
 1729 0042 BB68     		ldr	r3, [r7, #8]
 1730 0044 0C2B     		cmp	r3, #12
 1731 0046 00F2AD80 		bhi	.L116
 1732 004a 01A2     		adr	r2, .L102
 1733 004c 52F823F0 		ldr	pc, [r2, r3, lsl #2]
 1734              		.p2align 2
 1735              	.L102:
 1736 0050 85000000 		.word	.L105+1
 1737 0054 A5010000 		.word	.L116+1
 1738 0058 A5010000 		.word	.L116+1
 1739 005c A5010000 		.word	.L116+1
 1740 0060 CD000000 		.word	.L104+1
 1741 0064 A5010000 		.word	.L116+1
 1742 0068 A5010000 		.word	.L116+1
 1743 006c A5010000 		.word	.L116+1
 1744 0070 15010000 		.word	.L103+1
 1745 0074 A5010000 		.word	.L116+1
 1746 0078 A5010000 		.word	.L116+1
 1747 007c A5010000 		.word	.L116+1
 1748 0080 5D010000 		.word	.L101+1
 1749              		.p2align 1
 1750              	.L105:
 959:Drivers/STM32F4xx_HAL_Driver/Src/stm32f4xx_hal_tim.c ****   {
 960:Drivers/STM32F4xx_HAL_Driver/Src/stm32f4xx_hal_tim.c ****     case TIM_CHANNEL_1:
 961:Drivers/STM32F4xx_HAL_Driver/Src/stm32f4xx_hal_tim.c ****     {
 962:Drivers/STM32F4xx_HAL_Driver/Src/stm32f4xx_hal_tim.c ****       /* Set the DMA compare callbacks */
 963:Drivers/STM32F4xx_HAL_Driver/Src/stm32f4xx_hal_tim.c ****       htim->hdma[TIM_DMA_ID_CC1]->XferCpltCallback = TIM_DMADelayPulseCplt;
 1751              		.loc 1 963 17
 1752 0084 FB68     		ldr	r3, [r7, #12]
 1753 0086 5B6A     		ldr	r3, [r3, #36]
ARM GAS  /tmp/ccg0QfjD.s 			page 48


 1754              		.loc 1 963 52
 1755 0088 614A     		ldr	r2, .L117
 1756 008a DA63     		str	r2, [r3, #60]
 964:Drivers/STM32F4xx_HAL_Driver/Src/stm32f4xx_hal_tim.c ****       htim->hdma[TIM_DMA_ID_CC1]->XferHalfCpltCallback = TIM_DMADelayPulseHalfCplt;
 1757              		.loc 1 964 17
 1758 008c FB68     		ldr	r3, [r7, #12]
 1759 008e 5B6A     		ldr	r3, [r3, #36]
 1760              		.loc 1 964 56
 1761 0090 604A     		ldr	r2, .L117+4
 1762 0092 1A64     		str	r2, [r3, #64]
 965:Drivers/STM32F4xx_HAL_Driver/Src/stm32f4xx_hal_tim.c **** 
 966:Drivers/STM32F4xx_HAL_Driver/Src/stm32f4xx_hal_tim.c ****       /* Set the DMA error callback */
 967:Drivers/STM32F4xx_HAL_Driver/Src/stm32f4xx_hal_tim.c ****       htim->hdma[TIM_DMA_ID_CC1]->XferErrorCallback = TIM_DMAError ;
 1763              		.loc 1 967 17
 1764 0094 FB68     		ldr	r3, [r7, #12]
 1765 0096 5B6A     		ldr	r3, [r3, #36]
 1766              		.loc 1 967 53
 1767 0098 5F4A     		ldr	r2, .L117+8
 1768 009a DA64     		str	r2, [r3, #76]
 968:Drivers/STM32F4xx_HAL_Driver/Src/stm32f4xx_hal_tim.c **** 
 969:Drivers/STM32F4xx_HAL_Driver/Src/stm32f4xx_hal_tim.c ****       /* Enable the DMA stream */
 970:Drivers/STM32F4xx_HAL_Driver/Src/stm32f4xx_hal_tim.c ****       if (HAL_DMA_Start_IT(htim->hdma[TIM_DMA_ID_CC1], (uint32_t)pData, (uint32_t)&htim->Instance->
 1769              		.loc 1 970 11
 1770 009c FB68     		ldr	r3, [r7, #12]
 1771 009e 586A     		ldr	r0, [r3, #36]
 1772 00a0 7968     		ldr	r1, [r7, #4]
 1773              		.loc 1 970 88
 1774 00a2 FB68     		ldr	r3, [r7, #12]
 1775 00a4 1B68     		ldr	r3, [r3]
 1776              		.loc 1 970 83
 1777 00a6 3433     		adds	r3, r3, #52
 1778              		.loc 1 970 11
 1779 00a8 1A46     		mov	r2, r3
 1780 00aa 7B88     		ldrh	r3, [r7, #2]
 1781 00ac FFF7FEFF 		bl	HAL_DMA_Start_IT
 1782 00b0 0346     		mov	r3, r0
 1783              		.loc 1 970 10
 1784 00b2 002B     		cmp	r3, #0
 1785 00b4 01D0     		beq	.L106
 971:Drivers/STM32F4xx_HAL_Driver/Src/stm32f4xx_hal_tim.c ****       {
 972:Drivers/STM32F4xx_HAL_Driver/Src/stm32f4xx_hal_tim.c ****         return HAL_ERROR;
 1786              		.loc 1 972 16
 1787 00b6 0123     		movs	r3, #1
 1788 00b8 A5E0     		b	.L97
 1789              	.L106:
 973:Drivers/STM32F4xx_HAL_Driver/Src/stm32f4xx_hal_tim.c ****       }
 974:Drivers/STM32F4xx_HAL_Driver/Src/stm32f4xx_hal_tim.c **** 
 975:Drivers/STM32F4xx_HAL_Driver/Src/stm32f4xx_hal_tim.c ****       /* Enable the TIM Capture/Compare 1 DMA request */
 976:Drivers/STM32F4xx_HAL_Driver/Src/stm32f4xx_hal_tim.c ****       __HAL_TIM_ENABLE_DMA(htim, TIM_DMA_CC1);
 1790              		.loc 1 976 7
 1791 00ba FB68     		ldr	r3, [r7, #12]
 1792 00bc 1B68     		ldr	r3, [r3]
 1793 00be DA68     		ldr	r2, [r3, #12]
 1794 00c0 FB68     		ldr	r3, [r7, #12]
 1795 00c2 1B68     		ldr	r3, [r3]
 1796 00c4 42F40072 		orr	r2, r2, #512
 1797 00c8 DA60     		str	r2, [r3, #12]
ARM GAS  /tmp/ccg0QfjD.s 			page 49


 977:Drivers/STM32F4xx_HAL_Driver/Src/stm32f4xx_hal_tim.c ****       break;
 1798              		.loc 1 977 7
 1799 00ca 6CE0     		b	.L107
 1800              	.L104:
 978:Drivers/STM32F4xx_HAL_Driver/Src/stm32f4xx_hal_tim.c ****     }
 979:Drivers/STM32F4xx_HAL_Driver/Src/stm32f4xx_hal_tim.c **** 
 980:Drivers/STM32F4xx_HAL_Driver/Src/stm32f4xx_hal_tim.c ****     case TIM_CHANNEL_2:
 981:Drivers/STM32F4xx_HAL_Driver/Src/stm32f4xx_hal_tim.c ****     {
 982:Drivers/STM32F4xx_HAL_Driver/Src/stm32f4xx_hal_tim.c ****       /* Set the DMA compare callbacks */
 983:Drivers/STM32F4xx_HAL_Driver/Src/stm32f4xx_hal_tim.c ****       htim->hdma[TIM_DMA_ID_CC2]->XferCpltCallback = TIM_DMADelayPulseCplt;
 1801              		.loc 1 983 17
 1802 00cc FB68     		ldr	r3, [r7, #12]
 1803 00ce 9B6A     		ldr	r3, [r3, #40]
 1804              		.loc 1 983 52
 1805 00d0 4F4A     		ldr	r2, .L117
 1806 00d2 DA63     		str	r2, [r3, #60]
 984:Drivers/STM32F4xx_HAL_Driver/Src/stm32f4xx_hal_tim.c ****       htim->hdma[TIM_DMA_ID_CC2]->XferHalfCpltCallback = TIM_DMADelayPulseHalfCplt;
 1807              		.loc 1 984 17
 1808 00d4 FB68     		ldr	r3, [r7, #12]
 1809 00d6 9B6A     		ldr	r3, [r3, #40]
 1810              		.loc 1 984 56
 1811 00d8 4E4A     		ldr	r2, .L117+4
 1812 00da 1A64     		str	r2, [r3, #64]
 985:Drivers/STM32F4xx_HAL_Driver/Src/stm32f4xx_hal_tim.c **** 
 986:Drivers/STM32F4xx_HAL_Driver/Src/stm32f4xx_hal_tim.c ****       /* Set the DMA error callback */
 987:Drivers/STM32F4xx_HAL_Driver/Src/stm32f4xx_hal_tim.c ****       htim->hdma[TIM_DMA_ID_CC2]->XferErrorCallback = TIM_DMAError ;
 1813              		.loc 1 987 17
 1814 00dc FB68     		ldr	r3, [r7, #12]
 1815 00de 9B6A     		ldr	r3, [r3, #40]
 1816              		.loc 1 987 53
 1817 00e0 4D4A     		ldr	r2, .L117+8
 1818 00e2 DA64     		str	r2, [r3, #76]
 988:Drivers/STM32F4xx_HAL_Driver/Src/stm32f4xx_hal_tim.c **** 
 989:Drivers/STM32F4xx_HAL_Driver/Src/stm32f4xx_hal_tim.c ****       /* Enable the DMA stream */
 990:Drivers/STM32F4xx_HAL_Driver/Src/stm32f4xx_hal_tim.c ****       if (HAL_DMA_Start_IT(htim->hdma[TIM_DMA_ID_CC2], (uint32_t)pData, (uint32_t)&htim->Instance->
 1819              		.loc 1 990 11
 1820 00e4 FB68     		ldr	r3, [r7, #12]
 1821 00e6 986A     		ldr	r0, [r3, #40]
 1822 00e8 7968     		ldr	r1, [r7, #4]
 1823              		.loc 1 990 88
 1824 00ea FB68     		ldr	r3, [r7, #12]
 1825 00ec 1B68     		ldr	r3, [r3]
 1826              		.loc 1 990 83
 1827 00ee 3833     		adds	r3, r3, #56
 1828              		.loc 1 990 11
 1829 00f0 1A46     		mov	r2, r3
 1830 00f2 7B88     		ldrh	r3, [r7, #2]
 1831 00f4 FFF7FEFF 		bl	HAL_DMA_Start_IT
 1832 00f8 0346     		mov	r3, r0
 1833              		.loc 1 990 10
 1834 00fa 002B     		cmp	r3, #0
 1835 00fc 01D0     		beq	.L108
 991:Drivers/STM32F4xx_HAL_Driver/Src/stm32f4xx_hal_tim.c ****       {
 992:Drivers/STM32F4xx_HAL_Driver/Src/stm32f4xx_hal_tim.c ****         return HAL_ERROR;
 1836              		.loc 1 992 16
 1837 00fe 0123     		movs	r3, #1
 1838 0100 81E0     		b	.L97
ARM GAS  /tmp/ccg0QfjD.s 			page 50


 1839              	.L108:
 993:Drivers/STM32F4xx_HAL_Driver/Src/stm32f4xx_hal_tim.c ****       }
 994:Drivers/STM32F4xx_HAL_Driver/Src/stm32f4xx_hal_tim.c **** 
 995:Drivers/STM32F4xx_HAL_Driver/Src/stm32f4xx_hal_tim.c ****       /* Enable the TIM Capture/Compare 2 DMA request */
 996:Drivers/STM32F4xx_HAL_Driver/Src/stm32f4xx_hal_tim.c ****       __HAL_TIM_ENABLE_DMA(htim, TIM_DMA_CC2);
 1840              		.loc 1 996 7
 1841 0102 FB68     		ldr	r3, [r7, #12]
 1842 0104 1B68     		ldr	r3, [r3]
 1843 0106 DA68     		ldr	r2, [r3, #12]
 1844 0108 FB68     		ldr	r3, [r7, #12]
 1845 010a 1B68     		ldr	r3, [r3]
 1846 010c 42F48062 		orr	r2, r2, #1024
 1847 0110 DA60     		str	r2, [r3, #12]
 997:Drivers/STM32F4xx_HAL_Driver/Src/stm32f4xx_hal_tim.c ****       break;
 1848              		.loc 1 997 7
 1849 0112 48E0     		b	.L107
 1850              	.L103:
 998:Drivers/STM32F4xx_HAL_Driver/Src/stm32f4xx_hal_tim.c ****     }
 999:Drivers/STM32F4xx_HAL_Driver/Src/stm32f4xx_hal_tim.c **** 
1000:Drivers/STM32F4xx_HAL_Driver/Src/stm32f4xx_hal_tim.c ****     case TIM_CHANNEL_3:
1001:Drivers/STM32F4xx_HAL_Driver/Src/stm32f4xx_hal_tim.c ****     {
1002:Drivers/STM32F4xx_HAL_Driver/Src/stm32f4xx_hal_tim.c ****       /* Set the DMA compare callbacks */
1003:Drivers/STM32F4xx_HAL_Driver/Src/stm32f4xx_hal_tim.c ****       htim->hdma[TIM_DMA_ID_CC3]->XferCpltCallback = TIM_DMADelayPulseCplt;
 1851              		.loc 1 1003 17
 1852 0114 FB68     		ldr	r3, [r7, #12]
 1853 0116 DB6A     		ldr	r3, [r3, #44]
 1854              		.loc 1 1003 52
 1855 0118 3D4A     		ldr	r2, .L117
 1856 011a DA63     		str	r2, [r3, #60]
1004:Drivers/STM32F4xx_HAL_Driver/Src/stm32f4xx_hal_tim.c ****       htim->hdma[TIM_DMA_ID_CC3]->XferHalfCpltCallback = TIM_DMADelayPulseHalfCplt;
 1857              		.loc 1 1004 17
 1858 011c FB68     		ldr	r3, [r7, #12]
 1859 011e DB6A     		ldr	r3, [r3, #44]
 1860              		.loc 1 1004 56
 1861 0120 3C4A     		ldr	r2, .L117+4
 1862 0122 1A64     		str	r2, [r3, #64]
1005:Drivers/STM32F4xx_HAL_Driver/Src/stm32f4xx_hal_tim.c **** 
1006:Drivers/STM32F4xx_HAL_Driver/Src/stm32f4xx_hal_tim.c ****       /* Set the DMA error callback */
1007:Drivers/STM32F4xx_HAL_Driver/Src/stm32f4xx_hal_tim.c ****       htim->hdma[TIM_DMA_ID_CC3]->XferErrorCallback = TIM_DMAError ;
 1863              		.loc 1 1007 17
 1864 0124 FB68     		ldr	r3, [r7, #12]
 1865 0126 DB6A     		ldr	r3, [r3, #44]
 1866              		.loc 1 1007 53
 1867 0128 3B4A     		ldr	r2, .L117+8
 1868 012a DA64     		str	r2, [r3, #76]
1008:Drivers/STM32F4xx_HAL_Driver/Src/stm32f4xx_hal_tim.c **** 
1009:Drivers/STM32F4xx_HAL_Driver/Src/stm32f4xx_hal_tim.c ****       /* Enable the DMA stream */
1010:Drivers/STM32F4xx_HAL_Driver/Src/stm32f4xx_hal_tim.c ****       if (HAL_DMA_Start_IT(htim->hdma[TIM_DMA_ID_CC3], (uint32_t)pData, (uint32_t)&htim->Instance->
 1869              		.loc 1 1010 11
 1870 012c FB68     		ldr	r3, [r7, #12]
 1871 012e D86A     		ldr	r0, [r3, #44]
 1872 0130 7968     		ldr	r1, [r7, #4]
 1873              		.loc 1 1010 88
 1874 0132 FB68     		ldr	r3, [r7, #12]
 1875 0134 1B68     		ldr	r3, [r3]
 1876              		.loc 1 1010 83
 1877 0136 3C33     		adds	r3, r3, #60
ARM GAS  /tmp/ccg0QfjD.s 			page 51


 1878              		.loc 1 1010 11
 1879 0138 1A46     		mov	r2, r3
 1880 013a 7B88     		ldrh	r3, [r7, #2]
 1881 013c FFF7FEFF 		bl	HAL_DMA_Start_IT
 1882 0140 0346     		mov	r3, r0
 1883              		.loc 1 1010 10
 1884 0142 002B     		cmp	r3, #0
 1885 0144 01D0     		beq	.L109
1011:Drivers/STM32F4xx_HAL_Driver/Src/stm32f4xx_hal_tim.c ****       {
1012:Drivers/STM32F4xx_HAL_Driver/Src/stm32f4xx_hal_tim.c ****         return HAL_ERROR;
 1886              		.loc 1 1012 16
 1887 0146 0123     		movs	r3, #1
 1888 0148 5DE0     		b	.L97
 1889              	.L109:
1013:Drivers/STM32F4xx_HAL_Driver/Src/stm32f4xx_hal_tim.c ****       }
1014:Drivers/STM32F4xx_HAL_Driver/Src/stm32f4xx_hal_tim.c ****       /* Enable the TIM Capture/Compare 3 DMA request */
1015:Drivers/STM32F4xx_HAL_Driver/Src/stm32f4xx_hal_tim.c ****       __HAL_TIM_ENABLE_DMA(htim, TIM_DMA_CC3);
 1890              		.loc 1 1015 7
 1891 014a FB68     		ldr	r3, [r7, #12]
 1892 014c 1B68     		ldr	r3, [r3]
 1893 014e DA68     		ldr	r2, [r3, #12]
 1894 0150 FB68     		ldr	r3, [r7, #12]
 1895 0152 1B68     		ldr	r3, [r3]
 1896 0154 42F40062 		orr	r2, r2, #2048
 1897 0158 DA60     		str	r2, [r3, #12]
1016:Drivers/STM32F4xx_HAL_Driver/Src/stm32f4xx_hal_tim.c ****       break;
 1898              		.loc 1 1016 7
 1899 015a 24E0     		b	.L107
 1900              	.L101:
1017:Drivers/STM32F4xx_HAL_Driver/Src/stm32f4xx_hal_tim.c ****     }
1018:Drivers/STM32F4xx_HAL_Driver/Src/stm32f4xx_hal_tim.c **** 
1019:Drivers/STM32F4xx_HAL_Driver/Src/stm32f4xx_hal_tim.c ****     case TIM_CHANNEL_4:
1020:Drivers/STM32F4xx_HAL_Driver/Src/stm32f4xx_hal_tim.c ****     {
1021:Drivers/STM32F4xx_HAL_Driver/Src/stm32f4xx_hal_tim.c ****       /* Set the DMA compare callbacks */
1022:Drivers/STM32F4xx_HAL_Driver/Src/stm32f4xx_hal_tim.c ****       htim->hdma[TIM_DMA_ID_CC4]->XferCpltCallback = TIM_DMADelayPulseCplt;
 1901              		.loc 1 1022 17
 1902 015c FB68     		ldr	r3, [r7, #12]
 1903 015e 1B6B     		ldr	r3, [r3, #48]
 1904              		.loc 1 1022 52
 1905 0160 2B4A     		ldr	r2, .L117
 1906 0162 DA63     		str	r2, [r3, #60]
1023:Drivers/STM32F4xx_HAL_Driver/Src/stm32f4xx_hal_tim.c ****       htim->hdma[TIM_DMA_ID_CC4]->XferHalfCpltCallback = TIM_DMADelayPulseHalfCplt;
 1907              		.loc 1 1023 17
 1908 0164 FB68     		ldr	r3, [r7, #12]
 1909 0166 1B6B     		ldr	r3, [r3, #48]
 1910              		.loc 1 1023 56
 1911 0168 2A4A     		ldr	r2, .L117+4
 1912 016a 1A64     		str	r2, [r3, #64]
1024:Drivers/STM32F4xx_HAL_Driver/Src/stm32f4xx_hal_tim.c **** 
1025:Drivers/STM32F4xx_HAL_Driver/Src/stm32f4xx_hal_tim.c ****       /* Set the DMA error callback */
1026:Drivers/STM32F4xx_HAL_Driver/Src/stm32f4xx_hal_tim.c ****       htim->hdma[TIM_DMA_ID_CC4]->XferErrorCallback = TIM_DMAError ;
 1913              		.loc 1 1026 17
 1914 016c FB68     		ldr	r3, [r7, #12]
 1915 016e 1B6B     		ldr	r3, [r3, #48]
 1916              		.loc 1 1026 53
 1917 0170 294A     		ldr	r2, .L117+8
 1918 0172 DA64     		str	r2, [r3, #76]
ARM GAS  /tmp/ccg0QfjD.s 			page 52


1027:Drivers/STM32F4xx_HAL_Driver/Src/stm32f4xx_hal_tim.c **** 
1028:Drivers/STM32F4xx_HAL_Driver/Src/stm32f4xx_hal_tim.c ****       /* Enable the DMA stream */
1029:Drivers/STM32F4xx_HAL_Driver/Src/stm32f4xx_hal_tim.c ****       if (HAL_DMA_Start_IT(htim->hdma[TIM_DMA_ID_CC4], (uint32_t)pData, (uint32_t)&htim->Instance->
 1919              		.loc 1 1029 11
 1920 0174 FB68     		ldr	r3, [r7, #12]
 1921 0176 186B     		ldr	r0, [r3, #48]
 1922 0178 7968     		ldr	r1, [r7, #4]
 1923              		.loc 1 1029 88
 1924 017a FB68     		ldr	r3, [r7, #12]
 1925 017c 1B68     		ldr	r3, [r3]
 1926              		.loc 1 1029 83
 1927 017e 4033     		adds	r3, r3, #64
 1928              		.loc 1 1029 11
 1929 0180 1A46     		mov	r2, r3
 1930 0182 7B88     		ldrh	r3, [r7, #2]
 1931 0184 FFF7FEFF 		bl	HAL_DMA_Start_IT
 1932 0188 0346     		mov	r3, r0
 1933              		.loc 1 1029 10
 1934 018a 002B     		cmp	r3, #0
 1935 018c 01D0     		beq	.L110
1030:Drivers/STM32F4xx_HAL_Driver/Src/stm32f4xx_hal_tim.c ****       {
1031:Drivers/STM32F4xx_HAL_Driver/Src/stm32f4xx_hal_tim.c ****         return HAL_ERROR;
 1936              		.loc 1 1031 16
 1937 018e 0123     		movs	r3, #1
 1938 0190 39E0     		b	.L97
 1939              	.L110:
1032:Drivers/STM32F4xx_HAL_Driver/Src/stm32f4xx_hal_tim.c ****       }
1033:Drivers/STM32F4xx_HAL_Driver/Src/stm32f4xx_hal_tim.c ****       /* Enable the TIM Capture/Compare 4 DMA request */
1034:Drivers/STM32F4xx_HAL_Driver/Src/stm32f4xx_hal_tim.c ****       __HAL_TIM_ENABLE_DMA(htim, TIM_DMA_CC4);
 1940              		.loc 1 1034 7
 1941 0192 FB68     		ldr	r3, [r7, #12]
 1942 0194 1B68     		ldr	r3, [r3]
 1943 0196 DA68     		ldr	r2, [r3, #12]
 1944 0198 FB68     		ldr	r3, [r7, #12]
 1945 019a 1B68     		ldr	r3, [r3]
 1946 019c 42F48052 		orr	r2, r2, #4096
 1947 01a0 DA60     		str	r2, [r3, #12]
1035:Drivers/STM32F4xx_HAL_Driver/Src/stm32f4xx_hal_tim.c ****       break;
 1948              		.loc 1 1035 7
 1949 01a2 00E0     		b	.L107
 1950              	.L116:
1036:Drivers/STM32F4xx_HAL_Driver/Src/stm32f4xx_hal_tim.c ****     }
1037:Drivers/STM32F4xx_HAL_Driver/Src/stm32f4xx_hal_tim.c **** 
1038:Drivers/STM32F4xx_HAL_Driver/Src/stm32f4xx_hal_tim.c ****     default:
1039:Drivers/STM32F4xx_HAL_Driver/Src/stm32f4xx_hal_tim.c ****       break;
 1951              		.loc 1 1039 7
 1952 01a4 00BF     		nop
 1953              	.L107:
1040:Drivers/STM32F4xx_HAL_Driver/Src/stm32f4xx_hal_tim.c ****   }
1041:Drivers/STM32F4xx_HAL_Driver/Src/stm32f4xx_hal_tim.c **** 
1042:Drivers/STM32F4xx_HAL_Driver/Src/stm32f4xx_hal_tim.c ****   /* Enable the Output compare channel */
1043:Drivers/STM32F4xx_HAL_Driver/Src/stm32f4xx_hal_tim.c ****   TIM_CCxChannelCmd(htim->Instance, Channel, TIM_CCx_ENABLE);
 1954              		.loc 1 1043 3
 1955 01a6 FB68     		ldr	r3, [r7, #12]
 1956 01a8 1B68     		ldr	r3, [r3]
 1957 01aa 0122     		movs	r2, #1
 1958 01ac B968     		ldr	r1, [r7, #8]
ARM GAS  /tmp/ccg0QfjD.s 			page 53


 1959 01ae 1846     		mov	r0, r3
 1960 01b0 FFF7FEFF 		bl	TIM_CCxChannelCmd
1044:Drivers/STM32F4xx_HAL_Driver/Src/stm32f4xx_hal_tim.c **** 
1045:Drivers/STM32F4xx_HAL_Driver/Src/stm32f4xx_hal_tim.c ****   if (IS_TIM_BREAK_INSTANCE(htim->Instance) != RESET)
 1961              		.loc 1 1045 7
 1962 01b4 FB68     		ldr	r3, [r7, #12]
 1963 01b6 1B68     		ldr	r3, [r3]
 1964 01b8 184A     		ldr	r2, .L117+12
 1965 01ba 9342     		cmp	r3, r2
 1966 01bc 04D0     		beq	.L111
 1967              		.loc 1 1045 7 is_stmt 0 discriminator 2
 1968 01be FB68     		ldr	r3, [r7, #12]
 1969 01c0 1B68     		ldr	r3, [r3]
 1970 01c2 174A     		ldr	r2, .L117+16
 1971 01c4 9342     		cmp	r3, r2
 1972 01c6 01D1     		bne	.L112
 1973              	.L111:
 1974              		.loc 1 1045 7 discriminator 3
 1975 01c8 0123     		movs	r3, #1
 1976 01ca 00E0     		b	.L113
 1977              	.L112:
 1978              		.loc 1 1045 7 discriminator 4
 1979 01cc 0023     		movs	r3, #0
 1980              	.L113:
 1981              		.loc 1 1045 6 is_stmt 1 discriminator 6
 1982 01ce 002B     		cmp	r3, #0
 1983 01d0 07D0     		beq	.L114
1046:Drivers/STM32F4xx_HAL_Driver/Src/stm32f4xx_hal_tim.c ****   {
1047:Drivers/STM32F4xx_HAL_Driver/Src/stm32f4xx_hal_tim.c ****     /* Enable the main output */
1048:Drivers/STM32F4xx_HAL_Driver/Src/stm32f4xx_hal_tim.c ****     __HAL_TIM_MOE_ENABLE(htim);
 1984              		.loc 1 1048 5
 1985 01d2 FB68     		ldr	r3, [r7, #12]
 1986 01d4 1B68     		ldr	r3, [r3]
 1987 01d6 5A6C     		ldr	r2, [r3, #68]
 1988 01d8 FB68     		ldr	r3, [r7, #12]
 1989 01da 1B68     		ldr	r3, [r3]
 1990 01dc 42F40042 		orr	r2, r2, #32768
 1991 01e0 5A64     		str	r2, [r3, #68]
 1992              	.L114:
1049:Drivers/STM32F4xx_HAL_Driver/Src/stm32f4xx_hal_tim.c ****   }
1050:Drivers/STM32F4xx_HAL_Driver/Src/stm32f4xx_hal_tim.c **** 
1051:Drivers/STM32F4xx_HAL_Driver/Src/stm32f4xx_hal_tim.c ****   /* Enable the Peripheral, except in trigger mode where enable is automatically done with trigger 
1052:Drivers/STM32F4xx_HAL_Driver/Src/stm32f4xx_hal_tim.c ****   tmpsmcr = htim->Instance->SMCR & TIM_SMCR_SMS;
 1993              		.loc 1 1052 17
 1994 01e2 FB68     		ldr	r3, [r7, #12]
 1995 01e4 1B68     		ldr	r3, [r3]
 1996              		.loc 1 1052 27
 1997 01e6 9B68     		ldr	r3, [r3, #8]
 1998              		.loc 1 1052 11
 1999 01e8 03F00703 		and	r3, r3, #7
 2000 01ec 7B61     		str	r3, [r7, #20]
1053:Drivers/STM32F4xx_HAL_Driver/Src/stm32f4xx_hal_tim.c ****   if (!IS_TIM_SLAVEMODE_TRIGGER_ENABLED(tmpsmcr))
 2001              		.loc 1 1053 6
 2002 01ee 7B69     		ldr	r3, [r7, #20]
 2003 01f0 062B     		cmp	r3, #6
 2004 01f2 07D0     		beq	.L115
1054:Drivers/STM32F4xx_HAL_Driver/Src/stm32f4xx_hal_tim.c ****   {
ARM GAS  /tmp/ccg0QfjD.s 			page 54


1055:Drivers/STM32F4xx_HAL_Driver/Src/stm32f4xx_hal_tim.c ****     __HAL_TIM_ENABLE(htim);
 2005              		.loc 1 1055 5
 2006 01f4 FB68     		ldr	r3, [r7, #12]
 2007 01f6 1B68     		ldr	r3, [r3]
 2008 01f8 1A68     		ldr	r2, [r3]
 2009 01fa FB68     		ldr	r3, [r7, #12]
 2010 01fc 1B68     		ldr	r3, [r3]
 2011 01fe 42F00102 		orr	r2, r2, #1
 2012 0202 1A60     		str	r2, [r3]
 2013              	.L115:
1056:Drivers/STM32F4xx_HAL_Driver/Src/stm32f4xx_hal_tim.c ****   }
1057:Drivers/STM32F4xx_HAL_Driver/Src/stm32f4xx_hal_tim.c **** 
1058:Drivers/STM32F4xx_HAL_Driver/Src/stm32f4xx_hal_tim.c ****   /* Return function status */
1059:Drivers/STM32F4xx_HAL_Driver/Src/stm32f4xx_hal_tim.c ****   return HAL_OK;
 2014              		.loc 1 1059 10
 2015 0204 0023     		movs	r3, #0
 2016              	.L97:
1060:Drivers/STM32F4xx_HAL_Driver/Src/stm32f4xx_hal_tim.c **** }
 2017              		.loc 1 1060 1
 2018 0206 1846     		mov	r0, r3
 2019 0208 1837     		adds	r7, r7, #24
 2020              	.LCFI101:
 2021              		.cfi_def_cfa_offset 8
 2022 020a BD46     		mov	sp, r7
 2023              	.LCFI102:
 2024              		.cfi_def_cfa_register 13
 2025              		@ sp needed
 2026 020c 80BD     		pop	{r7, pc}
 2027              	.L118:
 2028 020e 00BF     		.align	2
 2029              	.L117:
 2030 0210 00000000 		.word	TIM_DMADelayPulseCplt
 2031 0214 00000000 		.word	TIM_DMADelayPulseHalfCplt
 2032 0218 00000000 		.word	TIM_DMAError
 2033 021c 00000140 		.word	1073807360
 2034 0220 00040140 		.word	1073808384
 2035              		.cfi_endproc
 2036              	.LFE148:
 2038              		.section	.text.HAL_TIM_OC_Stop_DMA,"ax",%progbits
 2039              		.align	1
 2040              		.global	HAL_TIM_OC_Stop_DMA
 2041              		.syntax unified
 2042              		.thumb
 2043              		.thumb_func
 2044              		.fpu fpv4-sp-d16
 2046              	HAL_TIM_OC_Stop_DMA:
 2047              	.LFB149:
1061:Drivers/STM32F4xx_HAL_Driver/Src/stm32f4xx_hal_tim.c **** 
1062:Drivers/STM32F4xx_HAL_Driver/Src/stm32f4xx_hal_tim.c **** /**
1063:Drivers/STM32F4xx_HAL_Driver/Src/stm32f4xx_hal_tim.c ****   * @brief  Stops the TIM Output Compare signal generation in DMA mode.
1064:Drivers/STM32F4xx_HAL_Driver/Src/stm32f4xx_hal_tim.c ****   * @param  htim TIM Output Compare handle
1065:Drivers/STM32F4xx_HAL_Driver/Src/stm32f4xx_hal_tim.c ****   * @param  Channel TIM Channel to be disabled
1066:Drivers/STM32F4xx_HAL_Driver/Src/stm32f4xx_hal_tim.c ****   *          This parameter can be one of the following values:
1067:Drivers/STM32F4xx_HAL_Driver/Src/stm32f4xx_hal_tim.c ****   *            @arg TIM_CHANNEL_1: TIM Channel 1 selected
1068:Drivers/STM32F4xx_HAL_Driver/Src/stm32f4xx_hal_tim.c ****   *            @arg TIM_CHANNEL_2: TIM Channel 2 selected
1069:Drivers/STM32F4xx_HAL_Driver/Src/stm32f4xx_hal_tim.c ****   *            @arg TIM_CHANNEL_3: TIM Channel 3 selected
1070:Drivers/STM32F4xx_HAL_Driver/Src/stm32f4xx_hal_tim.c ****   *            @arg TIM_CHANNEL_4: TIM Channel 4 selected
ARM GAS  /tmp/ccg0QfjD.s 			page 55


1071:Drivers/STM32F4xx_HAL_Driver/Src/stm32f4xx_hal_tim.c ****   * @retval HAL status
1072:Drivers/STM32F4xx_HAL_Driver/Src/stm32f4xx_hal_tim.c ****   */
1073:Drivers/STM32F4xx_HAL_Driver/Src/stm32f4xx_hal_tim.c **** HAL_StatusTypeDef HAL_TIM_OC_Stop_DMA(TIM_HandleTypeDef *htim, uint32_t Channel)
1074:Drivers/STM32F4xx_HAL_Driver/Src/stm32f4xx_hal_tim.c **** {
 2048              		.loc 1 1074 1
 2049              		.cfi_startproc
 2050              		@ args = 0, pretend = 0, frame = 8
 2051              		@ frame_needed = 1, uses_anonymous_args = 0
 2052 0000 80B5     		push	{r7, lr}
 2053              	.LCFI103:
 2054              		.cfi_def_cfa_offset 8
 2055              		.cfi_offset 7, -8
 2056              		.cfi_offset 14, -4
 2057 0002 82B0     		sub	sp, sp, #8
 2058              	.LCFI104:
 2059              		.cfi_def_cfa_offset 16
 2060 0004 00AF     		add	r7, sp, #0
 2061              	.LCFI105:
 2062              		.cfi_def_cfa_register 7
 2063 0006 7860     		str	r0, [r7, #4]
 2064 0008 3960     		str	r1, [r7]
1075:Drivers/STM32F4xx_HAL_Driver/Src/stm32f4xx_hal_tim.c ****   /* Check the parameters */
1076:Drivers/STM32F4xx_HAL_Driver/Src/stm32f4xx_hal_tim.c ****   assert_param(IS_TIM_CCX_INSTANCE(htim->Instance, Channel));
1077:Drivers/STM32F4xx_HAL_Driver/Src/stm32f4xx_hal_tim.c **** 
1078:Drivers/STM32F4xx_HAL_Driver/Src/stm32f4xx_hal_tim.c ****   switch (Channel)
 2065              		.loc 1 1078 3
 2066 000a 3B68     		ldr	r3, [r7]
 2067 000c 0C2B     		cmp	r3, #12
 2068 000e 55D8     		bhi	.L133
 2069 0010 01A2     		adr	r2, .L122
 2070 0012 52F823F0 		ldr	pc, [r2, r3, lsl #2]
 2071 0016 00BF     		.p2align 2
 2072              	.L122:
 2073 0018 4D000000 		.word	.L125+1
 2074 001c BD000000 		.word	.L133+1
 2075 0020 BD000000 		.word	.L133+1
 2076 0024 BD000000 		.word	.L133+1
 2077 0028 69000000 		.word	.L124+1
 2078 002c BD000000 		.word	.L133+1
 2079 0030 BD000000 		.word	.L133+1
 2080 0034 BD000000 		.word	.L133+1
 2081 0038 85000000 		.word	.L123+1
 2082 003c BD000000 		.word	.L133+1
 2083 0040 BD000000 		.word	.L133+1
 2084 0044 BD000000 		.word	.L133+1
 2085 0048 A1000000 		.word	.L121+1
 2086              		.p2align 1
 2087              	.L125:
1079:Drivers/STM32F4xx_HAL_Driver/Src/stm32f4xx_hal_tim.c ****   {
1080:Drivers/STM32F4xx_HAL_Driver/Src/stm32f4xx_hal_tim.c ****     case TIM_CHANNEL_1:
1081:Drivers/STM32F4xx_HAL_Driver/Src/stm32f4xx_hal_tim.c ****     {
1082:Drivers/STM32F4xx_HAL_Driver/Src/stm32f4xx_hal_tim.c ****       /* Disable the TIM Capture/Compare 1 DMA request */
1083:Drivers/STM32F4xx_HAL_Driver/Src/stm32f4xx_hal_tim.c ****       __HAL_TIM_DISABLE_DMA(htim, TIM_DMA_CC1);
 2088              		.loc 1 1083 7
 2089 004c 7B68     		ldr	r3, [r7, #4]
 2090 004e 1B68     		ldr	r3, [r3]
 2091 0050 DA68     		ldr	r2, [r3, #12]
ARM GAS  /tmp/ccg0QfjD.s 			page 56


 2092 0052 7B68     		ldr	r3, [r7, #4]
 2093 0054 1B68     		ldr	r3, [r3]
 2094 0056 22F40072 		bic	r2, r2, #512
 2095 005a DA60     		str	r2, [r3, #12]
1084:Drivers/STM32F4xx_HAL_Driver/Src/stm32f4xx_hal_tim.c ****       (void)HAL_DMA_Abort_IT(htim->hdma[TIM_DMA_ID_CC1]);
 2096              		.loc 1 1084 13
 2097 005c 7B68     		ldr	r3, [r7, #4]
 2098 005e 5B6A     		ldr	r3, [r3, #36]
 2099 0060 1846     		mov	r0, r3
 2100 0062 FFF7FEFF 		bl	HAL_DMA_Abort_IT
1085:Drivers/STM32F4xx_HAL_Driver/Src/stm32f4xx_hal_tim.c ****       break;
 2101              		.loc 1 1085 7
 2102 0066 2AE0     		b	.L126
 2103              	.L124:
1086:Drivers/STM32F4xx_HAL_Driver/Src/stm32f4xx_hal_tim.c ****     }
1087:Drivers/STM32F4xx_HAL_Driver/Src/stm32f4xx_hal_tim.c **** 
1088:Drivers/STM32F4xx_HAL_Driver/Src/stm32f4xx_hal_tim.c ****     case TIM_CHANNEL_2:
1089:Drivers/STM32F4xx_HAL_Driver/Src/stm32f4xx_hal_tim.c ****     {
1090:Drivers/STM32F4xx_HAL_Driver/Src/stm32f4xx_hal_tim.c ****       /* Disable the TIM Capture/Compare 2 DMA request */
1091:Drivers/STM32F4xx_HAL_Driver/Src/stm32f4xx_hal_tim.c ****       __HAL_TIM_DISABLE_DMA(htim, TIM_DMA_CC2);
 2104              		.loc 1 1091 7
 2105 0068 7B68     		ldr	r3, [r7, #4]
 2106 006a 1B68     		ldr	r3, [r3]
 2107 006c DA68     		ldr	r2, [r3, #12]
 2108 006e 7B68     		ldr	r3, [r7, #4]
 2109 0070 1B68     		ldr	r3, [r3]
 2110 0072 22F48062 		bic	r2, r2, #1024
 2111 0076 DA60     		str	r2, [r3, #12]
1092:Drivers/STM32F4xx_HAL_Driver/Src/stm32f4xx_hal_tim.c ****       (void)HAL_DMA_Abort_IT(htim->hdma[TIM_DMA_ID_CC2]);
 2112              		.loc 1 1092 13
 2113 0078 7B68     		ldr	r3, [r7, #4]
 2114 007a 9B6A     		ldr	r3, [r3, #40]
 2115 007c 1846     		mov	r0, r3
 2116 007e FFF7FEFF 		bl	HAL_DMA_Abort_IT
1093:Drivers/STM32F4xx_HAL_Driver/Src/stm32f4xx_hal_tim.c ****       break;
 2117              		.loc 1 1093 7
 2118 0082 1CE0     		b	.L126
 2119              	.L123:
1094:Drivers/STM32F4xx_HAL_Driver/Src/stm32f4xx_hal_tim.c ****     }
1095:Drivers/STM32F4xx_HAL_Driver/Src/stm32f4xx_hal_tim.c **** 
1096:Drivers/STM32F4xx_HAL_Driver/Src/stm32f4xx_hal_tim.c ****     case TIM_CHANNEL_3:
1097:Drivers/STM32F4xx_HAL_Driver/Src/stm32f4xx_hal_tim.c ****     {
1098:Drivers/STM32F4xx_HAL_Driver/Src/stm32f4xx_hal_tim.c ****       /* Disable the TIM Capture/Compare 3 DMA request */
1099:Drivers/STM32F4xx_HAL_Driver/Src/stm32f4xx_hal_tim.c ****       __HAL_TIM_DISABLE_DMA(htim, TIM_DMA_CC3);
 2120              		.loc 1 1099 7
 2121 0084 7B68     		ldr	r3, [r7, #4]
 2122 0086 1B68     		ldr	r3, [r3]
 2123 0088 DA68     		ldr	r2, [r3, #12]
 2124 008a 7B68     		ldr	r3, [r7, #4]
 2125 008c 1B68     		ldr	r3, [r3]
 2126 008e 22F40062 		bic	r2, r2, #2048
 2127 0092 DA60     		str	r2, [r3, #12]
1100:Drivers/STM32F4xx_HAL_Driver/Src/stm32f4xx_hal_tim.c ****       (void)HAL_DMA_Abort_IT(htim->hdma[TIM_DMA_ID_CC3]);
 2128              		.loc 1 1100 13
 2129 0094 7B68     		ldr	r3, [r7, #4]
 2130 0096 DB6A     		ldr	r3, [r3, #44]
 2131 0098 1846     		mov	r0, r3
ARM GAS  /tmp/ccg0QfjD.s 			page 57


 2132 009a FFF7FEFF 		bl	HAL_DMA_Abort_IT
1101:Drivers/STM32F4xx_HAL_Driver/Src/stm32f4xx_hal_tim.c ****       break;
 2133              		.loc 1 1101 7
 2134 009e 0EE0     		b	.L126
 2135              	.L121:
1102:Drivers/STM32F4xx_HAL_Driver/Src/stm32f4xx_hal_tim.c ****     }
1103:Drivers/STM32F4xx_HAL_Driver/Src/stm32f4xx_hal_tim.c **** 
1104:Drivers/STM32F4xx_HAL_Driver/Src/stm32f4xx_hal_tim.c ****     case TIM_CHANNEL_4:
1105:Drivers/STM32F4xx_HAL_Driver/Src/stm32f4xx_hal_tim.c ****     {
1106:Drivers/STM32F4xx_HAL_Driver/Src/stm32f4xx_hal_tim.c ****       /* Disable the TIM Capture/Compare 4 interrupt */
1107:Drivers/STM32F4xx_HAL_Driver/Src/stm32f4xx_hal_tim.c ****       __HAL_TIM_DISABLE_DMA(htim, TIM_DMA_CC4);
 2136              		.loc 1 1107 7
 2137 00a0 7B68     		ldr	r3, [r7, #4]
 2138 00a2 1B68     		ldr	r3, [r3]
 2139 00a4 DA68     		ldr	r2, [r3, #12]
 2140 00a6 7B68     		ldr	r3, [r7, #4]
 2141 00a8 1B68     		ldr	r3, [r3]
 2142 00aa 22F48052 		bic	r2, r2, #4096
 2143 00ae DA60     		str	r2, [r3, #12]
1108:Drivers/STM32F4xx_HAL_Driver/Src/stm32f4xx_hal_tim.c ****       (void)HAL_DMA_Abort_IT(htim->hdma[TIM_DMA_ID_CC4]);
 2144              		.loc 1 1108 13
 2145 00b0 7B68     		ldr	r3, [r7, #4]
 2146 00b2 1B6B     		ldr	r3, [r3, #48]
 2147 00b4 1846     		mov	r0, r3
 2148 00b6 FFF7FEFF 		bl	HAL_DMA_Abort_IT
1109:Drivers/STM32F4xx_HAL_Driver/Src/stm32f4xx_hal_tim.c ****       break;
 2149              		.loc 1 1109 7
 2150 00ba 00E0     		b	.L126
 2151              	.L133:
1110:Drivers/STM32F4xx_HAL_Driver/Src/stm32f4xx_hal_tim.c ****     }
1111:Drivers/STM32F4xx_HAL_Driver/Src/stm32f4xx_hal_tim.c **** 
1112:Drivers/STM32F4xx_HAL_Driver/Src/stm32f4xx_hal_tim.c ****     default:
1113:Drivers/STM32F4xx_HAL_Driver/Src/stm32f4xx_hal_tim.c ****       break;
 2152              		.loc 1 1113 7
 2153 00bc 00BF     		nop
 2154              	.L126:
1114:Drivers/STM32F4xx_HAL_Driver/Src/stm32f4xx_hal_tim.c ****   }
1115:Drivers/STM32F4xx_HAL_Driver/Src/stm32f4xx_hal_tim.c **** 
1116:Drivers/STM32F4xx_HAL_Driver/Src/stm32f4xx_hal_tim.c ****   /* Disable the Output compare channel */
1117:Drivers/STM32F4xx_HAL_Driver/Src/stm32f4xx_hal_tim.c ****   TIM_CCxChannelCmd(htim->Instance, Channel, TIM_CCx_DISABLE);
 2155              		.loc 1 1117 3
 2156 00be 7B68     		ldr	r3, [r7, #4]
 2157 00c0 1B68     		ldr	r3, [r3]
 2158 00c2 0022     		movs	r2, #0
 2159 00c4 3968     		ldr	r1, [r7]
 2160 00c6 1846     		mov	r0, r3
 2161 00c8 FFF7FEFF 		bl	TIM_CCxChannelCmd
1118:Drivers/STM32F4xx_HAL_Driver/Src/stm32f4xx_hal_tim.c **** 
1119:Drivers/STM32F4xx_HAL_Driver/Src/stm32f4xx_hal_tim.c ****   if (IS_TIM_BREAK_INSTANCE(htim->Instance) != RESET)
 2162              		.loc 1 1119 7
 2163 00cc 7B68     		ldr	r3, [r7, #4]
 2164 00ce 1B68     		ldr	r3, [r3]
 2165 00d0 224A     		ldr	r2, .L134
 2166 00d2 9342     		cmp	r3, r2
 2167 00d4 04D0     		beq	.L127
 2168              		.loc 1 1119 7 is_stmt 0 discriminator 2
 2169 00d6 7B68     		ldr	r3, [r7, #4]
ARM GAS  /tmp/ccg0QfjD.s 			page 58


 2170 00d8 1B68     		ldr	r3, [r3]
 2171 00da 214A     		ldr	r2, .L134+4
 2172 00dc 9342     		cmp	r3, r2
 2173 00de 01D1     		bne	.L128
 2174              	.L127:
 2175              		.loc 1 1119 7 discriminator 3
 2176 00e0 0123     		movs	r3, #1
 2177 00e2 00E0     		b	.L129
 2178              	.L128:
 2179              		.loc 1 1119 7 discriminator 4
 2180 00e4 0023     		movs	r3, #0
 2181              	.L129:
 2182              		.loc 1 1119 6 is_stmt 1 discriminator 6
 2183 00e6 002B     		cmp	r3, #0
 2184 00e8 17D0     		beq	.L130
1120:Drivers/STM32F4xx_HAL_Driver/Src/stm32f4xx_hal_tim.c ****   {
1121:Drivers/STM32F4xx_HAL_Driver/Src/stm32f4xx_hal_tim.c ****     /* Disable the Main Output */
1122:Drivers/STM32F4xx_HAL_Driver/Src/stm32f4xx_hal_tim.c ****     __HAL_TIM_MOE_DISABLE(htim);
 2185              		.loc 1 1122 5
 2186 00ea 7B68     		ldr	r3, [r7, #4]
 2187 00ec 1B68     		ldr	r3, [r3]
 2188 00ee 1A6A     		ldr	r2, [r3, #32]
 2189 00f0 41F21113 		movw	r3, #4369
 2190 00f4 1340     		ands	r3, r3, r2
 2191 00f6 002B     		cmp	r3, #0
 2192 00f8 0FD1     		bne	.L130
 2193              		.loc 1 1122 5 is_stmt 0 discriminator 1
 2194 00fa 7B68     		ldr	r3, [r7, #4]
 2195 00fc 1B68     		ldr	r3, [r3]
 2196 00fe 1A6A     		ldr	r2, [r3, #32]
 2197 0100 40F24443 		movw	r3, #1092
 2198 0104 1340     		ands	r3, r3, r2
 2199 0106 002B     		cmp	r3, #0
 2200 0108 07D1     		bne	.L130
 2201              		.loc 1 1122 5 discriminator 2
 2202 010a 7B68     		ldr	r3, [r7, #4]
 2203 010c 1B68     		ldr	r3, [r3]
 2204 010e 5A6C     		ldr	r2, [r3, #68]
 2205 0110 7B68     		ldr	r3, [r7, #4]
 2206 0112 1B68     		ldr	r3, [r3]
 2207 0114 22F40042 		bic	r2, r2, #32768
 2208 0118 5A64     		str	r2, [r3, #68]
 2209              	.L130:
1123:Drivers/STM32F4xx_HAL_Driver/Src/stm32f4xx_hal_tim.c ****   }
1124:Drivers/STM32F4xx_HAL_Driver/Src/stm32f4xx_hal_tim.c **** 
1125:Drivers/STM32F4xx_HAL_Driver/Src/stm32f4xx_hal_tim.c ****   /* Disable the Peripheral */
1126:Drivers/STM32F4xx_HAL_Driver/Src/stm32f4xx_hal_tim.c ****   __HAL_TIM_DISABLE(htim);
 2210              		.loc 1 1126 3 is_stmt 1
 2211 011a 7B68     		ldr	r3, [r7, #4]
 2212 011c 1B68     		ldr	r3, [r3]
 2213 011e 1A6A     		ldr	r2, [r3, #32]
 2214 0120 41F21113 		movw	r3, #4369
 2215 0124 1340     		ands	r3, r3, r2
 2216 0126 002B     		cmp	r3, #0
 2217 0128 0FD1     		bne	.L131
 2218              		.loc 1 1126 3 is_stmt 0 discriminator 1
 2219 012a 7B68     		ldr	r3, [r7, #4]
ARM GAS  /tmp/ccg0QfjD.s 			page 59


 2220 012c 1B68     		ldr	r3, [r3]
 2221 012e 1A6A     		ldr	r2, [r3, #32]
 2222 0130 40F24443 		movw	r3, #1092
 2223 0134 1340     		ands	r3, r3, r2
 2224 0136 002B     		cmp	r3, #0
 2225 0138 07D1     		bne	.L131
 2226              		.loc 1 1126 3 discriminator 2
 2227 013a 7B68     		ldr	r3, [r7, #4]
 2228 013c 1B68     		ldr	r3, [r3]
 2229 013e 1A68     		ldr	r2, [r3]
 2230 0140 7B68     		ldr	r3, [r7, #4]
 2231 0142 1B68     		ldr	r3, [r3]
 2232 0144 22F00102 		bic	r2, r2, #1
 2233 0148 1A60     		str	r2, [r3]
 2234              	.L131:
1127:Drivers/STM32F4xx_HAL_Driver/Src/stm32f4xx_hal_tim.c **** 
1128:Drivers/STM32F4xx_HAL_Driver/Src/stm32f4xx_hal_tim.c ****   /* Change the htim state */
1129:Drivers/STM32F4xx_HAL_Driver/Src/stm32f4xx_hal_tim.c ****   htim->State = HAL_TIM_STATE_READY;
 2235              		.loc 1 1129 15 is_stmt 1
 2236 014a 7B68     		ldr	r3, [r7, #4]
 2237 014c 0122     		movs	r2, #1
 2238 014e 83F83D20 		strb	r2, [r3, #61]
1130:Drivers/STM32F4xx_HAL_Driver/Src/stm32f4xx_hal_tim.c **** 
1131:Drivers/STM32F4xx_HAL_Driver/Src/stm32f4xx_hal_tim.c ****   /* Return function status */
1132:Drivers/STM32F4xx_HAL_Driver/Src/stm32f4xx_hal_tim.c ****   return HAL_OK;
 2239              		.loc 1 1132 10
 2240 0152 0023     		movs	r3, #0
1133:Drivers/STM32F4xx_HAL_Driver/Src/stm32f4xx_hal_tim.c **** }
 2241              		.loc 1 1133 1
 2242 0154 1846     		mov	r0, r3
 2243 0156 0837     		adds	r7, r7, #8
 2244              	.LCFI106:
 2245              		.cfi_def_cfa_offset 8
 2246 0158 BD46     		mov	sp, r7
 2247              	.LCFI107:
 2248              		.cfi_def_cfa_register 13
 2249              		@ sp needed
 2250 015a 80BD     		pop	{r7, pc}
 2251              	.L135:
 2252              		.align	2
 2253              	.L134:
 2254 015c 00000140 		.word	1073807360
 2255 0160 00040140 		.word	1073808384
 2256              		.cfi_endproc
 2257              	.LFE149:
 2259              		.section	.text.HAL_TIM_PWM_Init,"ax",%progbits
 2260              		.align	1
 2261              		.global	HAL_TIM_PWM_Init
 2262              		.syntax unified
 2263              		.thumb
 2264              		.thumb_func
 2265              		.fpu fpv4-sp-d16
 2267              	HAL_TIM_PWM_Init:
 2268              	.LFB150:
1134:Drivers/STM32F4xx_HAL_Driver/Src/stm32f4xx_hal_tim.c **** 
1135:Drivers/STM32F4xx_HAL_Driver/Src/stm32f4xx_hal_tim.c **** /**
1136:Drivers/STM32F4xx_HAL_Driver/Src/stm32f4xx_hal_tim.c ****   * @}
ARM GAS  /tmp/ccg0QfjD.s 			page 60


1137:Drivers/STM32F4xx_HAL_Driver/Src/stm32f4xx_hal_tim.c ****   */
1138:Drivers/STM32F4xx_HAL_Driver/Src/stm32f4xx_hal_tim.c **** 
1139:Drivers/STM32F4xx_HAL_Driver/Src/stm32f4xx_hal_tim.c **** /** @defgroup TIM_Exported_Functions_Group3 TIM PWM functions
1140:Drivers/STM32F4xx_HAL_Driver/Src/stm32f4xx_hal_tim.c ****   *  @brief    TIM PWM functions
1141:Drivers/STM32F4xx_HAL_Driver/Src/stm32f4xx_hal_tim.c ****   *
1142:Drivers/STM32F4xx_HAL_Driver/Src/stm32f4xx_hal_tim.c **** @verbatim
1143:Drivers/STM32F4xx_HAL_Driver/Src/stm32f4xx_hal_tim.c ****   ==============================================================================
1144:Drivers/STM32F4xx_HAL_Driver/Src/stm32f4xx_hal_tim.c ****                           ##### TIM PWM functions #####
1145:Drivers/STM32F4xx_HAL_Driver/Src/stm32f4xx_hal_tim.c ****   ==============================================================================
1146:Drivers/STM32F4xx_HAL_Driver/Src/stm32f4xx_hal_tim.c ****   [..]
1147:Drivers/STM32F4xx_HAL_Driver/Src/stm32f4xx_hal_tim.c ****     This section provides functions allowing to:
1148:Drivers/STM32F4xx_HAL_Driver/Src/stm32f4xx_hal_tim.c ****     (+) Initialize and configure the TIM PWM.
1149:Drivers/STM32F4xx_HAL_Driver/Src/stm32f4xx_hal_tim.c ****     (+) De-initialize the TIM PWM.
1150:Drivers/STM32F4xx_HAL_Driver/Src/stm32f4xx_hal_tim.c ****     (+) Start the TIM PWM.
1151:Drivers/STM32F4xx_HAL_Driver/Src/stm32f4xx_hal_tim.c ****     (+) Stop the TIM PWM.
1152:Drivers/STM32F4xx_HAL_Driver/Src/stm32f4xx_hal_tim.c ****     (+) Start the TIM PWM and enable interrupt.
1153:Drivers/STM32F4xx_HAL_Driver/Src/stm32f4xx_hal_tim.c ****     (+) Stop the TIM PWM and disable interrupt.
1154:Drivers/STM32F4xx_HAL_Driver/Src/stm32f4xx_hal_tim.c ****     (+) Start the TIM PWM and enable DMA transfer.
1155:Drivers/STM32F4xx_HAL_Driver/Src/stm32f4xx_hal_tim.c ****     (+) Stop the TIM PWM and disable DMA transfer.
1156:Drivers/STM32F4xx_HAL_Driver/Src/stm32f4xx_hal_tim.c **** 
1157:Drivers/STM32F4xx_HAL_Driver/Src/stm32f4xx_hal_tim.c **** @endverbatim
1158:Drivers/STM32F4xx_HAL_Driver/Src/stm32f4xx_hal_tim.c ****   * @{
1159:Drivers/STM32F4xx_HAL_Driver/Src/stm32f4xx_hal_tim.c ****   */
1160:Drivers/STM32F4xx_HAL_Driver/Src/stm32f4xx_hal_tim.c **** /**
1161:Drivers/STM32F4xx_HAL_Driver/Src/stm32f4xx_hal_tim.c ****   * @brief  Initializes the TIM PWM Time Base according to the specified
1162:Drivers/STM32F4xx_HAL_Driver/Src/stm32f4xx_hal_tim.c ****   *         parameters in the TIM_HandleTypeDef and initializes the associated handle.
1163:Drivers/STM32F4xx_HAL_Driver/Src/stm32f4xx_hal_tim.c ****   * @note   Switching from Center Aligned counter mode to Edge counter mode (or reverse)
1164:Drivers/STM32F4xx_HAL_Driver/Src/stm32f4xx_hal_tim.c ****   *         requires a timer reset to avoid unexpected direction
1165:Drivers/STM32F4xx_HAL_Driver/Src/stm32f4xx_hal_tim.c ****   *         due to DIR bit readonly in center aligned mode.
1166:Drivers/STM32F4xx_HAL_Driver/Src/stm32f4xx_hal_tim.c ****   *         Ex: call @ref HAL_TIM_PWM_DeInit() before HAL_TIM_PWM_Init()
1167:Drivers/STM32F4xx_HAL_Driver/Src/stm32f4xx_hal_tim.c ****   * @param  htim TIM PWM handle
1168:Drivers/STM32F4xx_HAL_Driver/Src/stm32f4xx_hal_tim.c ****   * @retval HAL status
1169:Drivers/STM32F4xx_HAL_Driver/Src/stm32f4xx_hal_tim.c ****   */
1170:Drivers/STM32F4xx_HAL_Driver/Src/stm32f4xx_hal_tim.c **** HAL_StatusTypeDef HAL_TIM_PWM_Init(TIM_HandleTypeDef *htim)
1171:Drivers/STM32F4xx_HAL_Driver/Src/stm32f4xx_hal_tim.c **** {
 2269              		.loc 1 1171 1
 2270              		.cfi_startproc
 2271              		@ args = 0, pretend = 0, frame = 8
 2272              		@ frame_needed = 1, uses_anonymous_args = 0
 2273 0000 80B5     		push	{r7, lr}
 2274              	.LCFI108:
 2275              		.cfi_def_cfa_offset 8
 2276              		.cfi_offset 7, -8
 2277              		.cfi_offset 14, -4
 2278 0002 82B0     		sub	sp, sp, #8
 2279              	.LCFI109:
 2280              		.cfi_def_cfa_offset 16
 2281 0004 00AF     		add	r7, sp, #0
 2282              	.LCFI110:
 2283              		.cfi_def_cfa_register 7
 2284 0006 7860     		str	r0, [r7, #4]
1172:Drivers/STM32F4xx_HAL_Driver/Src/stm32f4xx_hal_tim.c ****   /* Check the TIM handle allocation */
1173:Drivers/STM32F4xx_HAL_Driver/Src/stm32f4xx_hal_tim.c ****   if (htim == NULL)
 2285              		.loc 1 1173 6
 2286 0008 7B68     		ldr	r3, [r7, #4]
 2287 000a 002B     		cmp	r3, #0
 2288 000c 01D1     		bne	.L137
ARM GAS  /tmp/ccg0QfjD.s 			page 61


1174:Drivers/STM32F4xx_HAL_Driver/Src/stm32f4xx_hal_tim.c ****   {
1175:Drivers/STM32F4xx_HAL_Driver/Src/stm32f4xx_hal_tim.c ****     return HAL_ERROR;
 2289              		.loc 1 1175 12
 2290 000e 0123     		movs	r3, #1
 2291 0010 1DE0     		b	.L138
 2292              	.L137:
1176:Drivers/STM32F4xx_HAL_Driver/Src/stm32f4xx_hal_tim.c ****   }
1177:Drivers/STM32F4xx_HAL_Driver/Src/stm32f4xx_hal_tim.c **** 
1178:Drivers/STM32F4xx_HAL_Driver/Src/stm32f4xx_hal_tim.c ****   /* Check the parameters */
1179:Drivers/STM32F4xx_HAL_Driver/Src/stm32f4xx_hal_tim.c ****   assert_param(IS_TIM_INSTANCE(htim->Instance));
1180:Drivers/STM32F4xx_HAL_Driver/Src/stm32f4xx_hal_tim.c ****   assert_param(IS_TIM_COUNTER_MODE(htim->Init.CounterMode));
1181:Drivers/STM32F4xx_HAL_Driver/Src/stm32f4xx_hal_tim.c ****   assert_param(IS_TIM_CLOCKDIVISION_DIV(htim->Init.ClockDivision));
1182:Drivers/STM32F4xx_HAL_Driver/Src/stm32f4xx_hal_tim.c ****   assert_param(IS_TIM_AUTORELOAD_PRELOAD(htim->Init.AutoReloadPreload));
1183:Drivers/STM32F4xx_HAL_Driver/Src/stm32f4xx_hal_tim.c **** 
1184:Drivers/STM32F4xx_HAL_Driver/Src/stm32f4xx_hal_tim.c ****   if (htim->State == HAL_TIM_STATE_RESET)
 2293              		.loc 1 1184 11
 2294 0012 7B68     		ldr	r3, [r7, #4]
 2295 0014 93F83D30 		ldrb	r3, [r3, #61]
 2296 0018 DBB2     		uxtb	r3, r3
 2297              		.loc 1 1184 6
 2298 001a 002B     		cmp	r3, #0
 2299 001c 06D1     		bne	.L139
1185:Drivers/STM32F4xx_HAL_Driver/Src/stm32f4xx_hal_tim.c ****   {
1186:Drivers/STM32F4xx_HAL_Driver/Src/stm32f4xx_hal_tim.c ****     /* Allocate lock resource and initialize it */
1187:Drivers/STM32F4xx_HAL_Driver/Src/stm32f4xx_hal_tim.c ****     htim->Lock = HAL_UNLOCKED;
 2300              		.loc 1 1187 16
 2301 001e 7B68     		ldr	r3, [r7, #4]
 2302 0020 0022     		movs	r2, #0
 2303 0022 83F83C20 		strb	r2, [r3, #60]
1188:Drivers/STM32F4xx_HAL_Driver/Src/stm32f4xx_hal_tim.c **** 
1189:Drivers/STM32F4xx_HAL_Driver/Src/stm32f4xx_hal_tim.c **** #if (USE_HAL_TIM_REGISTER_CALLBACKS == 1)
1190:Drivers/STM32F4xx_HAL_Driver/Src/stm32f4xx_hal_tim.c ****     /* Reset interrupt callbacks to legacy weak callbacks */
1191:Drivers/STM32F4xx_HAL_Driver/Src/stm32f4xx_hal_tim.c ****     TIM_ResetCallback(htim);
1192:Drivers/STM32F4xx_HAL_Driver/Src/stm32f4xx_hal_tim.c **** 
1193:Drivers/STM32F4xx_HAL_Driver/Src/stm32f4xx_hal_tim.c ****     if (htim->PWM_MspInitCallback == NULL)
1194:Drivers/STM32F4xx_HAL_Driver/Src/stm32f4xx_hal_tim.c ****     {
1195:Drivers/STM32F4xx_HAL_Driver/Src/stm32f4xx_hal_tim.c ****       htim->PWM_MspInitCallback = HAL_TIM_PWM_MspInit;
1196:Drivers/STM32F4xx_HAL_Driver/Src/stm32f4xx_hal_tim.c ****     }
1197:Drivers/STM32F4xx_HAL_Driver/Src/stm32f4xx_hal_tim.c ****     /* Init the low level hardware : GPIO, CLOCK, NVIC */
1198:Drivers/STM32F4xx_HAL_Driver/Src/stm32f4xx_hal_tim.c ****     htim->PWM_MspInitCallback(htim);
1199:Drivers/STM32F4xx_HAL_Driver/Src/stm32f4xx_hal_tim.c **** #else
1200:Drivers/STM32F4xx_HAL_Driver/Src/stm32f4xx_hal_tim.c ****     /* Init the low level hardware : GPIO, CLOCK, NVIC and DMA */
1201:Drivers/STM32F4xx_HAL_Driver/Src/stm32f4xx_hal_tim.c ****     HAL_TIM_PWM_MspInit(htim);
 2304              		.loc 1 1201 5
 2305 0026 7868     		ldr	r0, [r7, #4]
 2306 0028 FFF7FEFF 		bl	HAL_TIM_PWM_MspInit
 2307              	.L139:
1202:Drivers/STM32F4xx_HAL_Driver/Src/stm32f4xx_hal_tim.c **** #endif /* USE_HAL_TIM_REGISTER_CALLBACKS */
1203:Drivers/STM32F4xx_HAL_Driver/Src/stm32f4xx_hal_tim.c ****   }
1204:Drivers/STM32F4xx_HAL_Driver/Src/stm32f4xx_hal_tim.c **** 
1205:Drivers/STM32F4xx_HAL_Driver/Src/stm32f4xx_hal_tim.c ****   /* Set the TIM state */
1206:Drivers/STM32F4xx_HAL_Driver/Src/stm32f4xx_hal_tim.c ****   htim->State = HAL_TIM_STATE_BUSY;
 2308              		.loc 1 1206 15
 2309 002c 7B68     		ldr	r3, [r7, #4]
 2310 002e 0222     		movs	r2, #2
 2311 0030 83F83D20 		strb	r2, [r3, #61]
1207:Drivers/STM32F4xx_HAL_Driver/Src/stm32f4xx_hal_tim.c **** 
ARM GAS  /tmp/ccg0QfjD.s 			page 62


1208:Drivers/STM32F4xx_HAL_Driver/Src/stm32f4xx_hal_tim.c ****   /* Init the base time for the PWM */
1209:Drivers/STM32F4xx_HAL_Driver/Src/stm32f4xx_hal_tim.c ****   TIM_Base_SetConfig(htim->Instance, &htim->Init);
 2312              		.loc 1 1209 3
 2313 0034 7B68     		ldr	r3, [r7, #4]
 2314 0036 1A68     		ldr	r2, [r3]
 2315 0038 7B68     		ldr	r3, [r7, #4]
 2316 003a 0433     		adds	r3, r3, #4
 2317 003c 1946     		mov	r1, r3
 2318 003e 1046     		mov	r0, r2
 2319 0040 FFF7FEFF 		bl	TIM_Base_SetConfig
1210:Drivers/STM32F4xx_HAL_Driver/Src/stm32f4xx_hal_tim.c **** 
1211:Drivers/STM32F4xx_HAL_Driver/Src/stm32f4xx_hal_tim.c ****   /* Initialize the TIM state*/
1212:Drivers/STM32F4xx_HAL_Driver/Src/stm32f4xx_hal_tim.c ****   htim->State = HAL_TIM_STATE_READY;
 2320              		.loc 1 1212 15
 2321 0044 7B68     		ldr	r3, [r7, #4]
 2322 0046 0122     		movs	r2, #1
 2323 0048 83F83D20 		strb	r2, [r3, #61]
1213:Drivers/STM32F4xx_HAL_Driver/Src/stm32f4xx_hal_tim.c **** 
1214:Drivers/STM32F4xx_HAL_Driver/Src/stm32f4xx_hal_tim.c ****   return HAL_OK;
 2324              		.loc 1 1214 10
 2325 004c 0023     		movs	r3, #0
 2326              	.L138:
1215:Drivers/STM32F4xx_HAL_Driver/Src/stm32f4xx_hal_tim.c **** }
 2327              		.loc 1 1215 1
 2328 004e 1846     		mov	r0, r3
 2329 0050 0837     		adds	r7, r7, #8
 2330              	.LCFI111:
 2331              		.cfi_def_cfa_offset 8
 2332 0052 BD46     		mov	sp, r7
 2333              	.LCFI112:
 2334              		.cfi_def_cfa_register 13
 2335              		@ sp needed
 2336 0054 80BD     		pop	{r7, pc}
 2337              		.cfi_endproc
 2338              	.LFE150:
 2340              		.section	.text.HAL_TIM_PWM_DeInit,"ax",%progbits
 2341              		.align	1
 2342              		.global	HAL_TIM_PWM_DeInit
 2343              		.syntax unified
 2344              		.thumb
 2345              		.thumb_func
 2346              		.fpu fpv4-sp-d16
 2348              	HAL_TIM_PWM_DeInit:
 2349              	.LFB151:
1216:Drivers/STM32F4xx_HAL_Driver/Src/stm32f4xx_hal_tim.c **** 
1217:Drivers/STM32F4xx_HAL_Driver/Src/stm32f4xx_hal_tim.c **** /**
1218:Drivers/STM32F4xx_HAL_Driver/Src/stm32f4xx_hal_tim.c ****   * @brief  DeInitializes the TIM peripheral
1219:Drivers/STM32F4xx_HAL_Driver/Src/stm32f4xx_hal_tim.c ****   * @param  htim TIM PWM handle
1220:Drivers/STM32F4xx_HAL_Driver/Src/stm32f4xx_hal_tim.c ****   * @retval HAL status
1221:Drivers/STM32F4xx_HAL_Driver/Src/stm32f4xx_hal_tim.c ****   */
1222:Drivers/STM32F4xx_HAL_Driver/Src/stm32f4xx_hal_tim.c **** HAL_StatusTypeDef HAL_TIM_PWM_DeInit(TIM_HandleTypeDef *htim)
1223:Drivers/STM32F4xx_HAL_Driver/Src/stm32f4xx_hal_tim.c **** {
 2350              		.loc 1 1223 1
 2351              		.cfi_startproc
 2352              		@ args = 0, pretend = 0, frame = 8
 2353              		@ frame_needed = 1, uses_anonymous_args = 0
 2354 0000 80B5     		push	{r7, lr}
ARM GAS  /tmp/ccg0QfjD.s 			page 63


 2355              	.LCFI113:
 2356              		.cfi_def_cfa_offset 8
 2357              		.cfi_offset 7, -8
 2358              		.cfi_offset 14, -4
 2359 0002 82B0     		sub	sp, sp, #8
 2360              	.LCFI114:
 2361              		.cfi_def_cfa_offset 16
 2362 0004 00AF     		add	r7, sp, #0
 2363              	.LCFI115:
 2364              		.cfi_def_cfa_register 7
 2365 0006 7860     		str	r0, [r7, #4]
1224:Drivers/STM32F4xx_HAL_Driver/Src/stm32f4xx_hal_tim.c ****   /* Check the parameters */
1225:Drivers/STM32F4xx_HAL_Driver/Src/stm32f4xx_hal_tim.c ****   assert_param(IS_TIM_INSTANCE(htim->Instance));
1226:Drivers/STM32F4xx_HAL_Driver/Src/stm32f4xx_hal_tim.c **** 
1227:Drivers/STM32F4xx_HAL_Driver/Src/stm32f4xx_hal_tim.c ****   htim->State = HAL_TIM_STATE_BUSY;
 2366              		.loc 1 1227 15
 2367 0008 7B68     		ldr	r3, [r7, #4]
 2368 000a 0222     		movs	r2, #2
 2369 000c 83F83D20 		strb	r2, [r3, #61]
1228:Drivers/STM32F4xx_HAL_Driver/Src/stm32f4xx_hal_tim.c **** 
1229:Drivers/STM32F4xx_HAL_Driver/Src/stm32f4xx_hal_tim.c ****   /* Disable the TIM Peripheral Clock */
1230:Drivers/STM32F4xx_HAL_Driver/Src/stm32f4xx_hal_tim.c ****   __HAL_TIM_DISABLE(htim);
 2370              		.loc 1 1230 3
 2371 0010 7B68     		ldr	r3, [r7, #4]
 2372 0012 1B68     		ldr	r3, [r3]
 2373 0014 1A6A     		ldr	r2, [r3, #32]
 2374 0016 41F21113 		movw	r3, #4369
 2375 001a 1340     		ands	r3, r3, r2
 2376 001c 002B     		cmp	r3, #0
 2377 001e 0FD1     		bne	.L141
 2378              		.loc 1 1230 3 is_stmt 0 discriminator 1
 2379 0020 7B68     		ldr	r3, [r7, #4]
 2380 0022 1B68     		ldr	r3, [r3]
 2381 0024 1A6A     		ldr	r2, [r3, #32]
 2382 0026 40F24443 		movw	r3, #1092
 2383 002a 1340     		ands	r3, r3, r2
 2384 002c 002B     		cmp	r3, #0
 2385 002e 07D1     		bne	.L141
 2386              		.loc 1 1230 3 discriminator 2
 2387 0030 7B68     		ldr	r3, [r7, #4]
 2388 0032 1B68     		ldr	r3, [r3]
 2389 0034 1A68     		ldr	r2, [r3]
 2390 0036 7B68     		ldr	r3, [r7, #4]
 2391 0038 1B68     		ldr	r3, [r3]
 2392 003a 22F00102 		bic	r2, r2, #1
 2393 003e 1A60     		str	r2, [r3]
 2394              	.L141:
1231:Drivers/STM32F4xx_HAL_Driver/Src/stm32f4xx_hal_tim.c **** 
1232:Drivers/STM32F4xx_HAL_Driver/Src/stm32f4xx_hal_tim.c **** #if (USE_HAL_TIM_REGISTER_CALLBACKS == 1)
1233:Drivers/STM32F4xx_HAL_Driver/Src/stm32f4xx_hal_tim.c ****   if (htim->PWM_MspDeInitCallback == NULL)
1234:Drivers/STM32F4xx_HAL_Driver/Src/stm32f4xx_hal_tim.c ****   {
1235:Drivers/STM32F4xx_HAL_Driver/Src/stm32f4xx_hal_tim.c ****     htim->PWM_MspDeInitCallback = HAL_TIM_PWM_MspDeInit;
1236:Drivers/STM32F4xx_HAL_Driver/Src/stm32f4xx_hal_tim.c ****   }
1237:Drivers/STM32F4xx_HAL_Driver/Src/stm32f4xx_hal_tim.c ****   /* DeInit the low level hardware */
1238:Drivers/STM32F4xx_HAL_Driver/Src/stm32f4xx_hal_tim.c ****   htim->PWM_MspDeInitCallback(htim);
1239:Drivers/STM32F4xx_HAL_Driver/Src/stm32f4xx_hal_tim.c **** #else
1240:Drivers/STM32F4xx_HAL_Driver/Src/stm32f4xx_hal_tim.c ****   /* DeInit the low level hardware: GPIO, CLOCK, NVIC and DMA */
ARM GAS  /tmp/ccg0QfjD.s 			page 64


1241:Drivers/STM32F4xx_HAL_Driver/Src/stm32f4xx_hal_tim.c ****   HAL_TIM_PWM_MspDeInit(htim);
 2395              		.loc 1 1241 3 is_stmt 1
 2396 0040 7868     		ldr	r0, [r7, #4]
 2397 0042 FFF7FEFF 		bl	HAL_TIM_PWM_MspDeInit
1242:Drivers/STM32F4xx_HAL_Driver/Src/stm32f4xx_hal_tim.c **** #endif /* USE_HAL_TIM_REGISTER_CALLBACKS */
1243:Drivers/STM32F4xx_HAL_Driver/Src/stm32f4xx_hal_tim.c **** 
1244:Drivers/STM32F4xx_HAL_Driver/Src/stm32f4xx_hal_tim.c ****   /* Change TIM state */
1245:Drivers/STM32F4xx_HAL_Driver/Src/stm32f4xx_hal_tim.c ****   htim->State = HAL_TIM_STATE_RESET;
 2398              		.loc 1 1245 15
 2399 0046 7B68     		ldr	r3, [r7, #4]
 2400 0048 0022     		movs	r2, #0
 2401 004a 83F83D20 		strb	r2, [r3, #61]
1246:Drivers/STM32F4xx_HAL_Driver/Src/stm32f4xx_hal_tim.c **** 
1247:Drivers/STM32F4xx_HAL_Driver/Src/stm32f4xx_hal_tim.c ****   /* Release Lock */
1248:Drivers/STM32F4xx_HAL_Driver/Src/stm32f4xx_hal_tim.c ****   __HAL_UNLOCK(htim);
 2402              		.loc 1 1248 3
 2403 004e 7B68     		ldr	r3, [r7, #4]
 2404 0050 0022     		movs	r2, #0
 2405 0052 83F83C20 		strb	r2, [r3, #60]
1249:Drivers/STM32F4xx_HAL_Driver/Src/stm32f4xx_hal_tim.c **** 
1250:Drivers/STM32F4xx_HAL_Driver/Src/stm32f4xx_hal_tim.c ****   return HAL_OK;
 2406              		.loc 1 1250 10
 2407 0056 0023     		movs	r3, #0
1251:Drivers/STM32F4xx_HAL_Driver/Src/stm32f4xx_hal_tim.c **** }
 2408              		.loc 1 1251 1
 2409 0058 1846     		mov	r0, r3
 2410 005a 0837     		adds	r7, r7, #8
 2411              	.LCFI116:
 2412              		.cfi_def_cfa_offset 8
 2413 005c BD46     		mov	sp, r7
 2414              	.LCFI117:
 2415              		.cfi_def_cfa_register 13
 2416              		@ sp needed
 2417 005e 80BD     		pop	{r7, pc}
 2418              		.cfi_endproc
 2419              	.LFE151:
 2421              		.section	.text.HAL_TIM_PWM_MspInit,"ax",%progbits
 2422              		.align	1
 2423              		.weak	HAL_TIM_PWM_MspInit
 2424              		.syntax unified
 2425              		.thumb
 2426              		.thumb_func
 2427              		.fpu fpv4-sp-d16
 2429              	HAL_TIM_PWM_MspInit:
 2430              	.LFB152:
1252:Drivers/STM32F4xx_HAL_Driver/Src/stm32f4xx_hal_tim.c **** 
1253:Drivers/STM32F4xx_HAL_Driver/Src/stm32f4xx_hal_tim.c **** /**
1254:Drivers/STM32F4xx_HAL_Driver/Src/stm32f4xx_hal_tim.c ****   * @brief  Initializes the TIM PWM MSP.
1255:Drivers/STM32F4xx_HAL_Driver/Src/stm32f4xx_hal_tim.c ****   * @param  htim TIM PWM handle
1256:Drivers/STM32F4xx_HAL_Driver/Src/stm32f4xx_hal_tim.c ****   * @retval None
1257:Drivers/STM32F4xx_HAL_Driver/Src/stm32f4xx_hal_tim.c ****   */
1258:Drivers/STM32F4xx_HAL_Driver/Src/stm32f4xx_hal_tim.c **** __weak void HAL_TIM_PWM_MspInit(TIM_HandleTypeDef *htim)
1259:Drivers/STM32F4xx_HAL_Driver/Src/stm32f4xx_hal_tim.c **** {
 2431              		.loc 1 1259 1
 2432              		.cfi_startproc
 2433              		@ args = 0, pretend = 0, frame = 8
 2434              		@ frame_needed = 1, uses_anonymous_args = 0
ARM GAS  /tmp/ccg0QfjD.s 			page 65


 2435              		@ link register save eliminated.
 2436 0000 80B4     		push	{r7}
 2437              	.LCFI118:
 2438              		.cfi_def_cfa_offset 4
 2439              		.cfi_offset 7, -4
 2440 0002 83B0     		sub	sp, sp, #12
 2441              	.LCFI119:
 2442              		.cfi_def_cfa_offset 16
 2443 0004 00AF     		add	r7, sp, #0
 2444              	.LCFI120:
 2445              		.cfi_def_cfa_register 7
 2446 0006 7860     		str	r0, [r7, #4]
1260:Drivers/STM32F4xx_HAL_Driver/Src/stm32f4xx_hal_tim.c ****   /* Prevent unused argument(s) compilation warning */
1261:Drivers/STM32F4xx_HAL_Driver/Src/stm32f4xx_hal_tim.c ****   UNUSED(htim);
1262:Drivers/STM32F4xx_HAL_Driver/Src/stm32f4xx_hal_tim.c **** 
1263:Drivers/STM32F4xx_HAL_Driver/Src/stm32f4xx_hal_tim.c ****   /* NOTE : This function should not be modified, when the callback is needed,
1264:Drivers/STM32F4xx_HAL_Driver/Src/stm32f4xx_hal_tim.c ****             the HAL_TIM_PWM_MspInit could be implemented in the user file
1265:Drivers/STM32F4xx_HAL_Driver/Src/stm32f4xx_hal_tim.c ****    */
1266:Drivers/STM32F4xx_HAL_Driver/Src/stm32f4xx_hal_tim.c **** }
 2447              		.loc 1 1266 1
 2448 0008 00BF     		nop
 2449 000a 0C37     		adds	r7, r7, #12
 2450              	.LCFI121:
 2451              		.cfi_def_cfa_offset 4
 2452 000c BD46     		mov	sp, r7
 2453              	.LCFI122:
 2454              		.cfi_def_cfa_register 13
 2455              		@ sp needed
 2456 000e 5DF8047B 		ldr	r7, [sp], #4
 2457              	.LCFI123:
 2458              		.cfi_restore 7
 2459              		.cfi_def_cfa_offset 0
 2460 0012 7047     		bx	lr
 2461              		.cfi_endproc
 2462              	.LFE152:
 2464              		.section	.text.HAL_TIM_PWM_MspDeInit,"ax",%progbits
 2465              		.align	1
 2466              		.weak	HAL_TIM_PWM_MspDeInit
 2467              		.syntax unified
 2468              		.thumb
 2469              		.thumb_func
 2470              		.fpu fpv4-sp-d16
 2472              	HAL_TIM_PWM_MspDeInit:
 2473              	.LFB153:
1267:Drivers/STM32F4xx_HAL_Driver/Src/stm32f4xx_hal_tim.c **** 
1268:Drivers/STM32F4xx_HAL_Driver/Src/stm32f4xx_hal_tim.c **** /**
1269:Drivers/STM32F4xx_HAL_Driver/Src/stm32f4xx_hal_tim.c ****   * @brief  DeInitializes TIM PWM MSP.
1270:Drivers/STM32F4xx_HAL_Driver/Src/stm32f4xx_hal_tim.c ****   * @param  htim TIM PWM handle
1271:Drivers/STM32F4xx_HAL_Driver/Src/stm32f4xx_hal_tim.c ****   * @retval None
1272:Drivers/STM32F4xx_HAL_Driver/Src/stm32f4xx_hal_tim.c ****   */
1273:Drivers/STM32F4xx_HAL_Driver/Src/stm32f4xx_hal_tim.c **** __weak void HAL_TIM_PWM_MspDeInit(TIM_HandleTypeDef *htim)
1274:Drivers/STM32F4xx_HAL_Driver/Src/stm32f4xx_hal_tim.c **** {
 2474              		.loc 1 1274 1
 2475              		.cfi_startproc
 2476              		@ args = 0, pretend = 0, frame = 8
 2477              		@ frame_needed = 1, uses_anonymous_args = 0
 2478              		@ link register save eliminated.
ARM GAS  /tmp/ccg0QfjD.s 			page 66


 2479 0000 80B4     		push	{r7}
 2480              	.LCFI124:
 2481              		.cfi_def_cfa_offset 4
 2482              		.cfi_offset 7, -4
 2483 0002 83B0     		sub	sp, sp, #12
 2484              	.LCFI125:
 2485              		.cfi_def_cfa_offset 16
 2486 0004 00AF     		add	r7, sp, #0
 2487              	.LCFI126:
 2488              		.cfi_def_cfa_register 7
 2489 0006 7860     		str	r0, [r7, #4]
1275:Drivers/STM32F4xx_HAL_Driver/Src/stm32f4xx_hal_tim.c ****   /* Prevent unused argument(s) compilation warning */
1276:Drivers/STM32F4xx_HAL_Driver/Src/stm32f4xx_hal_tim.c ****   UNUSED(htim);
1277:Drivers/STM32F4xx_HAL_Driver/Src/stm32f4xx_hal_tim.c **** 
1278:Drivers/STM32F4xx_HAL_Driver/Src/stm32f4xx_hal_tim.c ****   /* NOTE : This function should not be modified, when the callback is needed,
1279:Drivers/STM32F4xx_HAL_Driver/Src/stm32f4xx_hal_tim.c ****             the HAL_TIM_PWM_MspDeInit could be implemented in the user file
1280:Drivers/STM32F4xx_HAL_Driver/Src/stm32f4xx_hal_tim.c ****    */
1281:Drivers/STM32F4xx_HAL_Driver/Src/stm32f4xx_hal_tim.c **** }
 2490              		.loc 1 1281 1
 2491 0008 00BF     		nop
 2492 000a 0C37     		adds	r7, r7, #12
 2493              	.LCFI127:
 2494              		.cfi_def_cfa_offset 4
 2495 000c BD46     		mov	sp, r7
 2496              	.LCFI128:
 2497              		.cfi_def_cfa_register 13
 2498              		@ sp needed
 2499 000e 5DF8047B 		ldr	r7, [sp], #4
 2500              	.LCFI129:
 2501              		.cfi_restore 7
 2502              		.cfi_def_cfa_offset 0
 2503 0012 7047     		bx	lr
 2504              		.cfi_endproc
 2505              	.LFE153:
 2507              		.section	.text.HAL_TIM_PWM_Start,"ax",%progbits
 2508              		.align	1
 2509              		.global	HAL_TIM_PWM_Start
 2510              		.syntax unified
 2511              		.thumb
 2512              		.thumb_func
 2513              		.fpu fpv4-sp-d16
 2515              	HAL_TIM_PWM_Start:
 2516              	.LFB154:
1282:Drivers/STM32F4xx_HAL_Driver/Src/stm32f4xx_hal_tim.c **** 
1283:Drivers/STM32F4xx_HAL_Driver/Src/stm32f4xx_hal_tim.c **** /**
1284:Drivers/STM32F4xx_HAL_Driver/Src/stm32f4xx_hal_tim.c ****   * @brief  Starts the PWM signal generation.
1285:Drivers/STM32F4xx_HAL_Driver/Src/stm32f4xx_hal_tim.c ****   * @param  htim TIM handle
1286:Drivers/STM32F4xx_HAL_Driver/Src/stm32f4xx_hal_tim.c ****   * @param  Channel TIM Channels to be enabled
1287:Drivers/STM32F4xx_HAL_Driver/Src/stm32f4xx_hal_tim.c ****   *          This parameter can be one of the following values:
1288:Drivers/STM32F4xx_HAL_Driver/Src/stm32f4xx_hal_tim.c ****   *            @arg TIM_CHANNEL_1: TIM Channel 1 selected
1289:Drivers/STM32F4xx_HAL_Driver/Src/stm32f4xx_hal_tim.c ****   *            @arg TIM_CHANNEL_2: TIM Channel 2 selected
1290:Drivers/STM32F4xx_HAL_Driver/Src/stm32f4xx_hal_tim.c ****   *            @arg TIM_CHANNEL_3: TIM Channel 3 selected
1291:Drivers/STM32F4xx_HAL_Driver/Src/stm32f4xx_hal_tim.c ****   *            @arg TIM_CHANNEL_4: TIM Channel 4 selected
1292:Drivers/STM32F4xx_HAL_Driver/Src/stm32f4xx_hal_tim.c ****   * @retval HAL status
1293:Drivers/STM32F4xx_HAL_Driver/Src/stm32f4xx_hal_tim.c ****   */
1294:Drivers/STM32F4xx_HAL_Driver/Src/stm32f4xx_hal_tim.c **** HAL_StatusTypeDef HAL_TIM_PWM_Start(TIM_HandleTypeDef *htim, uint32_t Channel)
1295:Drivers/STM32F4xx_HAL_Driver/Src/stm32f4xx_hal_tim.c **** {
ARM GAS  /tmp/ccg0QfjD.s 			page 67


 2517              		.loc 1 1295 1
 2518              		.cfi_startproc
 2519              		@ args = 0, pretend = 0, frame = 16
 2520              		@ frame_needed = 1, uses_anonymous_args = 0
 2521 0000 80B5     		push	{r7, lr}
 2522              	.LCFI130:
 2523              		.cfi_def_cfa_offset 8
 2524              		.cfi_offset 7, -8
 2525              		.cfi_offset 14, -4
 2526 0002 84B0     		sub	sp, sp, #16
 2527              	.LCFI131:
 2528              		.cfi_def_cfa_offset 24
 2529 0004 00AF     		add	r7, sp, #0
 2530              	.LCFI132:
 2531              		.cfi_def_cfa_register 7
 2532 0006 7860     		str	r0, [r7, #4]
 2533 0008 3960     		str	r1, [r7]
1296:Drivers/STM32F4xx_HAL_Driver/Src/stm32f4xx_hal_tim.c ****   uint32_t tmpsmcr;
1297:Drivers/STM32F4xx_HAL_Driver/Src/stm32f4xx_hal_tim.c **** 
1298:Drivers/STM32F4xx_HAL_Driver/Src/stm32f4xx_hal_tim.c ****   /* Check the parameters */
1299:Drivers/STM32F4xx_HAL_Driver/Src/stm32f4xx_hal_tim.c ****   assert_param(IS_TIM_CCX_INSTANCE(htim->Instance, Channel));
1300:Drivers/STM32F4xx_HAL_Driver/Src/stm32f4xx_hal_tim.c **** 
1301:Drivers/STM32F4xx_HAL_Driver/Src/stm32f4xx_hal_tim.c ****   /* Enable the Capture compare channel */
1302:Drivers/STM32F4xx_HAL_Driver/Src/stm32f4xx_hal_tim.c ****   TIM_CCxChannelCmd(htim->Instance, Channel, TIM_CCx_ENABLE);
 2534              		.loc 1 1302 3
 2535 000a 7B68     		ldr	r3, [r7, #4]
 2536 000c 1B68     		ldr	r3, [r3]
 2537 000e 0122     		movs	r2, #1
 2538 0010 3968     		ldr	r1, [r7]
 2539 0012 1846     		mov	r0, r3
 2540 0014 FFF7FEFF 		bl	TIM_CCxChannelCmd
1303:Drivers/STM32F4xx_HAL_Driver/Src/stm32f4xx_hal_tim.c **** 
1304:Drivers/STM32F4xx_HAL_Driver/Src/stm32f4xx_hal_tim.c ****   if (IS_TIM_BREAK_INSTANCE(htim->Instance) != RESET)
 2541              		.loc 1 1304 7
 2542 0018 7B68     		ldr	r3, [r7, #4]
 2543 001a 1B68     		ldr	r3, [r3]
 2544 001c 154A     		ldr	r2, .L152
 2545 001e 9342     		cmp	r3, r2
 2546 0020 04D0     		beq	.L146
 2547              		.loc 1 1304 7 is_stmt 0 discriminator 2
 2548 0022 7B68     		ldr	r3, [r7, #4]
 2549 0024 1B68     		ldr	r3, [r3]
 2550 0026 144A     		ldr	r2, .L152+4
 2551 0028 9342     		cmp	r3, r2
 2552 002a 01D1     		bne	.L147
 2553              	.L146:
 2554              		.loc 1 1304 7 discriminator 3
 2555 002c 0123     		movs	r3, #1
 2556 002e 00E0     		b	.L148
 2557              	.L147:
 2558              		.loc 1 1304 7 discriminator 4
 2559 0030 0023     		movs	r3, #0
 2560              	.L148:
 2561              		.loc 1 1304 6 is_stmt 1 discriminator 6
 2562 0032 002B     		cmp	r3, #0
 2563 0034 07D0     		beq	.L149
1305:Drivers/STM32F4xx_HAL_Driver/Src/stm32f4xx_hal_tim.c ****   {
ARM GAS  /tmp/ccg0QfjD.s 			page 68


1306:Drivers/STM32F4xx_HAL_Driver/Src/stm32f4xx_hal_tim.c ****     /* Enable the main output */
1307:Drivers/STM32F4xx_HAL_Driver/Src/stm32f4xx_hal_tim.c ****     __HAL_TIM_MOE_ENABLE(htim);
 2564              		.loc 1 1307 5
 2565 0036 7B68     		ldr	r3, [r7, #4]
 2566 0038 1B68     		ldr	r3, [r3]
 2567 003a 5A6C     		ldr	r2, [r3, #68]
 2568 003c 7B68     		ldr	r3, [r7, #4]
 2569 003e 1B68     		ldr	r3, [r3]
 2570 0040 42F40042 		orr	r2, r2, #32768
 2571 0044 5A64     		str	r2, [r3, #68]
 2572              	.L149:
1308:Drivers/STM32F4xx_HAL_Driver/Src/stm32f4xx_hal_tim.c ****   }
1309:Drivers/STM32F4xx_HAL_Driver/Src/stm32f4xx_hal_tim.c **** 
1310:Drivers/STM32F4xx_HAL_Driver/Src/stm32f4xx_hal_tim.c ****   /* Enable the Peripheral, except in trigger mode where enable is automatically done with trigger 
1311:Drivers/STM32F4xx_HAL_Driver/Src/stm32f4xx_hal_tim.c ****   tmpsmcr = htim->Instance->SMCR & TIM_SMCR_SMS;
 2573              		.loc 1 1311 17
 2574 0046 7B68     		ldr	r3, [r7, #4]
 2575 0048 1B68     		ldr	r3, [r3]
 2576              		.loc 1 1311 27
 2577 004a 9B68     		ldr	r3, [r3, #8]
 2578              		.loc 1 1311 11
 2579 004c 03F00703 		and	r3, r3, #7
 2580 0050 FB60     		str	r3, [r7, #12]
1312:Drivers/STM32F4xx_HAL_Driver/Src/stm32f4xx_hal_tim.c ****   if (!IS_TIM_SLAVEMODE_TRIGGER_ENABLED(tmpsmcr))
 2581              		.loc 1 1312 6
 2582 0052 FB68     		ldr	r3, [r7, #12]
 2583 0054 062B     		cmp	r3, #6
 2584 0056 07D0     		beq	.L150
1313:Drivers/STM32F4xx_HAL_Driver/Src/stm32f4xx_hal_tim.c ****   {
1314:Drivers/STM32F4xx_HAL_Driver/Src/stm32f4xx_hal_tim.c ****     __HAL_TIM_ENABLE(htim);
 2585              		.loc 1 1314 5
 2586 0058 7B68     		ldr	r3, [r7, #4]
 2587 005a 1B68     		ldr	r3, [r3]
 2588 005c 1A68     		ldr	r2, [r3]
 2589 005e 7B68     		ldr	r3, [r7, #4]
 2590 0060 1B68     		ldr	r3, [r3]
 2591 0062 42F00102 		orr	r2, r2, #1
 2592 0066 1A60     		str	r2, [r3]
 2593              	.L150:
1315:Drivers/STM32F4xx_HAL_Driver/Src/stm32f4xx_hal_tim.c ****   }
1316:Drivers/STM32F4xx_HAL_Driver/Src/stm32f4xx_hal_tim.c **** 
1317:Drivers/STM32F4xx_HAL_Driver/Src/stm32f4xx_hal_tim.c ****   /* Return function status */
1318:Drivers/STM32F4xx_HAL_Driver/Src/stm32f4xx_hal_tim.c ****   return HAL_OK;
 2594              		.loc 1 1318 10
 2595 0068 0023     		movs	r3, #0
1319:Drivers/STM32F4xx_HAL_Driver/Src/stm32f4xx_hal_tim.c **** }
 2596              		.loc 1 1319 1
 2597 006a 1846     		mov	r0, r3
 2598 006c 1037     		adds	r7, r7, #16
 2599              	.LCFI133:
 2600              		.cfi_def_cfa_offset 8
 2601 006e BD46     		mov	sp, r7
 2602              	.LCFI134:
 2603              		.cfi_def_cfa_register 13
 2604              		@ sp needed
 2605 0070 80BD     		pop	{r7, pc}
 2606              	.L153:
ARM GAS  /tmp/ccg0QfjD.s 			page 69


 2607 0072 00BF     		.align	2
 2608              	.L152:
 2609 0074 00000140 		.word	1073807360
 2610 0078 00040140 		.word	1073808384
 2611              		.cfi_endproc
 2612              	.LFE154:
 2614              		.section	.text.HAL_TIM_PWM_Stop,"ax",%progbits
 2615              		.align	1
 2616              		.global	HAL_TIM_PWM_Stop
 2617              		.syntax unified
 2618              		.thumb
 2619              		.thumb_func
 2620              		.fpu fpv4-sp-d16
 2622              	HAL_TIM_PWM_Stop:
 2623              	.LFB155:
1320:Drivers/STM32F4xx_HAL_Driver/Src/stm32f4xx_hal_tim.c **** 
1321:Drivers/STM32F4xx_HAL_Driver/Src/stm32f4xx_hal_tim.c **** /**
1322:Drivers/STM32F4xx_HAL_Driver/Src/stm32f4xx_hal_tim.c ****   * @brief  Stops the PWM signal generation.
1323:Drivers/STM32F4xx_HAL_Driver/Src/stm32f4xx_hal_tim.c ****   * @param  htim TIM PWM handle
1324:Drivers/STM32F4xx_HAL_Driver/Src/stm32f4xx_hal_tim.c ****   * @param  Channel TIM Channels to be disabled
1325:Drivers/STM32F4xx_HAL_Driver/Src/stm32f4xx_hal_tim.c ****   *          This parameter can be one of the following values:
1326:Drivers/STM32F4xx_HAL_Driver/Src/stm32f4xx_hal_tim.c ****   *            @arg TIM_CHANNEL_1: TIM Channel 1 selected
1327:Drivers/STM32F4xx_HAL_Driver/Src/stm32f4xx_hal_tim.c ****   *            @arg TIM_CHANNEL_2: TIM Channel 2 selected
1328:Drivers/STM32F4xx_HAL_Driver/Src/stm32f4xx_hal_tim.c ****   *            @arg TIM_CHANNEL_3: TIM Channel 3 selected
1329:Drivers/STM32F4xx_HAL_Driver/Src/stm32f4xx_hal_tim.c ****   *            @arg TIM_CHANNEL_4: TIM Channel 4 selected
1330:Drivers/STM32F4xx_HAL_Driver/Src/stm32f4xx_hal_tim.c ****   * @retval HAL status
1331:Drivers/STM32F4xx_HAL_Driver/Src/stm32f4xx_hal_tim.c ****   */
1332:Drivers/STM32F4xx_HAL_Driver/Src/stm32f4xx_hal_tim.c **** HAL_StatusTypeDef HAL_TIM_PWM_Stop(TIM_HandleTypeDef *htim, uint32_t Channel)
1333:Drivers/STM32F4xx_HAL_Driver/Src/stm32f4xx_hal_tim.c **** {
 2624              		.loc 1 1333 1
 2625              		.cfi_startproc
 2626              		@ args = 0, pretend = 0, frame = 8
 2627              		@ frame_needed = 1, uses_anonymous_args = 0
 2628 0000 80B5     		push	{r7, lr}
 2629              	.LCFI135:
 2630              		.cfi_def_cfa_offset 8
 2631              		.cfi_offset 7, -8
 2632              		.cfi_offset 14, -4
 2633 0002 82B0     		sub	sp, sp, #8
 2634              	.LCFI136:
 2635              		.cfi_def_cfa_offset 16
 2636 0004 00AF     		add	r7, sp, #0
 2637              	.LCFI137:
 2638              		.cfi_def_cfa_register 7
 2639 0006 7860     		str	r0, [r7, #4]
 2640 0008 3960     		str	r1, [r7]
1334:Drivers/STM32F4xx_HAL_Driver/Src/stm32f4xx_hal_tim.c ****   /* Check the parameters */
1335:Drivers/STM32F4xx_HAL_Driver/Src/stm32f4xx_hal_tim.c ****   assert_param(IS_TIM_CCX_INSTANCE(htim->Instance, Channel));
1336:Drivers/STM32F4xx_HAL_Driver/Src/stm32f4xx_hal_tim.c **** 
1337:Drivers/STM32F4xx_HAL_Driver/Src/stm32f4xx_hal_tim.c ****   /* Disable the Capture compare channel */
1338:Drivers/STM32F4xx_HAL_Driver/Src/stm32f4xx_hal_tim.c ****   TIM_CCxChannelCmd(htim->Instance, Channel, TIM_CCx_DISABLE);
 2641              		.loc 1 1338 3
 2642 000a 7B68     		ldr	r3, [r7, #4]
 2643 000c 1B68     		ldr	r3, [r3]
 2644 000e 0022     		movs	r2, #0
 2645 0010 3968     		ldr	r1, [r7]
 2646 0012 1846     		mov	r0, r3
ARM GAS  /tmp/ccg0QfjD.s 			page 70


 2647 0014 FFF7FEFF 		bl	TIM_CCxChannelCmd
1339:Drivers/STM32F4xx_HAL_Driver/Src/stm32f4xx_hal_tim.c **** 
1340:Drivers/STM32F4xx_HAL_Driver/Src/stm32f4xx_hal_tim.c ****   if (IS_TIM_BREAK_INSTANCE(htim->Instance) != RESET)
 2648              		.loc 1 1340 7
 2649 0018 7B68     		ldr	r3, [r7, #4]
 2650 001a 1B68     		ldr	r3, [r3]
 2651 001c 224A     		ldr	r2, .L161
 2652 001e 9342     		cmp	r3, r2
 2653 0020 04D0     		beq	.L155
 2654              		.loc 1 1340 7 is_stmt 0 discriminator 2
 2655 0022 7B68     		ldr	r3, [r7, #4]
 2656 0024 1B68     		ldr	r3, [r3]
 2657 0026 214A     		ldr	r2, .L161+4
 2658 0028 9342     		cmp	r3, r2
 2659 002a 01D1     		bne	.L156
 2660              	.L155:
 2661              		.loc 1 1340 7 discriminator 3
 2662 002c 0123     		movs	r3, #1
 2663 002e 00E0     		b	.L157
 2664              	.L156:
 2665              		.loc 1 1340 7 discriminator 4
 2666 0030 0023     		movs	r3, #0
 2667              	.L157:
 2668              		.loc 1 1340 6 is_stmt 1 discriminator 6
 2669 0032 002B     		cmp	r3, #0
 2670 0034 17D0     		beq	.L158
1341:Drivers/STM32F4xx_HAL_Driver/Src/stm32f4xx_hal_tim.c ****   {
1342:Drivers/STM32F4xx_HAL_Driver/Src/stm32f4xx_hal_tim.c ****     /* Disable the Main Output */
1343:Drivers/STM32F4xx_HAL_Driver/Src/stm32f4xx_hal_tim.c ****     __HAL_TIM_MOE_DISABLE(htim);
 2671              		.loc 1 1343 5
 2672 0036 7B68     		ldr	r3, [r7, #4]
 2673 0038 1B68     		ldr	r3, [r3]
 2674 003a 1A6A     		ldr	r2, [r3, #32]
 2675 003c 41F21113 		movw	r3, #4369
 2676 0040 1340     		ands	r3, r3, r2
 2677 0042 002B     		cmp	r3, #0
 2678 0044 0FD1     		bne	.L158
 2679              		.loc 1 1343 5 is_stmt 0 discriminator 1
 2680 0046 7B68     		ldr	r3, [r7, #4]
 2681 0048 1B68     		ldr	r3, [r3]
 2682 004a 1A6A     		ldr	r2, [r3, #32]
 2683 004c 40F24443 		movw	r3, #1092
 2684 0050 1340     		ands	r3, r3, r2
 2685 0052 002B     		cmp	r3, #0
 2686 0054 07D1     		bne	.L158
 2687              		.loc 1 1343 5 discriminator 2
 2688 0056 7B68     		ldr	r3, [r7, #4]
 2689 0058 1B68     		ldr	r3, [r3]
 2690 005a 5A6C     		ldr	r2, [r3, #68]
 2691 005c 7B68     		ldr	r3, [r7, #4]
 2692 005e 1B68     		ldr	r3, [r3]
 2693 0060 22F40042 		bic	r2, r2, #32768
 2694 0064 5A64     		str	r2, [r3, #68]
 2695              	.L158:
1344:Drivers/STM32F4xx_HAL_Driver/Src/stm32f4xx_hal_tim.c ****   }
1345:Drivers/STM32F4xx_HAL_Driver/Src/stm32f4xx_hal_tim.c **** 
1346:Drivers/STM32F4xx_HAL_Driver/Src/stm32f4xx_hal_tim.c ****   /* Disable the Peripheral */
ARM GAS  /tmp/ccg0QfjD.s 			page 71


1347:Drivers/STM32F4xx_HAL_Driver/Src/stm32f4xx_hal_tim.c ****   __HAL_TIM_DISABLE(htim);
 2696              		.loc 1 1347 3 is_stmt 1
 2697 0066 7B68     		ldr	r3, [r7, #4]
 2698 0068 1B68     		ldr	r3, [r3]
 2699 006a 1A6A     		ldr	r2, [r3, #32]
 2700 006c 41F21113 		movw	r3, #4369
 2701 0070 1340     		ands	r3, r3, r2
 2702 0072 002B     		cmp	r3, #0
 2703 0074 0FD1     		bne	.L159
 2704              		.loc 1 1347 3 is_stmt 0 discriminator 1
 2705 0076 7B68     		ldr	r3, [r7, #4]
 2706 0078 1B68     		ldr	r3, [r3]
 2707 007a 1A6A     		ldr	r2, [r3, #32]
 2708 007c 40F24443 		movw	r3, #1092
 2709 0080 1340     		ands	r3, r3, r2
 2710 0082 002B     		cmp	r3, #0
 2711 0084 07D1     		bne	.L159
 2712              		.loc 1 1347 3 discriminator 2
 2713 0086 7B68     		ldr	r3, [r7, #4]
 2714 0088 1B68     		ldr	r3, [r3]
 2715 008a 1A68     		ldr	r2, [r3]
 2716 008c 7B68     		ldr	r3, [r7, #4]
 2717 008e 1B68     		ldr	r3, [r3]
 2718 0090 22F00102 		bic	r2, r2, #1
 2719 0094 1A60     		str	r2, [r3]
 2720              	.L159:
1348:Drivers/STM32F4xx_HAL_Driver/Src/stm32f4xx_hal_tim.c **** 
1349:Drivers/STM32F4xx_HAL_Driver/Src/stm32f4xx_hal_tim.c ****   /* Change the htim state */
1350:Drivers/STM32F4xx_HAL_Driver/Src/stm32f4xx_hal_tim.c ****   htim->State = HAL_TIM_STATE_READY;
 2721              		.loc 1 1350 15 is_stmt 1
 2722 0096 7B68     		ldr	r3, [r7, #4]
 2723 0098 0122     		movs	r2, #1
 2724 009a 83F83D20 		strb	r2, [r3, #61]
1351:Drivers/STM32F4xx_HAL_Driver/Src/stm32f4xx_hal_tim.c **** 
1352:Drivers/STM32F4xx_HAL_Driver/Src/stm32f4xx_hal_tim.c ****   /* Return function status */
1353:Drivers/STM32F4xx_HAL_Driver/Src/stm32f4xx_hal_tim.c ****   return HAL_OK;
 2725              		.loc 1 1353 10
 2726 009e 0023     		movs	r3, #0
1354:Drivers/STM32F4xx_HAL_Driver/Src/stm32f4xx_hal_tim.c **** }
 2727              		.loc 1 1354 1
 2728 00a0 1846     		mov	r0, r3
 2729 00a2 0837     		adds	r7, r7, #8
 2730              	.LCFI138:
 2731              		.cfi_def_cfa_offset 8
 2732 00a4 BD46     		mov	sp, r7
 2733              	.LCFI139:
 2734              		.cfi_def_cfa_register 13
 2735              		@ sp needed
 2736 00a6 80BD     		pop	{r7, pc}
 2737              	.L162:
 2738              		.align	2
 2739              	.L161:
 2740 00a8 00000140 		.word	1073807360
 2741 00ac 00040140 		.word	1073808384
 2742              		.cfi_endproc
 2743              	.LFE155:
 2745              		.section	.text.HAL_TIM_PWM_Start_IT,"ax",%progbits
ARM GAS  /tmp/ccg0QfjD.s 			page 72


 2746              		.align	1
 2747              		.global	HAL_TIM_PWM_Start_IT
 2748              		.syntax unified
 2749              		.thumb
 2750              		.thumb_func
 2751              		.fpu fpv4-sp-d16
 2753              	HAL_TIM_PWM_Start_IT:
 2754              	.LFB156:
1355:Drivers/STM32F4xx_HAL_Driver/Src/stm32f4xx_hal_tim.c **** 
1356:Drivers/STM32F4xx_HAL_Driver/Src/stm32f4xx_hal_tim.c **** /**
1357:Drivers/STM32F4xx_HAL_Driver/Src/stm32f4xx_hal_tim.c ****   * @brief  Starts the PWM signal generation in interrupt mode.
1358:Drivers/STM32F4xx_HAL_Driver/Src/stm32f4xx_hal_tim.c ****   * @param  htim TIM PWM handle
1359:Drivers/STM32F4xx_HAL_Driver/Src/stm32f4xx_hal_tim.c ****   * @param  Channel TIM Channel to be enabled
1360:Drivers/STM32F4xx_HAL_Driver/Src/stm32f4xx_hal_tim.c ****   *          This parameter can be one of the following values:
1361:Drivers/STM32F4xx_HAL_Driver/Src/stm32f4xx_hal_tim.c ****   *            @arg TIM_CHANNEL_1: TIM Channel 1 selected
1362:Drivers/STM32F4xx_HAL_Driver/Src/stm32f4xx_hal_tim.c ****   *            @arg TIM_CHANNEL_2: TIM Channel 2 selected
1363:Drivers/STM32F4xx_HAL_Driver/Src/stm32f4xx_hal_tim.c ****   *            @arg TIM_CHANNEL_3: TIM Channel 3 selected
1364:Drivers/STM32F4xx_HAL_Driver/Src/stm32f4xx_hal_tim.c ****   *            @arg TIM_CHANNEL_4: TIM Channel 4 selected
1365:Drivers/STM32F4xx_HAL_Driver/Src/stm32f4xx_hal_tim.c ****   * @retval HAL status
1366:Drivers/STM32F4xx_HAL_Driver/Src/stm32f4xx_hal_tim.c ****   */
1367:Drivers/STM32F4xx_HAL_Driver/Src/stm32f4xx_hal_tim.c **** HAL_StatusTypeDef HAL_TIM_PWM_Start_IT(TIM_HandleTypeDef *htim, uint32_t Channel)
1368:Drivers/STM32F4xx_HAL_Driver/Src/stm32f4xx_hal_tim.c **** {
 2755              		.loc 1 1368 1
 2756              		.cfi_startproc
 2757              		@ args = 0, pretend = 0, frame = 16
 2758              		@ frame_needed = 1, uses_anonymous_args = 0
 2759 0000 80B5     		push	{r7, lr}
 2760              	.LCFI140:
 2761              		.cfi_def_cfa_offset 8
 2762              		.cfi_offset 7, -8
 2763              		.cfi_offset 14, -4
 2764 0002 84B0     		sub	sp, sp, #16
 2765              	.LCFI141:
 2766              		.cfi_def_cfa_offset 24
 2767 0004 00AF     		add	r7, sp, #0
 2768              	.LCFI142:
 2769              		.cfi_def_cfa_register 7
 2770 0006 7860     		str	r0, [r7, #4]
 2771 0008 3960     		str	r1, [r7]
1369:Drivers/STM32F4xx_HAL_Driver/Src/stm32f4xx_hal_tim.c ****   uint32_t tmpsmcr;
1370:Drivers/STM32F4xx_HAL_Driver/Src/stm32f4xx_hal_tim.c ****   /* Check the parameters */
1371:Drivers/STM32F4xx_HAL_Driver/Src/stm32f4xx_hal_tim.c ****   assert_param(IS_TIM_CCX_INSTANCE(htim->Instance, Channel));
1372:Drivers/STM32F4xx_HAL_Driver/Src/stm32f4xx_hal_tim.c **** 
1373:Drivers/STM32F4xx_HAL_Driver/Src/stm32f4xx_hal_tim.c ****   switch (Channel)
 2772              		.loc 1 1373 3
 2773 000a 3B68     		ldr	r3, [r7]
 2774 000c 0C2B     		cmp	r3, #12
 2775 000e 41D8     		bhi	.L177
 2776 0010 01A2     		adr	r2, .L166
 2777 0012 52F823F0 		ldr	pc, [r2, r3, lsl #2]
 2778 0016 00BF     		.p2align 2
 2779              	.L166:
 2780 0018 4D000000 		.word	.L169+1
 2781 001c 95000000 		.word	.L177+1
 2782 0020 95000000 		.word	.L177+1
 2783 0024 95000000 		.word	.L177+1
 2784 0028 5F000000 		.word	.L168+1
ARM GAS  /tmp/ccg0QfjD.s 			page 73


 2785 002c 95000000 		.word	.L177+1
 2786 0030 95000000 		.word	.L177+1
 2787 0034 95000000 		.word	.L177+1
 2788 0038 71000000 		.word	.L167+1
 2789 003c 95000000 		.word	.L177+1
 2790 0040 95000000 		.word	.L177+1
 2791 0044 95000000 		.word	.L177+1
 2792 0048 83000000 		.word	.L165+1
 2793              		.p2align 1
 2794              	.L169:
1374:Drivers/STM32F4xx_HAL_Driver/Src/stm32f4xx_hal_tim.c ****   {
1375:Drivers/STM32F4xx_HAL_Driver/Src/stm32f4xx_hal_tim.c ****     case TIM_CHANNEL_1:
1376:Drivers/STM32F4xx_HAL_Driver/Src/stm32f4xx_hal_tim.c ****     {
1377:Drivers/STM32F4xx_HAL_Driver/Src/stm32f4xx_hal_tim.c ****       /* Enable the TIM Capture/Compare 1 interrupt */
1378:Drivers/STM32F4xx_HAL_Driver/Src/stm32f4xx_hal_tim.c ****       __HAL_TIM_ENABLE_IT(htim, TIM_IT_CC1);
 2795              		.loc 1 1378 7
 2796 004c 7B68     		ldr	r3, [r7, #4]
 2797 004e 1B68     		ldr	r3, [r3]
 2798 0050 DA68     		ldr	r2, [r3, #12]
 2799 0052 7B68     		ldr	r3, [r7, #4]
 2800 0054 1B68     		ldr	r3, [r3]
 2801 0056 42F00202 		orr	r2, r2, #2
 2802 005a DA60     		str	r2, [r3, #12]
1379:Drivers/STM32F4xx_HAL_Driver/Src/stm32f4xx_hal_tim.c ****       break;
 2803              		.loc 1 1379 7
 2804 005c 1BE0     		b	.L170
 2805              	.L168:
1380:Drivers/STM32F4xx_HAL_Driver/Src/stm32f4xx_hal_tim.c ****     }
1381:Drivers/STM32F4xx_HAL_Driver/Src/stm32f4xx_hal_tim.c **** 
1382:Drivers/STM32F4xx_HAL_Driver/Src/stm32f4xx_hal_tim.c ****     case TIM_CHANNEL_2:
1383:Drivers/STM32F4xx_HAL_Driver/Src/stm32f4xx_hal_tim.c ****     {
1384:Drivers/STM32F4xx_HAL_Driver/Src/stm32f4xx_hal_tim.c ****       /* Enable the TIM Capture/Compare 2 interrupt */
1385:Drivers/STM32F4xx_HAL_Driver/Src/stm32f4xx_hal_tim.c ****       __HAL_TIM_ENABLE_IT(htim, TIM_IT_CC2);
 2806              		.loc 1 1385 7
 2807 005e 7B68     		ldr	r3, [r7, #4]
 2808 0060 1B68     		ldr	r3, [r3]
 2809 0062 DA68     		ldr	r2, [r3, #12]
 2810 0064 7B68     		ldr	r3, [r7, #4]
 2811 0066 1B68     		ldr	r3, [r3]
 2812 0068 42F00402 		orr	r2, r2, #4
 2813 006c DA60     		str	r2, [r3, #12]
1386:Drivers/STM32F4xx_HAL_Driver/Src/stm32f4xx_hal_tim.c ****       break;
 2814              		.loc 1 1386 7
 2815 006e 12E0     		b	.L170
 2816              	.L167:
1387:Drivers/STM32F4xx_HAL_Driver/Src/stm32f4xx_hal_tim.c ****     }
1388:Drivers/STM32F4xx_HAL_Driver/Src/stm32f4xx_hal_tim.c **** 
1389:Drivers/STM32F4xx_HAL_Driver/Src/stm32f4xx_hal_tim.c ****     case TIM_CHANNEL_3:
1390:Drivers/STM32F4xx_HAL_Driver/Src/stm32f4xx_hal_tim.c ****     {
1391:Drivers/STM32F4xx_HAL_Driver/Src/stm32f4xx_hal_tim.c ****       /* Enable the TIM Capture/Compare 3 interrupt */
1392:Drivers/STM32F4xx_HAL_Driver/Src/stm32f4xx_hal_tim.c ****       __HAL_TIM_ENABLE_IT(htim, TIM_IT_CC3);
 2817              		.loc 1 1392 7
 2818 0070 7B68     		ldr	r3, [r7, #4]
 2819 0072 1B68     		ldr	r3, [r3]
 2820 0074 DA68     		ldr	r2, [r3, #12]
 2821 0076 7B68     		ldr	r3, [r7, #4]
 2822 0078 1B68     		ldr	r3, [r3]
ARM GAS  /tmp/ccg0QfjD.s 			page 74


 2823 007a 42F00802 		orr	r2, r2, #8
 2824 007e DA60     		str	r2, [r3, #12]
1393:Drivers/STM32F4xx_HAL_Driver/Src/stm32f4xx_hal_tim.c ****       break;
 2825              		.loc 1 1393 7
 2826 0080 09E0     		b	.L170
 2827              	.L165:
1394:Drivers/STM32F4xx_HAL_Driver/Src/stm32f4xx_hal_tim.c ****     }
1395:Drivers/STM32F4xx_HAL_Driver/Src/stm32f4xx_hal_tim.c **** 
1396:Drivers/STM32F4xx_HAL_Driver/Src/stm32f4xx_hal_tim.c ****     case TIM_CHANNEL_4:
1397:Drivers/STM32F4xx_HAL_Driver/Src/stm32f4xx_hal_tim.c ****     {
1398:Drivers/STM32F4xx_HAL_Driver/Src/stm32f4xx_hal_tim.c ****       /* Enable the TIM Capture/Compare 4 interrupt */
1399:Drivers/STM32F4xx_HAL_Driver/Src/stm32f4xx_hal_tim.c ****       __HAL_TIM_ENABLE_IT(htim, TIM_IT_CC4);
 2828              		.loc 1 1399 7
 2829 0082 7B68     		ldr	r3, [r7, #4]
 2830 0084 1B68     		ldr	r3, [r3]
 2831 0086 DA68     		ldr	r2, [r3, #12]
 2832 0088 7B68     		ldr	r3, [r7, #4]
 2833 008a 1B68     		ldr	r3, [r3]
 2834 008c 42F01002 		orr	r2, r2, #16
 2835 0090 DA60     		str	r2, [r3, #12]
1400:Drivers/STM32F4xx_HAL_Driver/Src/stm32f4xx_hal_tim.c ****       break;
 2836              		.loc 1 1400 7
 2837 0092 00E0     		b	.L170
 2838              	.L177:
1401:Drivers/STM32F4xx_HAL_Driver/Src/stm32f4xx_hal_tim.c ****     }
1402:Drivers/STM32F4xx_HAL_Driver/Src/stm32f4xx_hal_tim.c **** 
1403:Drivers/STM32F4xx_HAL_Driver/Src/stm32f4xx_hal_tim.c ****     default:
1404:Drivers/STM32F4xx_HAL_Driver/Src/stm32f4xx_hal_tim.c ****       break;
 2839              		.loc 1 1404 7
 2840 0094 00BF     		nop
 2841              	.L170:
1405:Drivers/STM32F4xx_HAL_Driver/Src/stm32f4xx_hal_tim.c ****   }
1406:Drivers/STM32F4xx_HAL_Driver/Src/stm32f4xx_hal_tim.c **** 
1407:Drivers/STM32F4xx_HAL_Driver/Src/stm32f4xx_hal_tim.c ****   /* Enable the Capture compare channel */
1408:Drivers/STM32F4xx_HAL_Driver/Src/stm32f4xx_hal_tim.c ****   TIM_CCxChannelCmd(htim->Instance, Channel, TIM_CCx_ENABLE);
 2842              		.loc 1 1408 3
 2843 0096 7B68     		ldr	r3, [r7, #4]
 2844 0098 1B68     		ldr	r3, [r3]
 2845 009a 0122     		movs	r2, #1
 2846 009c 3968     		ldr	r1, [r7]
 2847 009e 1846     		mov	r0, r3
 2848 00a0 FFF7FEFF 		bl	TIM_CCxChannelCmd
1409:Drivers/STM32F4xx_HAL_Driver/Src/stm32f4xx_hal_tim.c **** 
1410:Drivers/STM32F4xx_HAL_Driver/Src/stm32f4xx_hal_tim.c ****   if (IS_TIM_BREAK_INSTANCE(htim->Instance) != RESET)
 2849              		.loc 1 1410 7
 2850 00a4 7B68     		ldr	r3, [r7, #4]
 2851 00a6 1B68     		ldr	r3, [r3]
 2852 00a8 154A     		ldr	r2, .L178
 2853 00aa 9342     		cmp	r3, r2
 2854 00ac 04D0     		beq	.L171
 2855              		.loc 1 1410 7 is_stmt 0 discriminator 2
 2856 00ae 7B68     		ldr	r3, [r7, #4]
 2857 00b0 1B68     		ldr	r3, [r3]
 2858 00b2 144A     		ldr	r2, .L178+4
 2859 00b4 9342     		cmp	r3, r2
 2860 00b6 01D1     		bne	.L172
 2861              	.L171:
ARM GAS  /tmp/ccg0QfjD.s 			page 75


 2862              		.loc 1 1410 7 discriminator 3
 2863 00b8 0123     		movs	r3, #1
 2864 00ba 00E0     		b	.L173
 2865              	.L172:
 2866              		.loc 1 1410 7 discriminator 4
 2867 00bc 0023     		movs	r3, #0
 2868              	.L173:
 2869              		.loc 1 1410 6 is_stmt 1 discriminator 6
 2870 00be 002B     		cmp	r3, #0
 2871 00c0 07D0     		beq	.L174
1411:Drivers/STM32F4xx_HAL_Driver/Src/stm32f4xx_hal_tim.c ****   {
1412:Drivers/STM32F4xx_HAL_Driver/Src/stm32f4xx_hal_tim.c ****     /* Enable the main output */
1413:Drivers/STM32F4xx_HAL_Driver/Src/stm32f4xx_hal_tim.c ****     __HAL_TIM_MOE_ENABLE(htim);
 2872              		.loc 1 1413 5
 2873 00c2 7B68     		ldr	r3, [r7, #4]
 2874 00c4 1B68     		ldr	r3, [r3]
 2875 00c6 5A6C     		ldr	r2, [r3, #68]
 2876 00c8 7B68     		ldr	r3, [r7, #4]
 2877 00ca 1B68     		ldr	r3, [r3]
 2878 00cc 42F40042 		orr	r2, r2, #32768
 2879 00d0 5A64     		str	r2, [r3, #68]
 2880              	.L174:
1414:Drivers/STM32F4xx_HAL_Driver/Src/stm32f4xx_hal_tim.c ****   }
1415:Drivers/STM32F4xx_HAL_Driver/Src/stm32f4xx_hal_tim.c **** 
1416:Drivers/STM32F4xx_HAL_Driver/Src/stm32f4xx_hal_tim.c ****   /* Enable the Peripheral, except in trigger mode where enable is automatically done with trigger 
1417:Drivers/STM32F4xx_HAL_Driver/Src/stm32f4xx_hal_tim.c ****   tmpsmcr = htim->Instance->SMCR & TIM_SMCR_SMS;
 2881              		.loc 1 1417 17
 2882 00d2 7B68     		ldr	r3, [r7, #4]
 2883 00d4 1B68     		ldr	r3, [r3]
 2884              		.loc 1 1417 27
 2885 00d6 9B68     		ldr	r3, [r3, #8]
 2886              		.loc 1 1417 11
 2887 00d8 03F00703 		and	r3, r3, #7
 2888 00dc FB60     		str	r3, [r7, #12]
1418:Drivers/STM32F4xx_HAL_Driver/Src/stm32f4xx_hal_tim.c ****   if (!IS_TIM_SLAVEMODE_TRIGGER_ENABLED(tmpsmcr))
 2889              		.loc 1 1418 6
 2890 00de FB68     		ldr	r3, [r7, #12]
 2891 00e0 062B     		cmp	r3, #6
 2892 00e2 07D0     		beq	.L175
1419:Drivers/STM32F4xx_HAL_Driver/Src/stm32f4xx_hal_tim.c ****   {
1420:Drivers/STM32F4xx_HAL_Driver/Src/stm32f4xx_hal_tim.c ****     __HAL_TIM_ENABLE(htim);
 2893              		.loc 1 1420 5
 2894 00e4 7B68     		ldr	r3, [r7, #4]
 2895 00e6 1B68     		ldr	r3, [r3]
 2896 00e8 1A68     		ldr	r2, [r3]
 2897 00ea 7B68     		ldr	r3, [r7, #4]
 2898 00ec 1B68     		ldr	r3, [r3]
 2899 00ee 42F00102 		orr	r2, r2, #1
 2900 00f2 1A60     		str	r2, [r3]
 2901              	.L175:
1421:Drivers/STM32F4xx_HAL_Driver/Src/stm32f4xx_hal_tim.c ****   }
1422:Drivers/STM32F4xx_HAL_Driver/Src/stm32f4xx_hal_tim.c **** 
1423:Drivers/STM32F4xx_HAL_Driver/Src/stm32f4xx_hal_tim.c ****   /* Return function status */
1424:Drivers/STM32F4xx_HAL_Driver/Src/stm32f4xx_hal_tim.c ****   return HAL_OK;
 2902              		.loc 1 1424 10
 2903 00f4 0023     		movs	r3, #0
1425:Drivers/STM32F4xx_HAL_Driver/Src/stm32f4xx_hal_tim.c **** }
ARM GAS  /tmp/ccg0QfjD.s 			page 76


 2904              		.loc 1 1425 1
 2905 00f6 1846     		mov	r0, r3
 2906 00f8 1037     		adds	r7, r7, #16
 2907              	.LCFI143:
 2908              		.cfi_def_cfa_offset 8
 2909 00fa BD46     		mov	sp, r7
 2910              	.LCFI144:
 2911              		.cfi_def_cfa_register 13
 2912              		@ sp needed
 2913 00fc 80BD     		pop	{r7, pc}
 2914              	.L179:
 2915 00fe 00BF     		.align	2
 2916              	.L178:
 2917 0100 00000140 		.word	1073807360
 2918 0104 00040140 		.word	1073808384
 2919              		.cfi_endproc
 2920              	.LFE156:
 2922              		.section	.text.HAL_TIM_PWM_Stop_IT,"ax",%progbits
 2923              		.align	1
 2924              		.global	HAL_TIM_PWM_Stop_IT
 2925              		.syntax unified
 2926              		.thumb
 2927              		.thumb_func
 2928              		.fpu fpv4-sp-d16
 2930              	HAL_TIM_PWM_Stop_IT:
 2931              	.LFB157:
1426:Drivers/STM32F4xx_HAL_Driver/Src/stm32f4xx_hal_tim.c **** 
1427:Drivers/STM32F4xx_HAL_Driver/Src/stm32f4xx_hal_tim.c **** /**
1428:Drivers/STM32F4xx_HAL_Driver/Src/stm32f4xx_hal_tim.c ****   * @brief  Stops the PWM signal generation in interrupt mode.
1429:Drivers/STM32F4xx_HAL_Driver/Src/stm32f4xx_hal_tim.c ****   * @param  htim TIM PWM handle
1430:Drivers/STM32F4xx_HAL_Driver/Src/stm32f4xx_hal_tim.c ****   * @param  Channel TIM Channels to be disabled
1431:Drivers/STM32F4xx_HAL_Driver/Src/stm32f4xx_hal_tim.c ****   *          This parameter can be one of the following values:
1432:Drivers/STM32F4xx_HAL_Driver/Src/stm32f4xx_hal_tim.c ****   *            @arg TIM_CHANNEL_1: TIM Channel 1 selected
1433:Drivers/STM32F4xx_HAL_Driver/Src/stm32f4xx_hal_tim.c ****   *            @arg TIM_CHANNEL_2: TIM Channel 2 selected
1434:Drivers/STM32F4xx_HAL_Driver/Src/stm32f4xx_hal_tim.c ****   *            @arg TIM_CHANNEL_3: TIM Channel 3 selected
1435:Drivers/STM32F4xx_HAL_Driver/Src/stm32f4xx_hal_tim.c ****   *            @arg TIM_CHANNEL_4: TIM Channel 4 selected
1436:Drivers/STM32F4xx_HAL_Driver/Src/stm32f4xx_hal_tim.c ****   * @retval HAL status
1437:Drivers/STM32F4xx_HAL_Driver/Src/stm32f4xx_hal_tim.c ****   */
1438:Drivers/STM32F4xx_HAL_Driver/Src/stm32f4xx_hal_tim.c **** HAL_StatusTypeDef HAL_TIM_PWM_Stop_IT(TIM_HandleTypeDef *htim, uint32_t Channel)
1439:Drivers/STM32F4xx_HAL_Driver/Src/stm32f4xx_hal_tim.c **** {
 2932              		.loc 1 1439 1
 2933              		.cfi_startproc
 2934              		@ args = 0, pretend = 0, frame = 8
 2935              		@ frame_needed = 1, uses_anonymous_args = 0
 2936 0000 80B5     		push	{r7, lr}
 2937              	.LCFI145:
 2938              		.cfi_def_cfa_offset 8
 2939              		.cfi_offset 7, -8
 2940              		.cfi_offset 14, -4
 2941 0002 82B0     		sub	sp, sp, #8
 2942              	.LCFI146:
 2943              		.cfi_def_cfa_offset 16
 2944 0004 00AF     		add	r7, sp, #0
 2945              	.LCFI147:
 2946              		.cfi_def_cfa_register 7
 2947 0006 7860     		str	r0, [r7, #4]
 2948 0008 3960     		str	r1, [r7]
ARM GAS  /tmp/ccg0QfjD.s 			page 77


1440:Drivers/STM32F4xx_HAL_Driver/Src/stm32f4xx_hal_tim.c ****   /* Check the parameters */
1441:Drivers/STM32F4xx_HAL_Driver/Src/stm32f4xx_hal_tim.c ****   assert_param(IS_TIM_CCX_INSTANCE(htim->Instance, Channel));
1442:Drivers/STM32F4xx_HAL_Driver/Src/stm32f4xx_hal_tim.c **** 
1443:Drivers/STM32F4xx_HAL_Driver/Src/stm32f4xx_hal_tim.c ****   switch (Channel)
 2949              		.loc 1 1443 3
 2950 000a 3B68     		ldr	r3, [r7]
 2951 000c 0C2B     		cmp	r3, #12
 2952 000e 41D8     		bhi	.L194
 2953 0010 01A2     		adr	r2, .L183
 2954 0012 52F823F0 		ldr	pc, [r2, r3, lsl #2]
 2955 0016 00BF     		.p2align 2
 2956              	.L183:
 2957 0018 4D000000 		.word	.L186+1
 2958 001c 95000000 		.word	.L194+1
 2959 0020 95000000 		.word	.L194+1
 2960 0024 95000000 		.word	.L194+1
 2961 0028 5F000000 		.word	.L185+1
 2962 002c 95000000 		.word	.L194+1
 2963 0030 95000000 		.word	.L194+1
 2964 0034 95000000 		.word	.L194+1
 2965 0038 71000000 		.word	.L184+1
 2966 003c 95000000 		.word	.L194+1
 2967 0040 95000000 		.word	.L194+1
 2968 0044 95000000 		.word	.L194+1
 2969 0048 83000000 		.word	.L182+1
 2970              		.p2align 1
 2971              	.L186:
1444:Drivers/STM32F4xx_HAL_Driver/Src/stm32f4xx_hal_tim.c ****   {
1445:Drivers/STM32F4xx_HAL_Driver/Src/stm32f4xx_hal_tim.c ****     case TIM_CHANNEL_1:
1446:Drivers/STM32F4xx_HAL_Driver/Src/stm32f4xx_hal_tim.c ****     {
1447:Drivers/STM32F4xx_HAL_Driver/Src/stm32f4xx_hal_tim.c ****       /* Disable the TIM Capture/Compare 1 interrupt */
1448:Drivers/STM32F4xx_HAL_Driver/Src/stm32f4xx_hal_tim.c ****       __HAL_TIM_DISABLE_IT(htim, TIM_IT_CC1);
 2972              		.loc 1 1448 7
 2973 004c 7B68     		ldr	r3, [r7, #4]
 2974 004e 1B68     		ldr	r3, [r3]
 2975 0050 DA68     		ldr	r2, [r3, #12]
 2976 0052 7B68     		ldr	r3, [r7, #4]
 2977 0054 1B68     		ldr	r3, [r3]
 2978 0056 22F00202 		bic	r2, r2, #2
 2979 005a DA60     		str	r2, [r3, #12]
1449:Drivers/STM32F4xx_HAL_Driver/Src/stm32f4xx_hal_tim.c ****       break;
 2980              		.loc 1 1449 7
 2981 005c 1BE0     		b	.L187
 2982              	.L185:
1450:Drivers/STM32F4xx_HAL_Driver/Src/stm32f4xx_hal_tim.c ****     }
1451:Drivers/STM32F4xx_HAL_Driver/Src/stm32f4xx_hal_tim.c **** 
1452:Drivers/STM32F4xx_HAL_Driver/Src/stm32f4xx_hal_tim.c ****     case TIM_CHANNEL_2:
1453:Drivers/STM32F4xx_HAL_Driver/Src/stm32f4xx_hal_tim.c ****     {
1454:Drivers/STM32F4xx_HAL_Driver/Src/stm32f4xx_hal_tim.c ****       /* Disable the TIM Capture/Compare 2 interrupt */
1455:Drivers/STM32F4xx_HAL_Driver/Src/stm32f4xx_hal_tim.c ****       __HAL_TIM_DISABLE_IT(htim, TIM_IT_CC2);
 2983              		.loc 1 1455 7
 2984 005e 7B68     		ldr	r3, [r7, #4]
 2985 0060 1B68     		ldr	r3, [r3]
 2986 0062 DA68     		ldr	r2, [r3, #12]
 2987 0064 7B68     		ldr	r3, [r7, #4]
 2988 0066 1B68     		ldr	r3, [r3]
 2989 0068 22F00402 		bic	r2, r2, #4
ARM GAS  /tmp/ccg0QfjD.s 			page 78


 2990 006c DA60     		str	r2, [r3, #12]
1456:Drivers/STM32F4xx_HAL_Driver/Src/stm32f4xx_hal_tim.c ****       break;
 2991              		.loc 1 1456 7
 2992 006e 12E0     		b	.L187
 2993              	.L184:
1457:Drivers/STM32F4xx_HAL_Driver/Src/stm32f4xx_hal_tim.c ****     }
1458:Drivers/STM32F4xx_HAL_Driver/Src/stm32f4xx_hal_tim.c **** 
1459:Drivers/STM32F4xx_HAL_Driver/Src/stm32f4xx_hal_tim.c ****     case TIM_CHANNEL_3:
1460:Drivers/STM32F4xx_HAL_Driver/Src/stm32f4xx_hal_tim.c ****     {
1461:Drivers/STM32F4xx_HAL_Driver/Src/stm32f4xx_hal_tim.c ****       /* Disable the TIM Capture/Compare 3 interrupt */
1462:Drivers/STM32F4xx_HAL_Driver/Src/stm32f4xx_hal_tim.c ****       __HAL_TIM_DISABLE_IT(htim, TIM_IT_CC3);
 2994              		.loc 1 1462 7
 2995 0070 7B68     		ldr	r3, [r7, #4]
 2996 0072 1B68     		ldr	r3, [r3]
 2997 0074 DA68     		ldr	r2, [r3, #12]
 2998 0076 7B68     		ldr	r3, [r7, #4]
 2999 0078 1B68     		ldr	r3, [r3]
 3000 007a 22F00802 		bic	r2, r2, #8
 3001 007e DA60     		str	r2, [r3, #12]
1463:Drivers/STM32F4xx_HAL_Driver/Src/stm32f4xx_hal_tim.c ****       break;
 3002              		.loc 1 1463 7
 3003 0080 09E0     		b	.L187
 3004              	.L182:
