ARM GAS  /tmp/ccilmNhL.s 			page 1


   1              		.cpu cortex-m4
   2              		.eabi_attribute 27, 1
   3              		.eabi_attribute 28, 1
   4              		.eabi_attribute 20, 1
   5              		.eabi_attribute 21, 1
   6              		.eabi_attribute 23, 3
   7              		.eabi_attribute 24, 1
   8              		.eabi_attribute 25, 1
   9              		.eabi_attribute 26, 1
  10              		.eabi_attribute 30, 6
  11              		.eabi_attribute 34, 1
  12              		.eabi_attribute 18, 4
  13              		.file	"stm32f4xx_hal_tim_ex.c"
  14              		.text
  15              	.Ltext0:
  16              		.cfi_sections	.debug_frame
  17              		.section	.text.HAL_TIMEx_HallSensor_Init,"ax",%progbits
  18              		.align	1
  19              		.global	HAL_TIMEx_HallSensor_Init
  20              		.arch armv7e-m
  21              		.syntax unified
  22              		.thumb
  23              		.thumb_func
  24              		.fpu fpv4-sp-d16
  26              	HAL_TIMEx_HallSensor_Init:
  27              	.LFB130:
  28              		.file 1 "Drivers/STM32F4xx_HAL_Driver/Src/stm32f4xx_hal_tim_ex.c"
   1:Drivers/STM32F4xx_HAL_Driver/Src/stm32f4xx_hal_tim_ex.c **** /**
   2:Drivers/STM32F4xx_HAL_Driver/Src/stm32f4xx_hal_tim_ex.c ****   ******************************************************************************
   3:Drivers/STM32F4xx_HAL_Driver/Src/stm32f4xx_hal_tim_ex.c ****   * @file    stm32f4xx_hal_tim_ex.c
   4:Drivers/STM32F4xx_HAL_Driver/Src/stm32f4xx_hal_tim_ex.c ****   * @author  MCD Application Team
   5:Drivers/STM32F4xx_HAL_Driver/Src/stm32f4xx_hal_tim_ex.c ****   * @brief   TIM HAL module driver.
   6:Drivers/STM32F4xx_HAL_Driver/Src/stm32f4xx_hal_tim_ex.c ****   *          This file provides firmware functions to manage the following
   7:Drivers/STM32F4xx_HAL_Driver/Src/stm32f4xx_hal_tim_ex.c ****   *          functionalities of the Timer Extended peripheral:
   8:Drivers/STM32F4xx_HAL_Driver/Src/stm32f4xx_hal_tim_ex.c ****   *           + Time Hall Sensor Interface Initialization
   9:Drivers/STM32F4xx_HAL_Driver/Src/stm32f4xx_hal_tim_ex.c ****   *           + Time Hall Sensor Interface Start
  10:Drivers/STM32F4xx_HAL_Driver/Src/stm32f4xx_hal_tim_ex.c ****   *           + Time Complementary signal break and dead time configuration
  11:Drivers/STM32F4xx_HAL_Driver/Src/stm32f4xx_hal_tim_ex.c ****   *           + Time Master and Slave synchronization configuration
  12:Drivers/STM32F4xx_HAL_Driver/Src/stm32f4xx_hal_tim_ex.c ****   *           + Timer remapping capabilities configuration
  13:Drivers/STM32F4xx_HAL_Driver/Src/stm32f4xx_hal_tim_ex.c ****   @verbatim
  14:Drivers/STM32F4xx_HAL_Driver/Src/stm32f4xx_hal_tim_ex.c ****   ==============================================================================
  15:Drivers/STM32F4xx_HAL_Driver/Src/stm32f4xx_hal_tim_ex.c ****                       ##### TIMER Extended features #####
  16:Drivers/STM32F4xx_HAL_Driver/Src/stm32f4xx_hal_tim_ex.c ****   ==============================================================================
  17:Drivers/STM32F4xx_HAL_Driver/Src/stm32f4xx_hal_tim_ex.c ****   [..]
  18:Drivers/STM32F4xx_HAL_Driver/Src/stm32f4xx_hal_tim_ex.c ****     The Timer Extended features include:
  19:Drivers/STM32F4xx_HAL_Driver/Src/stm32f4xx_hal_tim_ex.c ****     (#) Complementary outputs with programmable dead-time for :
  20:Drivers/STM32F4xx_HAL_Driver/Src/stm32f4xx_hal_tim_ex.c ****         (++) Output Compare
  21:Drivers/STM32F4xx_HAL_Driver/Src/stm32f4xx_hal_tim_ex.c ****         (++) PWM generation (Edge and Center-aligned Mode)
  22:Drivers/STM32F4xx_HAL_Driver/Src/stm32f4xx_hal_tim_ex.c ****         (++) One-pulse mode output
  23:Drivers/STM32F4xx_HAL_Driver/Src/stm32f4xx_hal_tim_ex.c ****     (#) Synchronization circuit to control the timer with external signals and to
  24:Drivers/STM32F4xx_HAL_Driver/Src/stm32f4xx_hal_tim_ex.c ****         interconnect several timers together.
  25:Drivers/STM32F4xx_HAL_Driver/Src/stm32f4xx_hal_tim_ex.c ****     (#) Break input to put the timer output signals in reset state or in a known state.
  26:Drivers/STM32F4xx_HAL_Driver/Src/stm32f4xx_hal_tim_ex.c ****     (#) Supports incremental (quadrature) encoder and hall-sensor circuitry for
  27:Drivers/STM32F4xx_HAL_Driver/Src/stm32f4xx_hal_tim_ex.c ****         positioning purposes
  28:Drivers/STM32F4xx_HAL_Driver/Src/stm32f4xx_hal_tim_ex.c **** 
  29:Drivers/STM32F4xx_HAL_Driver/Src/stm32f4xx_hal_tim_ex.c ****             ##### How to use this driver #####
  30:Drivers/STM32F4xx_HAL_Driver/Src/stm32f4xx_hal_tim_ex.c ****   ==============================================================================
ARM GAS  /tmp/ccilmNhL.s 			page 2


  31:Drivers/STM32F4xx_HAL_Driver/Src/stm32f4xx_hal_tim_ex.c ****     [..]
  32:Drivers/STM32F4xx_HAL_Driver/Src/stm32f4xx_hal_tim_ex.c ****      (#) Initialize the TIM low level resources by implementing the following functions
  33:Drivers/STM32F4xx_HAL_Driver/Src/stm32f4xx_hal_tim_ex.c ****          depending on the selected feature:
  34:Drivers/STM32F4xx_HAL_Driver/Src/stm32f4xx_hal_tim_ex.c ****            (++) Hall Sensor output : HAL_TIMEx_HallSensor_MspInit()
  35:Drivers/STM32F4xx_HAL_Driver/Src/stm32f4xx_hal_tim_ex.c **** 
  36:Drivers/STM32F4xx_HAL_Driver/Src/stm32f4xx_hal_tim_ex.c ****      (#) Initialize the TIM low level resources :
  37:Drivers/STM32F4xx_HAL_Driver/Src/stm32f4xx_hal_tim_ex.c ****         (##) Enable the TIM interface clock using __HAL_RCC_TIMx_CLK_ENABLE();
  38:Drivers/STM32F4xx_HAL_Driver/Src/stm32f4xx_hal_tim_ex.c ****         (##) TIM pins configuration
  39:Drivers/STM32F4xx_HAL_Driver/Src/stm32f4xx_hal_tim_ex.c ****             (+++) Enable the clock for the TIM GPIOs using the following function:
  40:Drivers/STM32F4xx_HAL_Driver/Src/stm32f4xx_hal_tim_ex.c ****               __HAL_RCC_GPIOx_CLK_ENABLE();
  41:Drivers/STM32F4xx_HAL_Driver/Src/stm32f4xx_hal_tim_ex.c ****             (+++) Configure these TIM pins in Alternate function mode using HAL_GPIO_Init();
  42:Drivers/STM32F4xx_HAL_Driver/Src/stm32f4xx_hal_tim_ex.c **** 
  43:Drivers/STM32F4xx_HAL_Driver/Src/stm32f4xx_hal_tim_ex.c ****      (#) The external Clock can be configured, if needed (the default clock is the
  44:Drivers/STM32F4xx_HAL_Driver/Src/stm32f4xx_hal_tim_ex.c ****          internal clock from the APBx), using the following function:
  45:Drivers/STM32F4xx_HAL_Driver/Src/stm32f4xx_hal_tim_ex.c ****          HAL_TIM_ConfigClockSource, the clock configuration should be done before
  46:Drivers/STM32F4xx_HAL_Driver/Src/stm32f4xx_hal_tim_ex.c ****          any start function.
  47:Drivers/STM32F4xx_HAL_Driver/Src/stm32f4xx_hal_tim_ex.c **** 
  48:Drivers/STM32F4xx_HAL_Driver/Src/stm32f4xx_hal_tim_ex.c ****      (#) Configure the TIM in the desired functioning mode using one of the
  49:Drivers/STM32F4xx_HAL_Driver/Src/stm32f4xx_hal_tim_ex.c ****          initialization function of this driver:
  50:Drivers/STM32F4xx_HAL_Driver/Src/stm32f4xx_hal_tim_ex.c ****           (++) HAL_TIMEx_HallSensor_Init() and HAL_TIMEx_ConfigCommutEvent(): to use the
  51:Drivers/STM32F4xx_HAL_Driver/Src/stm32f4xx_hal_tim_ex.c ****                Timer Hall Sensor Interface and the commutation event with the corresponding
  52:Drivers/STM32F4xx_HAL_Driver/Src/stm32f4xx_hal_tim_ex.c ****                Interrupt and DMA request if needed (Note that One Timer is used to interface
  53:Drivers/STM32F4xx_HAL_Driver/Src/stm32f4xx_hal_tim_ex.c ****                with the Hall sensor Interface and another Timer should be used to use
  54:Drivers/STM32F4xx_HAL_Driver/Src/stm32f4xx_hal_tim_ex.c ****                the commutation event).
  55:Drivers/STM32F4xx_HAL_Driver/Src/stm32f4xx_hal_tim_ex.c **** 
  56:Drivers/STM32F4xx_HAL_Driver/Src/stm32f4xx_hal_tim_ex.c ****      (#) Activate the TIM peripheral using one of the start functions:
  57:Drivers/STM32F4xx_HAL_Driver/Src/stm32f4xx_hal_tim_ex.c ****            (++) Complementary Output Compare : HAL_TIMEx_OCN_Start(), HAL_TIMEx_OCN_Start_DMA(), HA
  58:Drivers/STM32F4xx_HAL_Driver/Src/stm32f4xx_hal_tim_ex.c ****            (++) Complementary PWM generation : HAL_TIMEx_PWMN_Start(), HAL_TIMEx_PWMN_Start_DMA(), 
  59:Drivers/STM32F4xx_HAL_Driver/Src/stm32f4xx_hal_tim_ex.c ****            (++) Complementary One-pulse mode output : HAL_TIMEx_OnePulseN_Start(), HAL_TIMEx_OnePul
  60:Drivers/STM32F4xx_HAL_Driver/Src/stm32f4xx_hal_tim_ex.c ****            (++) Hall Sensor output : HAL_TIMEx_HallSensor_Start(), HAL_TIMEx_HallSensor_Start_DMA()
  61:Drivers/STM32F4xx_HAL_Driver/Src/stm32f4xx_hal_tim_ex.c **** 
  62:Drivers/STM32F4xx_HAL_Driver/Src/stm32f4xx_hal_tim_ex.c ****   @endverbatim
  63:Drivers/STM32F4xx_HAL_Driver/Src/stm32f4xx_hal_tim_ex.c ****   ******************************************************************************
  64:Drivers/STM32F4xx_HAL_Driver/Src/stm32f4xx_hal_tim_ex.c ****   * @attention
  65:Drivers/STM32F4xx_HAL_Driver/Src/stm32f4xx_hal_tim_ex.c ****   *
  66:Drivers/STM32F4xx_HAL_Driver/Src/stm32f4xx_hal_tim_ex.c ****   * <h2><center>&copy; Copyright (c) 2016 STMicroelectronics.
  67:Drivers/STM32F4xx_HAL_Driver/Src/stm32f4xx_hal_tim_ex.c ****   * All rights reserved.</center></h2>
  68:Drivers/STM32F4xx_HAL_Driver/Src/stm32f4xx_hal_tim_ex.c ****   *
  69:Drivers/STM32F4xx_HAL_Driver/Src/stm32f4xx_hal_tim_ex.c ****   * This software component is licensed by ST under BSD 3-Clause license,
  70:Drivers/STM32F4xx_HAL_Driver/Src/stm32f4xx_hal_tim_ex.c ****   * the "License"; You may not use this file except in compliance with the
  71:Drivers/STM32F4xx_HAL_Driver/Src/stm32f4xx_hal_tim_ex.c ****   * License. You may obtain a copy of the License at:
  72:Drivers/STM32F4xx_HAL_Driver/Src/stm32f4xx_hal_tim_ex.c ****   *                        opensource.org/licenses/BSD-3-Clause
  73:Drivers/STM32F4xx_HAL_Driver/Src/stm32f4xx_hal_tim_ex.c ****   *
  74:Drivers/STM32F4xx_HAL_Driver/Src/stm32f4xx_hal_tim_ex.c ****   ******************************************************************************
  75:Drivers/STM32F4xx_HAL_Driver/Src/stm32f4xx_hal_tim_ex.c ****   */
  76:Drivers/STM32F4xx_HAL_Driver/Src/stm32f4xx_hal_tim_ex.c **** 
  77:Drivers/STM32F4xx_HAL_Driver/Src/stm32f4xx_hal_tim_ex.c **** /* Includes ------------------------------------------------------------------*/
  78:Drivers/STM32F4xx_HAL_Driver/Src/stm32f4xx_hal_tim_ex.c **** #include "stm32f4xx_hal.h"
  79:Drivers/STM32F4xx_HAL_Driver/Src/stm32f4xx_hal_tim_ex.c **** 
  80:Drivers/STM32F4xx_HAL_Driver/Src/stm32f4xx_hal_tim_ex.c **** /** @addtogroup STM32F4xx_HAL_Driver
  81:Drivers/STM32F4xx_HAL_Driver/Src/stm32f4xx_hal_tim_ex.c ****   * @{
  82:Drivers/STM32F4xx_HAL_Driver/Src/stm32f4xx_hal_tim_ex.c ****   */
  83:Drivers/STM32F4xx_HAL_Driver/Src/stm32f4xx_hal_tim_ex.c **** 
  84:Drivers/STM32F4xx_HAL_Driver/Src/stm32f4xx_hal_tim_ex.c **** /** @defgroup TIMEx TIMEx
  85:Drivers/STM32F4xx_HAL_Driver/Src/stm32f4xx_hal_tim_ex.c ****   * @brief TIM Extended HAL module driver
  86:Drivers/STM32F4xx_HAL_Driver/Src/stm32f4xx_hal_tim_ex.c ****   * @{
  87:Drivers/STM32F4xx_HAL_Driver/Src/stm32f4xx_hal_tim_ex.c ****   */
ARM GAS  /tmp/ccilmNhL.s 			page 3


  88:Drivers/STM32F4xx_HAL_Driver/Src/stm32f4xx_hal_tim_ex.c **** 
  89:Drivers/STM32F4xx_HAL_Driver/Src/stm32f4xx_hal_tim_ex.c **** #ifdef HAL_TIM_MODULE_ENABLED
  90:Drivers/STM32F4xx_HAL_Driver/Src/stm32f4xx_hal_tim_ex.c **** 
  91:Drivers/STM32F4xx_HAL_Driver/Src/stm32f4xx_hal_tim_ex.c **** /* Private typedef -----------------------------------------------------------*/
  92:Drivers/STM32F4xx_HAL_Driver/Src/stm32f4xx_hal_tim_ex.c **** /* Private define ------------------------------------------------------------*/
  93:Drivers/STM32F4xx_HAL_Driver/Src/stm32f4xx_hal_tim_ex.c **** /* Private macro -------------------------------------------------------------*/
  94:Drivers/STM32F4xx_HAL_Driver/Src/stm32f4xx_hal_tim_ex.c **** /* Private variables ---------------------------------------------------------*/
  95:Drivers/STM32F4xx_HAL_Driver/Src/stm32f4xx_hal_tim_ex.c **** /* Private function prototypes -----------------------------------------------*/
  96:Drivers/STM32F4xx_HAL_Driver/Src/stm32f4xx_hal_tim_ex.c **** static void TIM_CCxNChannelCmd(TIM_TypeDef *TIMx, uint32_t Channel, uint32_t ChannelNState);
  97:Drivers/STM32F4xx_HAL_Driver/Src/stm32f4xx_hal_tim_ex.c **** 
  98:Drivers/STM32F4xx_HAL_Driver/Src/stm32f4xx_hal_tim_ex.c **** /* Exported functions --------------------------------------------------------*/
  99:Drivers/STM32F4xx_HAL_Driver/Src/stm32f4xx_hal_tim_ex.c **** /** @defgroup TIMEx_Exported_Functions TIM Extended Exported Functions
 100:Drivers/STM32F4xx_HAL_Driver/Src/stm32f4xx_hal_tim_ex.c ****   * @{
 101:Drivers/STM32F4xx_HAL_Driver/Src/stm32f4xx_hal_tim_ex.c ****   */
 102:Drivers/STM32F4xx_HAL_Driver/Src/stm32f4xx_hal_tim_ex.c **** 
 103:Drivers/STM32F4xx_HAL_Driver/Src/stm32f4xx_hal_tim_ex.c **** /** @defgroup TIMEx_Exported_Functions_Group1 Extended Timer Hall Sensor functions
 104:Drivers/STM32F4xx_HAL_Driver/Src/stm32f4xx_hal_tim_ex.c ****   * @brief    Timer Hall Sensor functions
 105:Drivers/STM32F4xx_HAL_Driver/Src/stm32f4xx_hal_tim_ex.c ****   *
 106:Drivers/STM32F4xx_HAL_Driver/Src/stm32f4xx_hal_tim_ex.c **** @verbatim
 107:Drivers/STM32F4xx_HAL_Driver/Src/stm32f4xx_hal_tim_ex.c ****   ==============================================================================
 108:Drivers/STM32F4xx_HAL_Driver/Src/stm32f4xx_hal_tim_ex.c ****                       ##### Timer Hall Sensor functions #####
 109:Drivers/STM32F4xx_HAL_Driver/Src/stm32f4xx_hal_tim_ex.c ****   ==============================================================================
 110:Drivers/STM32F4xx_HAL_Driver/Src/stm32f4xx_hal_tim_ex.c ****   [..]
 111:Drivers/STM32F4xx_HAL_Driver/Src/stm32f4xx_hal_tim_ex.c ****     This section provides functions allowing to:
 112:Drivers/STM32F4xx_HAL_Driver/Src/stm32f4xx_hal_tim_ex.c ****     (+) Initialize and configure TIM HAL Sensor.
 113:Drivers/STM32F4xx_HAL_Driver/Src/stm32f4xx_hal_tim_ex.c ****     (+) De-initialize TIM HAL Sensor.
 114:Drivers/STM32F4xx_HAL_Driver/Src/stm32f4xx_hal_tim_ex.c ****     (+) Start the Hall Sensor Interface.
 115:Drivers/STM32F4xx_HAL_Driver/Src/stm32f4xx_hal_tim_ex.c ****     (+) Stop the Hall Sensor Interface.
 116:Drivers/STM32F4xx_HAL_Driver/Src/stm32f4xx_hal_tim_ex.c ****     (+) Start the Hall Sensor Interface and enable interrupts.
 117:Drivers/STM32F4xx_HAL_Driver/Src/stm32f4xx_hal_tim_ex.c ****     (+) Stop the Hall Sensor Interface and disable interrupts.
 118:Drivers/STM32F4xx_HAL_Driver/Src/stm32f4xx_hal_tim_ex.c ****     (+) Start the Hall Sensor Interface and enable DMA transfers.
 119:Drivers/STM32F4xx_HAL_Driver/Src/stm32f4xx_hal_tim_ex.c ****     (+) Stop the Hall Sensor Interface and disable DMA transfers.
 120:Drivers/STM32F4xx_HAL_Driver/Src/stm32f4xx_hal_tim_ex.c **** 
 121:Drivers/STM32F4xx_HAL_Driver/Src/stm32f4xx_hal_tim_ex.c **** @endverbatim
 122:Drivers/STM32F4xx_HAL_Driver/Src/stm32f4xx_hal_tim_ex.c ****   * @{
 123:Drivers/STM32F4xx_HAL_Driver/Src/stm32f4xx_hal_tim_ex.c ****   */
 124:Drivers/STM32F4xx_HAL_Driver/Src/stm32f4xx_hal_tim_ex.c **** /**
 125:Drivers/STM32F4xx_HAL_Driver/Src/stm32f4xx_hal_tim_ex.c ****   * @brief  Initializes the TIM Hall Sensor Interface and initialize the associated handle.
 126:Drivers/STM32F4xx_HAL_Driver/Src/stm32f4xx_hal_tim_ex.c ****   * @param  htim TIM Hall Sensor Interface handle
 127:Drivers/STM32F4xx_HAL_Driver/Src/stm32f4xx_hal_tim_ex.c ****   * @param  sConfig TIM Hall Sensor configuration structure
 128:Drivers/STM32F4xx_HAL_Driver/Src/stm32f4xx_hal_tim_ex.c ****   * @retval HAL status
 129:Drivers/STM32F4xx_HAL_Driver/Src/stm32f4xx_hal_tim_ex.c ****   */
 130:Drivers/STM32F4xx_HAL_Driver/Src/stm32f4xx_hal_tim_ex.c **** HAL_StatusTypeDef HAL_TIMEx_HallSensor_Init(TIM_HandleTypeDef *htim, TIM_HallSensor_InitTypeDef *sC
 131:Drivers/STM32F4xx_HAL_Driver/Src/stm32f4xx_hal_tim_ex.c **** {
  29              		.loc 1 131 1
  30              		.cfi_startproc
  31              		@ args = 0, pretend = 0, frame = 40
  32              		@ frame_needed = 1, uses_anonymous_args = 0
  33 0000 80B5     		push	{r7, lr}
  34              	.LCFI0:
  35              		.cfi_def_cfa_offset 8
  36              		.cfi_offset 7, -8
  37              		.cfi_offset 14, -4
  38 0002 8AB0     		sub	sp, sp, #40
  39              	.LCFI1:
  40              		.cfi_def_cfa_offset 48
  41 0004 00AF     		add	r7, sp, #0
ARM GAS  /tmp/ccilmNhL.s 			page 4


  42              	.LCFI2:
  43              		.cfi_def_cfa_register 7
  44 0006 7860     		str	r0, [r7, #4]
  45 0008 3960     		str	r1, [r7]
 132:Drivers/STM32F4xx_HAL_Driver/Src/stm32f4xx_hal_tim_ex.c ****   TIM_OC_InitTypeDef OC_Config;
 133:Drivers/STM32F4xx_HAL_Driver/Src/stm32f4xx_hal_tim_ex.c **** 
 134:Drivers/STM32F4xx_HAL_Driver/Src/stm32f4xx_hal_tim_ex.c ****   /* Check the TIM handle allocation */
 135:Drivers/STM32F4xx_HAL_Driver/Src/stm32f4xx_hal_tim_ex.c ****   if (htim == NULL)
  46              		.loc 1 135 6
  47 000a 7B68     		ldr	r3, [r7, #4]
  48 000c 002B     		cmp	r3, #0
  49 000e 01D1     		bne	.L2
 136:Drivers/STM32F4xx_HAL_Driver/Src/stm32f4xx_hal_tim_ex.c ****   {
 137:Drivers/STM32F4xx_HAL_Driver/Src/stm32f4xx_hal_tim_ex.c ****     return HAL_ERROR;
  50              		.loc 1 137 12
  51 0010 0123     		movs	r3, #1
  52 0012 86E0     		b	.L5
  53              	.L2:
 138:Drivers/STM32F4xx_HAL_Driver/Src/stm32f4xx_hal_tim_ex.c ****   }
 139:Drivers/STM32F4xx_HAL_Driver/Src/stm32f4xx_hal_tim_ex.c **** 
 140:Drivers/STM32F4xx_HAL_Driver/Src/stm32f4xx_hal_tim_ex.c ****   /* Check the parameters */
 141:Drivers/STM32F4xx_HAL_Driver/Src/stm32f4xx_hal_tim_ex.c ****   assert_param(IS_TIM_HALL_SENSOR_INTERFACE_INSTANCE(htim->Instance));
 142:Drivers/STM32F4xx_HAL_Driver/Src/stm32f4xx_hal_tim_ex.c ****   assert_param(IS_TIM_COUNTER_MODE(htim->Init.CounterMode));
 143:Drivers/STM32F4xx_HAL_Driver/Src/stm32f4xx_hal_tim_ex.c ****   assert_param(IS_TIM_CLOCKDIVISION_DIV(htim->Init.ClockDivision));
 144:Drivers/STM32F4xx_HAL_Driver/Src/stm32f4xx_hal_tim_ex.c ****   assert_param(IS_TIM_AUTORELOAD_PRELOAD(htim->Init.AutoReloadPreload));
 145:Drivers/STM32F4xx_HAL_Driver/Src/stm32f4xx_hal_tim_ex.c ****   assert_param(IS_TIM_IC_POLARITY(sConfig->IC1Polarity));
 146:Drivers/STM32F4xx_HAL_Driver/Src/stm32f4xx_hal_tim_ex.c ****   assert_param(IS_TIM_IC_PRESCALER(sConfig->IC1Prescaler));
 147:Drivers/STM32F4xx_HAL_Driver/Src/stm32f4xx_hal_tim_ex.c ****   assert_param(IS_TIM_IC_FILTER(sConfig->IC1Filter));
 148:Drivers/STM32F4xx_HAL_Driver/Src/stm32f4xx_hal_tim_ex.c **** 
 149:Drivers/STM32F4xx_HAL_Driver/Src/stm32f4xx_hal_tim_ex.c ****   if (htim->State == HAL_TIM_STATE_RESET)
  54              		.loc 1 149 11
  55 0014 7B68     		ldr	r3, [r7, #4]
  56 0016 93F83D30 		ldrb	r3, [r3, #61]
  57 001a DBB2     		uxtb	r3, r3
  58              		.loc 1 149 6
  59 001c 002B     		cmp	r3, #0
  60 001e 06D1     		bne	.L4
 150:Drivers/STM32F4xx_HAL_Driver/Src/stm32f4xx_hal_tim_ex.c ****   {
 151:Drivers/STM32F4xx_HAL_Driver/Src/stm32f4xx_hal_tim_ex.c ****     /* Allocate lock resource and initialize it */
 152:Drivers/STM32F4xx_HAL_Driver/Src/stm32f4xx_hal_tim_ex.c ****     htim->Lock = HAL_UNLOCKED;
  61              		.loc 1 152 16
  62 0020 7B68     		ldr	r3, [r7, #4]
  63 0022 0022     		movs	r2, #0
  64 0024 83F83C20 		strb	r2, [r3, #60]
 153:Drivers/STM32F4xx_HAL_Driver/Src/stm32f4xx_hal_tim_ex.c **** 
 154:Drivers/STM32F4xx_HAL_Driver/Src/stm32f4xx_hal_tim_ex.c **** #if (USE_HAL_TIM_REGISTER_CALLBACKS == 1)
 155:Drivers/STM32F4xx_HAL_Driver/Src/stm32f4xx_hal_tim_ex.c ****     /* Reset interrupt callbacks to legacy week callbacks */
 156:Drivers/STM32F4xx_HAL_Driver/Src/stm32f4xx_hal_tim_ex.c ****     TIM_ResetCallback(htim);
 157:Drivers/STM32F4xx_HAL_Driver/Src/stm32f4xx_hal_tim_ex.c **** 
 158:Drivers/STM32F4xx_HAL_Driver/Src/stm32f4xx_hal_tim_ex.c ****     if (htim->HallSensor_MspInitCallback == NULL)
 159:Drivers/STM32F4xx_HAL_Driver/Src/stm32f4xx_hal_tim_ex.c ****     {
 160:Drivers/STM32F4xx_HAL_Driver/Src/stm32f4xx_hal_tim_ex.c ****       htim->HallSensor_MspInitCallback = HAL_TIMEx_HallSensor_MspInit;
 161:Drivers/STM32F4xx_HAL_Driver/Src/stm32f4xx_hal_tim_ex.c ****     }
 162:Drivers/STM32F4xx_HAL_Driver/Src/stm32f4xx_hal_tim_ex.c ****     /* Init the low level hardware : GPIO, CLOCK, NVIC */
 163:Drivers/STM32F4xx_HAL_Driver/Src/stm32f4xx_hal_tim_ex.c ****     htim->HallSensor_MspInitCallback(htim);
 164:Drivers/STM32F4xx_HAL_Driver/Src/stm32f4xx_hal_tim_ex.c **** #else
 165:Drivers/STM32F4xx_HAL_Driver/Src/stm32f4xx_hal_tim_ex.c ****     /* Init the low level hardware : GPIO, CLOCK, NVIC and DMA */
ARM GAS  /tmp/ccilmNhL.s 			page 5


 166:Drivers/STM32F4xx_HAL_Driver/Src/stm32f4xx_hal_tim_ex.c ****     HAL_TIMEx_HallSensor_MspInit(htim);
  65              		.loc 1 166 5
  66 0028 7868     		ldr	r0, [r7, #4]
  67 002a FFF7FEFF 		bl	HAL_TIMEx_HallSensor_MspInit
  68              	.L4:
 167:Drivers/STM32F4xx_HAL_Driver/Src/stm32f4xx_hal_tim_ex.c **** #endif /* USE_HAL_TIM_REGISTER_CALLBACKS */
 168:Drivers/STM32F4xx_HAL_Driver/Src/stm32f4xx_hal_tim_ex.c ****   }
 169:Drivers/STM32F4xx_HAL_Driver/Src/stm32f4xx_hal_tim_ex.c **** 
 170:Drivers/STM32F4xx_HAL_Driver/Src/stm32f4xx_hal_tim_ex.c ****   /* Set the TIM state */
 171:Drivers/STM32F4xx_HAL_Driver/Src/stm32f4xx_hal_tim_ex.c ****   htim->State = HAL_TIM_STATE_BUSY;
  69              		.loc 1 171 15
  70 002e 7B68     		ldr	r3, [r7, #4]
  71 0030 0222     		movs	r2, #2
  72 0032 83F83D20 		strb	r2, [r3, #61]
 172:Drivers/STM32F4xx_HAL_Driver/Src/stm32f4xx_hal_tim_ex.c **** 
 173:Drivers/STM32F4xx_HAL_Driver/Src/stm32f4xx_hal_tim_ex.c ****   /* Configure the Time base in the Encoder Mode */
 174:Drivers/STM32F4xx_HAL_Driver/Src/stm32f4xx_hal_tim_ex.c ****   TIM_Base_SetConfig(htim->Instance, &htim->Init);
  73              		.loc 1 174 3
  74 0036 7B68     		ldr	r3, [r7, #4]
  75 0038 1A68     		ldr	r2, [r3]
  76 003a 7B68     		ldr	r3, [r7, #4]
  77 003c 0433     		adds	r3, r3, #4
  78 003e 1946     		mov	r1, r3
  79 0040 1046     		mov	r0, r2
  80 0042 FFF7FEFF 		bl	TIM_Base_SetConfig
 175:Drivers/STM32F4xx_HAL_Driver/Src/stm32f4xx_hal_tim_ex.c **** 
 176:Drivers/STM32F4xx_HAL_Driver/Src/stm32f4xx_hal_tim_ex.c ****   /* Configure the Channel 1 as Input Channel to interface with the three Outputs of the  Hall sens
 177:Drivers/STM32F4xx_HAL_Driver/Src/stm32f4xx_hal_tim_ex.c ****   TIM_TI1_SetConfig(htim->Instance, sConfig->IC1Polarity, TIM_ICSELECTION_TRC, sConfig->IC1Filter);
  81              		.loc 1 177 3
  82 0046 7B68     		ldr	r3, [r7, #4]
  83 0048 1868     		ldr	r0, [r3]
  84 004a 3B68     		ldr	r3, [r7]
  85 004c 1968     		ldr	r1, [r3]
  86 004e 3B68     		ldr	r3, [r7]
  87 0050 9B68     		ldr	r3, [r3, #8]
  88 0052 0322     		movs	r2, #3
  89 0054 FFF7FEFF 		bl	TIM_TI1_SetConfig
 178:Drivers/STM32F4xx_HAL_Driver/Src/stm32f4xx_hal_tim_ex.c **** 
 179:Drivers/STM32F4xx_HAL_Driver/Src/stm32f4xx_hal_tim_ex.c ****   /* Reset the IC1PSC Bits */
 180:Drivers/STM32F4xx_HAL_Driver/Src/stm32f4xx_hal_tim_ex.c ****   htim->Instance->CCMR1 &= ~TIM_CCMR1_IC1PSC;
  90              		.loc 1 180 7
  91 0058 7B68     		ldr	r3, [r7, #4]
  92 005a 1B68     		ldr	r3, [r3]
  93              		.loc 1 180 25
  94 005c 9A69     		ldr	r2, [r3, #24]
  95              		.loc 1 180 7
  96 005e 7B68     		ldr	r3, [r7, #4]
  97 0060 1B68     		ldr	r3, [r3]
  98              		.loc 1 180 25
  99 0062 22F00C02 		bic	r2, r2, #12
 100 0066 9A61     		str	r2, [r3, #24]
 181:Drivers/STM32F4xx_HAL_Driver/Src/stm32f4xx_hal_tim_ex.c ****   /* Set the IC1PSC value */
 182:Drivers/STM32F4xx_HAL_Driver/Src/stm32f4xx_hal_tim_ex.c ****   htim->Instance->CCMR1 |= sConfig->IC1Prescaler;
 101              		.loc 1 182 7
 102 0068 7B68     		ldr	r3, [r7, #4]
 103 006a 1B68     		ldr	r3, [r3]
 104              		.loc 1 182 25
ARM GAS  /tmp/ccilmNhL.s 			page 6


 105 006c 9969     		ldr	r1, [r3, #24]
 106              		.loc 1 182 35
 107 006e 3B68     		ldr	r3, [r7]
 108 0070 5A68     		ldr	r2, [r3, #4]
 109              		.loc 1 182 7
 110 0072 7B68     		ldr	r3, [r7, #4]
 111 0074 1B68     		ldr	r3, [r3]
 112              		.loc 1 182 25
 113 0076 0A43     		orrs	r2, r2, r1
 114 0078 9A61     		str	r2, [r3, #24]
 183:Drivers/STM32F4xx_HAL_Driver/Src/stm32f4xx_hal_tim_ex.c **** 
 184:Drivers/STM32F4xx_HAL_Driver/Src/stm32f4xx_hal_tim_ex.c ****   /* Enable the Hall sensor interface (XOR function of the three inputs) */
 185:Drivers/STM32F4xx_HAL_Driver/Src/stm32f4xx_hal_tim_ex.c ****   htim->Instance->CR2 |= TIM_CR2_TI1S;
 115              		.loc 1 185 7
 116 007a 7B68     		ldr	r3, [r7, #4]
 117 007c 1B68     		ldr	r3, [r3]
 118              		.loc 1 185 23
 119 007e 5A68     		ldr	r2, [r3, #4]
 120              		.loc 1 185 7
 121 0080 7B68     		ldr	r3, [r7, #4]
 122 0082 1B68     		ldr	r3, [r3]
 123              		.loc 1 185 23
 124 0084 42F08002 		orr	r2, r2, #128
 125 0088 5A60     		str	r2, [r3, #4]
 186:Drivers/STM32F4xx_HAL_Driver/Src/stm32f4xx_hal_tim_ex.c **** 
 187:Drivers/STM32F4xx_HAL_Driver/Src/stm32f4xx_hal_tim_ex.c ****   /* Select the TIM_TS_TI1F_ED signal as Input trigger for the TIM */
 188:Drivers/STM32F4xx_HAL_Driver/Src/stm32f4xx_hal_tim_ex.c ****   htim->Instance->SMCR &= ~TIM_SMCR_TS;
 126              		.loc 1 188 7
 127 008a 7B68     		ldr	r3, [r7, #4]
 128 008c 1B68     		ldr	r3, [r3]
 129              		.loc 1 188 24
 130 008e 9A68     		ldr	r2, [r3, #8]
 131              		.loc 1 188 7
 132 0090 7B68     		ldr	r3, [r7, #4]
 133 0092 1B68     		ldr	r3, [r3]
 134              		.loc 1 188 24
 135 0094 22F07002 		bic	r2, r2, #112
 136 0098 9A60     		str	r2, [r3, #8]
 189:Drivers/STM32F4xx_HAL_Driver/Src/stm32f4xx_hal_tim_ex.c ****   htim->Instance->SMCR |= TIM_TS_TI1F_ED;
 137              		.loc 1 189 7
 138 009a 7B68     		ldr	r3, [r7, #4]
 139 009c 1B68     		ldr	r3, [r3]
 140              		.loc 1 189 24
 141 009e 9A68     		ldr	r2, [r3, #8]
 142              		.loc 1 189 7
 143 00a0 7B68     		ldr	r3, [r7, #4]
 144 00a2 1B68     		ldr	r3, [r3]
 145              		.loc 1 189 24
 146 00a4 42F04002 		orr	r2, r2, #64
 147 00a8 9A60     		str	r2, [r3, #8]
 190:Drivers/STM32F4xx_HAL_Driver/Src/stm32f4xx_hal_tim_ex.c **** 
 191:Drivers/STM32F4xx_HAL_Driver/Src/stm32f4xx_hal_tim_ex.c ****   /* Use the TIM_TS_TI1F_ED signal to reset the TIM counter each edge detection */
 192:Drivers/STM32F4xx_HAL_Driver/Src/stm32f4xx_hal_tim_ex.c ****   htim->Instance->SMCR &= ~TIM_SMCR_SMS;
 148              		.loc 1 192 7
 149 00aa 7B68     		ldr	r3, [r7, #4]
 150 00ac 1B68     		ldr	r3, [r3]
 151              		.loc 1 192 24
ARM GAS  /tmp/ccilmNhL.s 			page 7


 152 00ae 9A68     		ldr	r2, [r3, #8]
 153              		.loc 1 192 7
 154 00b0 7B68     		ldr	r3, [r7, #4]
 155 00b2 1B68     		ldr	r3, [r3]
 156              		.loc 1 192 24
 157 00b4 22F00702 		bic	r2, r2, #7
 158 00b8 9A60     		str	r2, [r3, #8]
 193:Drivers/STM32F4xx_HAL_Driver/Src/stm32f4xx_hal_tim_ex.c ****   htim->Instance->SMCR |= TIM_SLAVEMODE_RESET;
 159              		.loc 1 193 7
 160 00ba 7B68     		ldr	r3, [r7, #4]
 161 00bc 1B68     		ldr	r3, [r3]
 162              		.loc 1 193 24
 163 00be 9A68     		ldr	r2, [r3, #8]
 164              		.loc 1 193 7
 165 00c0 7B68     		ldr	r3, [r7, #4]
 166 00c2 1B68     		ldr	r3, [r3]
 167              		.loc 1 193 24
 168 00c4 42F00402 		orr	r2, r2, #4
 169 00c8 9A60     		str	r2, [r3, #8]
 194:Drivers/STM32F4xx_HAL_Driver/Src/stm32f4xx_hal_tim_ex.c **** 
 195:Drivers/STM32F4xx_HAL_Driver/Src/stm32f4xx_hal_tim_ex.c ****   /* Program channel 2 in PWM 2 mode with the desired Commutation_Delay*/
 196:Drivers/STM32F4xx_HAL_Driver/Src/stm32f4xx_hal_tim_ex.c ****   OC_Config.OCFastMode = TIM_OCFAST_DISABLE;
 170              		.loc 1 196 24
 171 00ca 0023     		movs	r3, #0
 172 00cc FB61     		str	r3, [r7, #28]
 197:Drivers/STM32F4xx_HAL_Driver/Src/stm32f4xx_hal_tim_ex.c ****   OC_Config.OCIdleState = TIM_OCIDLESTATE_RESET;
 173              		.loc 1 197 25
 174 00ce 0023     		movs	r3, #0
 175 00d0 3B62     		str	r3, [r7, #32]
 198:Drivers/STM32F4xx_HAL_Driver/Src/stm32f4xx_hal_tim_ex.c ****   OC_Config.OCMode = TIM_OCMODE_PWM2;
 176              		.loc 1 198 20
 177 00d2 7023     		movs	r3, #112
 178 00d4 FB60     		str	r3, [r7, #12]
 199:Drivers/STM32F4xx_HAL_Driver/Src/stm32f4xx_hal_tim_ex.c ****   OC_Config.OCNIdleState = TIM_OCNIDLESTATE_RESET;
 179              		.loc 1 199 26
 180 00d6 0023     		movs	r3, #0
 181 00d8 7B62     		str	r3, [r7, #36]
 200:Drivers/STM32F4xx_HAL_Driver/Src/stm32f4xx_hal_tim_ex.c ****   OC_Config.OCNPolarity = TIM_OCNPOLARITY_HIGH;
 182              		.loc 1 200 25
 183 00da 0023     		movs	r3, #0
 184 00dc BB61     		str	r3, [r7, #24]
 201:Drivers/STM32F4xx_HAL_Driver/Src/stm32f4xx_hal_tim_ex.c ****   OC_Config.OCPolarity = TIM_OCPOLARITY_HIGH;
 185              		.loc 1 201 24
 186 00de 0023     		movs	r3, #0
 187 00e0 7B61     		str	r3, [r7, #20]
 202:Drivers/STM32F4xx_HAL_Driver/Src/stm32f4xx_hal_tim_ex.c ****   OC_Config.Pulse = sConfig->Commutation_Delay;
 188              		.loc 1 202 28
 189 00e2 3B68     		ldr	r3, [r7]
 190 00e4 DB68     		ldr	r3, [r3, #12]
 191              		.loc 1 202 19
 192 00e6 3B61     		str	r3, [r7, #16]
 203:Drivers/STM32F4xx_HAL_Driver/Src/stm32f4xx_hal_tim_ex.c **** 
 204:Drivers/STM32F4xx_HAL_Driver/Src/stm32f4xx_hal_tim_ex.c ****   TIM_OC2_SetConfig(htim->Instance, &OC_Config);
 193              		.loc 1 204 3
 194 00e8 7B68     		ldr	r3, [r7, #4]
 195 00ea 1B68     		ldr	r3, [r3]
 196 00ec 07F10C02 		add	r2, r7, #12
ARM GAS  /tmp/ccilmNhL.s 			page 8


 197 00f0 1146     		mov	r1, r2
 198 00f2 1846     		mov	r0, r3
 199 00f4 FFF7FEFF 		bl	TIM_OC2_SetConfig
 205:Drivers/STM32F4xx_HAL_Driver/Src/stm32f4xx_hal_tim_ex.c **** 
 206:Drivers/STM32F4xx_HAL_Driver/Src/stm32f4xx_hal_tim_ex.c ****   /* Select OC2REF as trigger output on TRGO: write the MMS bits in the TIMx_CR2
 207:Drivers/STM32F4xx_HAL_Driver/Src/stm32f4xx_hal_tim_ex.c ****     register to 101 */
 208:Drivers/STM32F4xx_HAL_Driver/Src/stm32f4xx_hal_tim_ex.c ****   htim->Instance->CR2 &= ~TIM_CR2_MMS;
 200              		.loc 1 208 7
 201 00f8 7B68     		ldr	r3, [r7, #4]
 202 00fa 1B68     		ldr	r3, [r3]
 203              		.loc 1 208 23
 204 00fc 5A68     		ldr	r2, [r3, #4]
 205              		.loc 1 208 7
 206 00fe 7B68     		ldr	r3, [r7, #4]
 207 0100 1B68     		ldr	r3, [r3]
 208              		.loc 1 208 23
 209 0102 22F07002 		bic	r2, r2, #112
 210 0106 5A60     		str	r2, [r3, #4]
 209:Drivers/STM32F4xx_HAL_Driver/Src/stm32f4xx_hal_tim_ex.c ****   htim->Instance->CR2 |= TIM_TRGO_OC2REF;
 211              		.loc 1 209 7
 212 0108 7B68     		ldr	r3, [r7, #4]
 213 010a 1B68     		ldr	r3, [r3]
 214              		.loc 1 209 23
 215 010c 5A68     		ldr	r2, [r3, #4]
 216              		.loc 1 209 7
 217 010e 7B68     		ldr	r3, [r7, #4]
 218 0110 1B68     		ldr	r3, [r3]
 219              		.loc 1 209 23
 220 0112 42F05002 		orr	r2, r2, #80
 221 0116 5A60     		str	r2, [r3, #4]
 210:Drivers/STM32F4xx_HAL_Driver/Src/stm32f4xx_hal_tim_ex.c **** 
 211:Drivers/STM32F4xx_HAL_Driver/Src/stm32f4xx_hal_tim_ex.c ****   /* Initialize the TIM state*/
 212:Drivers/STM32F4xx_HAL_Driver/Src/stm32f4xx_hal_tim_ex.c ****   htim->State = HAL_TIM_STATE_READY;
 222              		.loc 1 212 15
 223 0118 7B68     		ldr	r3, [r7, #4]
 224 011a 0122     		movs	r2, #1
 225 011c 83F83D20 		strb	r2, [r3, #61]
 213:Drivers/STM32F4xx_HAL_Driver/Src/stm32f4xx_hal_tim_ex.c **** 
 214:Drivers/STM32F4xx_HAL_Driver/Src/stm32f4xx_hal_tim_ex.c ****   return HAL_OK;
 226              		.loc 1 214 10
 227 0120 0023     		movs	r3, #0
 228              	.L5:
 215:Drivers/STM32F4xx_HAL_Driver/Src/stm32f4xx_hal_tim_ex.c **** }
 229              		.loc 1 215 1 discriminator 1
 230 0122 1846     		mov	r0, r3
 231 0124 2837     		adds	r7, r7, #40
 232              	.LCFI3:
 233              		.cfi_def_cfa_offset 8
 234 0126 BD46     		mov	sp, r7
 235              	.LCFI4:
 236              		.cfi_def_cfa_register 13
 237              		@ sp needed
 238 0128 80BD     		pop	{r7, pc}
 239              		.cfi_endproc
 240              	.LFE130:
 242              		.section	.text.HAL_TIMEx_HallSensor_DeInit,"ax",%progbits
 243              		.align	1
ARM GAS  /tmp/ccilmNhL.s 			page 9


 244              		.global	HAL_TIMEx_HallSensor_DeInit
 245              		.syntax unified
 246              		.thumb
 247              		.thumb_func
 248              		.fpu fpv4-sp-d16
 250              	HAL_TIMEx_HallSensor_DeInit:
 251              	.LFB131:
 216:Drivers/STM32F4xx_HAL_Driver/Src/stm32f4xx_hal_tim_ex.c **** 
 217:Drivers/STM32F4xx_HAL_Driver/Src/stm32f4xx_hal_tim_ex.c **** /**
 218:Drivers/STM32F4xx_HAL_Driver/Src/stm32f4xx_hal_tim_ex.c ****   * @brief  DeInitializes the TIM Hall Sensor interface
 219:Drivers/STM32F4xx_HAL_Driver/Src/stm32f4xx_hal_tim_ex.c ****   * @param  htim TIM Hall Sensor Interface handle
 220:Drivers/STM32F4xx_HAL_Driver/Src/stm32f4xx_hal_tim_ex.c ****   * @retval HAL status
 221:Drivers/STM32F4xx_HAL_Driver/Src/stm32f4xx_hal_tim_ex.c ****   */
 222:Drivers/STM32F4xx_HAL_Driver/Src/stm32f4xx_hal_tim_ex.c **** HAL_StatusTypeDef HAL_TIMEx_HallSensor_DeInit(TIM_HandleTypeDef *htim)
 223:Drivers/STM32F4xx_HAL_Driver/Src/stm32f4xx_hal_tim_ex.c **** {
 252              		.loc 1 223 1
 253              		.cfi_startproc
 254              		@ args = 0, pretend = 0, frame = 8
 255              		@ frame_needed = 1, uses_anonymous_args = 0
 256 0000 80B5     		push	{r7, lr}
 257              	.LCFI5:
 258              		.cfi_def_cfa_offset 8
 259              		.cfi_offset 7, -8
 260              		.cfi_offset 14, -4
 261 0002 82B0     		sub	sp, sp, #8
 262              	.LCFI6:
 263              		.cfi_def_cfa_offset 16
 264 0004 00AF     		add	r7, sp, #0
 265              	.LCFI7:
 266              		.cfi_def_cfa_register 7
 267 0006 7860     		str	r0, [r7, #4]
 224:Drivers/STM32F4xx_HAL_Driver/Src/stm32f4xx_hal_tim_ex.c ****   /* Check the parameters */
 225:Drivers/STM32F4xx_HAL_Driver/Src/stm32f4xx_hal_tim_ex.c ****   assert_param(IS_TIM_INSTANCE(htim->Instance));
 226:Drivers/STM32F4xx_HAL_Driver/Src/stm32f4xx_hal_tim_ex.c **** 
 227:Drivers/STM32F4xx_HAL_Driver/Src/stm32f4xx_hal_tim_ex.c ****   htim->State = HAL_TIM_STATE_BUSY;
 268              		.loc 1 227 15
 269 0008 7B68     		ldr	r3, [r7, #4]
 270 000a 0222     		movs	r2, #2
 271 000c 83F83D20 		strb	r2, [r3, #61]
 228:Drivers/STM32F4xx_HAL_Driver/Src/stm32f4xx_hal_tim_ex.c **** 
 229:Drivers/STM32F4xx_HAL_Driver/Src/stm32f4xx_hal_tim_ex.c ****   /* Disable the TIM Peripheral Clock */
 230:Drivers/STM32F4xx_HAL_Driver/Src/stm32f4xx_hal_tim_ex.c ****   __HAL_TIM_DISABLE(htim);
 272              		.loc 1 230 3
 273 0010 7B68     		ldr	r3, [r7, #4]
 274 0012 1B68     		ldr	r3, [r3]
 275 0014 1A6A     		ldr	r2, [r3, #32]
 276 0016 41F21113 		movw	r3, #4369
 277 001a 1340     		ands	r3, r3, r2
 278 001c 002B     		cmp	r3, #0
 279 001e 0FD1     		bne	.L7
 280              		.loc 1 230 3 is_stmt 0 discriminator 1
 281 0020 7B68     		ldr	r3, [r7, #4]
 282 0022 1B68     		ldr	r3, [r3]
 283 0024 1A6A     		ldr	r2, [r3, #32]
 284 0026 40F24443 		movw	r3, #1092
 285 002a 1340     		ands	r3, r3, r2
 286 002c 002B     		cmp	r3, #0
ARM GAS  /tmp/ccilmNhL.s 			page 10


 287 002e 07D1     		bne	.L7
 288              		.loc 1 230 3 discriminator 2
 289 0030 7B68     		ldr	r3, [r7, #4]
 290 0032 1B68     		ldr	r3, [r3]
 291 0034 1A68     		ldr	r2, [r3]
 292 0036 7B68     		ldr	r3, [r7, #4]
 293 0038 1B68     		ldr	r3, [r3]
 294 003a 22F00102 		bic	r2, r2, #1
 295 003e 1A60     		str	r2, [r3]
 296              	.L7:
 231:Drivers/STM32F4xx_HAL_Driver/Src/stm32f4xx_hal_tim_ex.c **** 
 232:Drivers/STM32F4xx_HAL_Driver/Src/stm32f4xx_hal_tim_ex.c **** #if (USE_HAL_TIM_REGISTER_CALLBACKS == 1)
 233:Drivers/STM32F4xx_HAL_Driver/Src/stm32f4xx_hal_tim_ex.c ****   if (htim->HallSensor_MspDeInitCallback == NULL)
 234:Drivers/STM32F4xx_HAL_Driver/Src/stm32f4xx_hal_tim_ex.c ****   {
 235:Drivers/STM32F4xx_HAL_Driver/Src/stm32f4xx_hal_tim_ex.c ****     htim->HallSensor_MspDeInitCallback = HAL_TIMEx_HallSensor_MspDeInit;
 236:Drivers/STM32F4xx_HAL_Driver/Src/stm32f4xx_hal_tim_ex.c ****   }
 237:Drivers/STM32F4xx_HAL_Driver/Src/stm32f4xx_hal_tim_ex.c ****   /* DeInit the low level hardware */
 238:Drivers/STM32F4xx_HAL_Driver/Src/stm32f4xx_hal_tim_ex.c ****   htim->HallSensor_MspDeInitCallback(htim);
 239:Drivers/STM32F4xx_HAL_Driver/Src/stm32f4xx_hal_tim_ex.c **** #else
 240:Drivers/STM32F4xx_HAL_Driver/Src/stm32f4xx_hal_tim_ex.c ****   /* DeInit the low level hardware: GPIO, CLOCK, NVIC */
 241:Drivers/STM32F4xx_HAL_Driver/Src/stm32f4xx_hal_tim_ex.c ****   HAL_TIMEx_HallSensor_MspDeInit(htim);
 297              		.loc 1 241 3 is_stmt 1
 298 0040 7868     		ldr	r0, [r7, #4]
 299 0042 FFF7FEFF 		bl	HAL_TIMEx_HallSensor_MspDeInit
 242:Drivers/STM32F4xx_HAL_Driver/Src/stm32f4xx_hal_tim_ex.c **** #endif /* USE_HAL_TIM_REGISTER_CALLBACKS */
 243:Drivers/STM32F4xx_HAL_Driver/Src/stm32f4xx_hal_tim_ex.c **** 
 244:Drivers/STM32F4xx_HAL_Driver/Src/stm32f4xx_hal_tim_ex.c ****   /* Change TIM state */
 245:Drivers/STM32F4xx_HAL_Driver/Src/stm32f4xx_hal_tim_ex.c ****   htim->State = HAL_TIM_STATE_RESET;
 300              		.loc 1 245 15
 301 0046 7B68     		ldr	r3, [r7, #4]
 302 0048 0022     		movs	r2, #0
 303 004a 83F83D20 		strb	r2, [r3, #61]
 246:Drivers/STM32F4xx_HAL_Driver/Src/stm32f4xx_hal_tim_ex.c **** 
 247:Drivers/STM32F4xx_HAL_Driver/Src/stm32f4xx_hal_tim_ex.c ****   /* Release Lock */
 248:Drivers/STM32F4xx_HAL_Driver/Src/stm32f4xx_hal_tim_ex.c ****   __HAL_UNLOCK(htim);
 304              		.loc 1 248 3
 305 004e 7B68     		ldr	r3, [r7, #4]
 306 0050 0022     		movs	r2, #0
 307 0052 83F83C20 		strb	r2, [r3, #60]
 249:Drivers/STM32F4xx_HAL_Driver/Src/stm32f4xx_hal_tim_ex.c **** 
 250:Drivers/STM32F4xx_HAL_Driver/Src/stm32f4xx_hal_tim_ex.c ****   return HAL_OK;
 308              		.loc 1 250 10
 309 0056 0023     		movs	r3, #0
 251:Drivers/STM32F4xx_HAL_Driver/Src/stm32f4xx_hal_tim_ex.c **** }
 310              		.loc 1 251 1
 311 0058 1846     		mov	r0, r3
 312 005a 0837     		adds	r7, r7, #8
 313              	.LCFI8:
 314              		.cfi_def_cfa_offset 8
 315 005c BD46     		mov	sp, r7
 316              	.LCFI9:
 317              		.cfi_def_cfa_register 13
 318              		@ sp needed
 319 005e 80BD     		pop	{r7, pc}
 320              		.cfi_endproc
 321              	.LFE131:
 323              		.section	.text.HAL_TIMEx_HallSensor_MspInit,"ax",%progbits
ARM GAS  /tmp/ccilmNhL.s 			page 11


 324              		.align	1
 325              		.weak	HAL_TIMEx_HallSensor_MspInit
 326              		.syntax unified
 327              		.thumb
 328              		.thumb_func
 329              		.fpu fpv4-sp-d16
 331              	HAL_TIMEx_HallSensor_MspInit:
 332              	.LFB132:
 252:Drivers/STM32F4xx_HAL_Driver/Src/stm32f4xx_hal_tim_ex.c **** 
 253:Drivers/STM32F4xx_HAL_Driver/Src/stm32f4xx_hal_tim_ex.c **** /**
 254:Drivers/STM32F4xx_HAL_Driver/Src/stm32f4xx_hal_tim_ex.c ****   * @brief  Initializes the TIM Hall Sensor MSP.
 255:Drivers/STM32F4xx_HAL_Driver/Src/stm32f4xx_hal_tim_ex.c ****   * @param  htim TIM Hall Sensor Interface handle
 256:Drivers/STM32F4xx_HAL_Driver/Src/stm32f4xx_hal_tim_ex.c ****   * @retval None
 257:Drivers/STM32F4xx_HAL_Driver/Src/stm32f4xx_hal_tim_ex.c ****   */
 258:Drivers/STM32F4xx_HAL_Driver/Src/stm32f4xx_hal_tim_ex.c **** __weak void HAL_TIMEx_HallSensor_MspInit(TIM_HandleTypeDef *htim)
 259:Drivers/STM32F4xx_HAL_Driver/Src/stm32f4xx_hal_tim_ex.c **** {
 333              		.loc 1 259 1
 334              		.cfi_startproc
 335              		@ args = 0, pretend = 0, frame = 8
 336              		@ frame_needed = 1, uses_anonymous_args = 0
 337              		@ link register save eliminated.
 338 0000 80B4     		push	{r7}
 339              	.LCFI10:
 340              		.cfi_def_cfa_offset 4
 341              		.cfi_offset 7, -4
 342 0002 83B0     		sub	sp, sp, #12
 343              	.LCFI11:
 344              		.cfi_def_cfa_offset 16
 345 0004 00AF     		add	r7, sp, #0
 346              	.LCFI12:
 347              		.cfi_def_cfa_register 7
 348 0006 7860     		str	r0, [r7, #4]
 260:Drivers/STM32F4xx_HAL_Driver/Src/stm32f4xx_hal_tim_ex.c ****   /* Prevent unused argument(s) compilation warning */
 261:Drivers/STM32F4xx_HAL_Driver/Src/stm32f4xx_hal_tim_ex.c ****   UNUSED(htim);
 262:Drivers/STM32F4xx_HAL_Driver/Src/stm32f4xx_hal_tim_ex.c **** 
 263:Drivers/STM32F4xx_HAL_Driver/Src/stm32f4xx_hal_tim_ex.c ****   /* NOTE : This function should not be modified, when the callback is needed,
 264:Drivers/STM32F4xx_HAL_Driver/Src/stm32f4xx_hal_tim_ex.c ****             the HAL_TIMEx_HallSensor_MspInit could be implemented in the user file
 265:Drivers/STM32F4xx_HAL_Driver/Src/stm32f4xx_hal_tim_ex.c ****    */
 266:Drivers/STM32F4xx_HAL_Driver/Src/stm32f4xx_hal_tim_ex.c **** }
 349              		.loc 1 266 1
 350 0008 00BF     		nop
 351 000a 0C37     		adds	r7, r7, #12
 352              	.LCFI13:
 353              		.cfi_def_cfa_offset 4
 354 000c BD46     		mov	sp, r7
 355              	.LCFI14:
 356              		.cfi_def_cfa_register 13
 357              		@ sp needed
 358 000e 5DF8047B 		ldr	r7, [sp], #4
 359              	.LCFI15:
 360              		.cfi_restore 7
 361              		.cfi_def_cfa_offset 0
 362 0012 7047     		bx	lr
 363              		.cfi_endproc
 364              	.LFE132:
 366              		.section	.text.HAL_TIMEx_HallSensor_MspDeInit,"ax",%progbits
 367              		.align	1
ARM GAS  /tmp/ccilmNhL.s 			page 12


 368              		.weak	HAL_TIMEx_HallSensor_MspDeInit
 369              		.syntax unified
 370              		.thumb
 371              		.thumb_func
 372              		.fpu fpv4-sp-d16
 374              	HAL_TIMEx_HallSensor_MspDeInit:
 375              	.LFB133:
 267:Drivers/STM32F4xx_HAL_Driver/Src/stm32f4xx_hal_tim_ex.c **** 
 268:Drivers/STM32F4xx_HAL_Driver/Src/stm32f4xx_hal_tim_ex.c **** /**
 269:Drivers/STM32F4xx_HAL_Driver/Src/stm32f4xx_hal_tim_ex.c ****   * @brief  DeInitializes TIM Hall Sensor MSP.
 270:Drivers/STM32F4xx_HAL_Driver/Src/stm32f4xx_hal_tim_ex.c ****   * @param  htim TIM Hall Sensor Interface handle
 271:Drivers/STM32F4xx_HAL_Driver/Src/stm32f4xx_hal_tim_ex.c ****   * @retval None
 272:Drivers/STM32F4xx_HAL_Driver/Src/stm32f4xx_hal_tim_ex.c ****   */
 273:Drivers/STM32F4xx_HAL_Driver/Src/stm32f4xx_hal_tim_ex.c **** __weak void HAL_TIMEx_HallSensor_MspDeInit(TIM_HandleTypeDef *htim)
 274:Drivers/STM32F4xx_HAL_Driver/Src/stm32f4xx_hal_tim_ex.c **** {
 376              		.loc 1 274 1
 377              		.cfi_startproc
 378              		@ args = 0, pretend = 0, frame = 8
 379              		@ frame_needed = 1, uses_anonymous_args = 0
 380              		@ link register save eliminated.
 381 0000 80B4     		push	{r7}
 382              	.LCFI16:
 383              		.cfi_def_cfa_offset 4
 384              		.cfi_offset 7, -4
 385 0002 83B0     		sub	sp, sp, #12
 386              	.LCFI17:
 387              		.cfi_def_cfa_offset 16
 388 0004 00AF     		add	r7, sp, #0
 389              	.LCFI18:
 390              		.cfi_def_cfa_register 7
 391 0006 7860     		str	r0, [r7, #4]
 275:Drivers/STM32F4xx_HAL_Driver/Src/stm32f4xx_hal_tim_ex.c ****   /* Prevent unused argument(s) compilation warning */
 276:Drivers/STM32F4xx_HAL_Driver/Src/stm32f4xx_hal_tim_ex.c ****   UNUSED(htim);
 277:Drivers/STM32F4xx_HAL_Driver/Src/stm32f4xx_hal_tim_ex.c **** 
 278:Drivers/STM32F4xx_HAL_Driver/Src/stm32f4xx_hal_tim_ex.c ****   /* NOTE : This function should not be modified, when the callback is needed,
 279:Drivers/STM32F4xx_HAL_Driver/Src/stm32f4xx_hal_tim_ex.c ****             the HAL_TIMEx_HallSensor_MspDeInit could be implemented in the user file
 280:Drivers/STM32F4xx_HAL_Driver/Src/stm32f4xx_hal_tim_ex.c ****    */
 281:Drivers/STM32F4xx_HAL_Driver/Src/stm32f4xx_hal_tim_ex.c **** }
 392              		.loc 1 281 1
 393 0008 00BF     		nop
 394 000a 0C37     		adds	r7, r7, #12
 395              	.LCFI19:
 396              		.cfi_def_cfa_offset 4
 397 000c BD46     		mov	sp, r7
 398              	.LCFI20:
 399              		.cfi_def_cfa_register 13
 400              		@ sp needed
 401 000e 5DF8047B 		ldr	r7, [sp], #4
 402              	.LCFI21:
 403              		.cfi_restore 7
 404              		.cfi_def_cfa_offset 0
 405 0012 7047     		bx	lr
 406              		.cfi_endproc
 407              	.LFE133:
 409              		.section	.text.HAL_TIMEx_HallSensor_Start,"ax",%progbits
 410              		.align	1
 411              		.global	HAL_TIMEx_HallSensor_Start
ARM GAS  /tmp/ccilmNhL.s 			page 13


 412              		.syntax unified
 413              		.thumb
 414              		.thumb_func
 415              		.fpu fpv4-sp-d16
 417              	HAL_TIMEx_HallSensor_Start:
 418              	.LFB134:
 282:Drivers/STM32F4xx_HAL_Driver/Src/stm32f4xx_hal_tim_ex.c **** 
 283:Drivers/STM32F4xx_HAL_Driver/Src/stm32f4xx_hal_tim_ex.c **** /**
 284:Drivers/STM32F4xx_HAL_Driver/Src/stm32f4xx_hal_tim_ex.c ****   * @brief  Starts the TIM Hall Sensor Interface.
 285:Drivers/STM32F4xx_HAL_Driver/Src/stm32f4xx_hal_tim_ex.c ****   * @param  htim TIM Hall Sensor Interface handle
 286:Drivers/STM32F4xx_HAL_Driver/Src/stm32f4xx_hal_tim_ex.c ****   * @retval HAL status
 287:Drivers/STM32F4xx_HAL_Driver/Src/stm32f4xx_hal_tim_ex.c ****   */
 288:Drivers/STM32F4xx_HAL_Driver/Src/stm32f4xx_hal_tim_ex.c **** HAL_StatusTypeDef HAL_TIMEx_HallSensor_Start(TIM_HandleTypeDef *htim)
 289:Drivers/STM32F4xx_HAL_Driver/Src/stm32f4xx_hal_tim_ex.c **** {
 419              		.loc 1 289 1
 420              		.cfi_startproc
 421              		@ args = 0, pretend = 0, frame = 16
 422              		@ frame_needed = 1, uses_anonymous_args = 0
 423 0000 80B5     		push	{r7, lr}
 424              	.LCFI22:
 425              		.cfi_def_cfa_offset 8
 426              		.cfi_offset 7, -8
 427              		.cfi_offset 14, -4
 428 0002 84B0     		sub	sp, sp, #16
 429              	.LCFI23:
 430              		.cfi_def_cfa_offset 24
 431 0004 00AF     		add	r7, sp, #0
 432              	.LCFI24:
 433              		.cfi_def_cfa_register 7
 434 0006 7860     		str	r0, [r7, #4]
 290:Drivers/STM32F4xx_HAL_Driver/Src/stm32f4xx_hal_tim_ex.c ****   uint32_t tmpsmcr;
 291:Drivers/STM32F4xx_HAL_Driver/Src/stm32f4xx_hal_tim_ex.c **** 
 292:Drivers/STM32F4xx_HAL_Driver/Src/stm32f4xx_hal_tim_ex.c ****   /* Check the parameters */
 293:Drivers/STM32F4xx_HAL_Driver/Src/stm32f4xx_hal_tim_ex.c ****   assert_param(IS_TIM_HALL_SENSOR_INTERFACE_INSTANCE(htim->Instance));
 294:Drivers/STM32F4xx_HAL_Driver/Src/stm32f4xx_hal_tim_ex.c **** 
 295:Drivers/STM32F4xx_HAL_Driver/Src/stm32f4xx_hal_tim_ex.c ****   /* Enable the Input Capture channel 1
 296:Drivers/STM32F4xx_HAL_Driver/Src/stm32f4xx_hal_tim_ex.c ****     (in the Hall Sensor Interface the three possible channels that can be used are TIM_CHANNEL_1, T
 297:Drivers/STM32F4xx_HAL_Driver/Src/stm32f4xx_hal_tim_ex.c ****   TIM_CCxChannelCmd(htim->Instance, TIM_CHANNEL_1, TIM_CCx_ENABLE);
 435              		.loc 1 297 3
 436 0008 7B68     		ldr	r3, [r7, #4]
 437 000a 1B68     		ldr	r3, [r3]
 438 000c 0122     		movs	r2, #1
 439 000e 0021     		movs	r1, #0
 440 0010 1846     		mov	r0, r3
 441 0012 FFF7FEFF 		bl	TIM_CCxChannelCmd
 298:Drivers/STM32F4xx_HAL_Driver/Src/stm32f4xx_hal_tim_ex.c **** 
 299:Drivers/STM32F4xx_HAL_Driver/Src/stm32f4xx_hal_tim_ex.c ****   /* Enable the Peripheral, except in trigger mode where enable is automatically done with trigger 
 300:Drivers/STM32F4xx_HAL_Driver/Src/stm32f4xx_hal_tim_ex.c ****   tmpsmcr = htim->Instance->SMCR & TIM_SMCR_SMS;
 442              		.loc 1 300 17
 443 0016 7B68     		ldr	r3, [r7, #4]
 444 0018 1B68     		ldr	r3, [r3]
 445              		.loc 1 300 27
 446 001a 9B68     		ldr	r3, [r3, #8]
 447              		.loc 1 300 11
 448 001c 03F00703 		and	r3, r3, #7
 449 0020 FB60     		str	r3, [r7, #12]
 301:Drivers/STM32F4xx_HAL_Driver/Src/stm32f4xx_hal_tim_ex.c ****   if (!IS_TIM_SLAVEMODE_TRIGGER_ENABLED(tmpsmcr))
ARM GAS  /tmp/ccilmNhL.s 			page 14


 450              		.loc 1 301 6
 451 0022 FB68     		ldr	r3, [r7, #12]
 452 0024 062B     		cmp	r3, #6
 453 0026 07D0     		beq	.L12
 302:Drivers/STM32F4xx_HAL_Driver/Src/stm32f4xx_hal_tim_ex.c ****   {
 303:Drivers/STM32F4xx_HAL_Driver/Src/stm32f4xx_hal_tim_ex.c ****     __HAL_TIM_ENABLE(htim);
 454              		.loc 1 303 5
 455 0028 7B68     		ldr	r3, [r7, #4]
 456 002a 1B68     		ldr	r3, [r3]
 457 002c 1A68     		ldr	r2, [r3]
 458 002e 7B68     		ldr	r3, [r7, #4]
 459 0030 1B68     		ldr	r3, [r3]
 460 0032 42F00102 		orr	r2, r2, #1
 461 0036 1A60     		str	r2, [r3]
 462              	.L12:
 304:Drivers/STM32F4xx_HAL_Driver/Src/stm32f4xx_hal_tim_ex.c ****   }
 305:Drivers/STM32F4xx_HAL_Driver/Src/stm32f4xx_hal_tim_ex.c **** 
 306:Drivers/STM32F4xx_HAL_Driver/Src/stm32f4xx_hal_tim_ex.c ****   /* Return function status */
 307:Drivers/STM32F4xx_HAL_Driver/Src/stm32f4xx_hal_tim_ex.c ****   return HAL_OK;
 463              		.loc 1 307 10
 464 0038 0023     		movs	r3, #0
 308:Drivers/STM32F4xx_HAL_Driver/Src/stm32f4xx_hal_tim_ex.c **** }
 465              		.loc 1 308 1
 466 003a 1846     		mov	r0, r3
 467 003c 1037     		adds	r7, r7, #16
 468              	.LCFI25:
 469              		.cfi_def_cfa_offset 8
 470 003e BD46     		mov	sp, r7
 471              	.LCFI26:
 472              		.cfi_def_cfa_register 13
 473              		@ sp needed
 474 0040 80BD     		pop	{r7, pc}
 475              		.cfi_endproc
 476              	.LFE134:
 478              		.section	.text.HAL_TIMEx_HallSensor_Stop,"ax",%progbits
 479              		.align	1
 480              		.global	HAL_TIMEx_HallSensor_Stop
 481              		.syntax unified
 482              		.thumb
 483              		.thumb_func
 484              		.fpu fpv4-sp-d16
 486              	HAL_TIMEx_HallSensor_Stop:
 487              	.LFB135:
 309:Drivers/STM32F4xx_HAL_Driver/Src/stm32f4xx_hal_tim_ex.c **** 
 310:Drivers/STM32F4xx_HAL_Driver/Src/stm32f4xx_hal_tim_ex.c **** /**
 311:Drivers/STM32F4xx_HAL_Driver/Src/stm32f4xx_hal_tim_ex.c ****   * @brief  Stops the TIM Hall sensor Interface.
 312:Drivers/STM32F4xx_HAL_Driver/Src/stm32f4xx_hal_tim_ex.c ****   * @param  htim TIM Hall Sensor Interface handle
 313:Drivers/STM32F4xx_HAL_Driver/Src/stm32f4xx_hal_tim_ex.c ****   * @retval HAL status
 314:Drivers/STM32F4xx_HAL_Driver/Src/stm32f4xx_hal_tim_ex.c ****   */
 315:Drivers/STM32F4xx_HAL_Driver/Src/stm32f4xx_hal_tim_ex.c **** HAL_StatusTypeDef HAL_TIMEx_HallSensor_Stop(TIM_HandleTypeDef *htim)
 316:Drivers/STM32F4xx_HAL_Driver/Src/stm32f4xx_hal_tim_ex.c **** {
 488              		.loc 1 316 1
 489              		.cfi_startproc
 490              		@ args = 0, pretend = 0, frame = 8
 491              		@ frame_needed = 1, uses_anonymous_args = 0
 492 0000 80B5     		push	{r7, lr}
 493              	.LCFI27:
ARM GAS  /tmp/ccilmNhL.s 			page 15


 494              		.cfi_def_cfa_offset 8
 495              		.cfi_offset 7, -8
 496              		.cfi_offset 14, -4
 497 0002 82B0     		sub	sp, sp, #8
 498              	.LCFI28:
 499              		.cfi_def_cfa_offset 16
 500 0004 00AF     		add	r7, sp, #0
 501              	.LCFI29:
 502              		.cfi_def_cfa_register 7
 503 0006 7860     		str	r0, [r7, #4]
 317:Drivers/STM32F4xx_HAL_Driver/Src/stm32f4xx_hal_tim_ex.c ****   /* Check the parameters */
 318:Drivers/STM32F4xx_HAL_Driver/Src/stm32f4xx_hal_tim_ex.c ****   assert_param(IS_TIM_HALL_SENSOR_INTERFACE_INSTANCE(htim->Instance));
 319:Drivers/STM32F4xx_HAL_Driver/Src/stm32f4xx_hal_tim_ex.c **** 
 320:Drivers/STM32F4xx_HAL_Driver/Src/stm32f4xx_hal_tim_ex.c ****   /* Disable the Input Capture channels 1, 2 and 3
 321:Drivers/STM32F4xx_HAL_Driver/Src/stm32f4xx_hal_tim_ex.c ****     (in the Hall Sensor Interface the three possible channels that can be used are TIM_CHANNEL_1, T
 322:Drivers/STM32F4xx_HAL_Driver/Src/stm32f4xx_hal_tim_ex.c ****   TIM_CCxChannelCmd(htim->Instance, TIM_CHANNEL_1, TIM_CCx_DISABLE);
 504              		.loc 1 322 3
 505 0008 7B68     		ldr	r3, [r7, #4]
 506 000a 1B68     		ldr	r3, [r3]
 507 000c 0022     		movs	r2, #0
 508 000e 0021     		movs	r1, #0
 509 0010 1846     		mov	r0, r3
 510 0012 FFF7FEFF 		bl	TIM_CCxChannelCmd
 323:Drivers/STM32F4xx_HAL_Driver/Src/stm32f4xx_hal_tim_ex.c **** 
 324:Drivers/STM32F4xx_HAL_Driver/Src/stm32f4xx_hal_tim_ex.c ****   /* Disable the Peripheral */
 325:Drivers/STM32F4xx_HAL_Driver/Src/stm32f4xx_hal_tim_ex.c ****   __HAL_TIM_DISABLE(htim);
 511              		.loc 1 325 3
 512 0016 7B68     		ldr	r3, [r7, #4]
 513 0018 1B68     		ldr	r3, [r3]
 514 001a 1A6A     		ldr	r2, [r3, #32]
 515 001c 41F21113 		movw	r3, #4369
 516 0020 1340     		ands	r3, r3, r2
 517 0022 002B     		cmp	r3, #0
 518 0024 0FD1     		bne	.L15
 519              		.loc 1 325 3 is_stmt 0 discriminator 1
 520 0026 7B68     		ldr	r3, [r7, #4]
 521 0028 1B68     		ldr	r3, [r3]
 522 002a 1A6A     		ldr	r2, [r3, #32]
 523 002c 40F24443 		movw	r3, #1092
 524 0030 1340     		ands	r3, r3, r2
 525 0032 002B     		cmp	r3, #0
 526 0034 07D1     		bne	.L15
 527              		.loc 1 325 3 discriminator 2
 528 0036 7B68     		ldr	r3, [r7, #4]
 529 0038 1B68     		ldr	r3, [r3]
 530 003a 1A68     		ldr	r2, [r3]
 531 003c 7B68     		ldr	r3, [r7, #4]
 532 003e 1B68     		ldr	r3, [r3]
 533 0040 22F00102 		bic	r2, r2, #1
 534 0044 1A60     		str	r2, [r3]
 535              	.L15:
 326:Drivers/STM32F4xx_HAL_Driver/Src/stm32f4xx_hal_tim_ex.c **** 
 327:Drivers/STM32F4xx_HAL_Driver/Src/stm32f4xx_hal_tim_ex.c ****   /* Return function status */
 328:Drivers/STM32F4xx_HAL_Driver/Src/stm32f4xx_hal_tim_ex.c ****   return HAL_OK;
 536              		.loc 1 328 10 is_stmt 1
 537 0046 0023     		movs	r3, #0
 329:Drivers/STM32F4xx_HAL_Driver/Src/stm32f4xx_hal_tim_ex.c **** }
ARM GAS  /tmp/ccilmNhL.s 			page 16


 538              		.loc 1 329 1
 539 0048 1846     		mov	r0, r3
 540 004a 0837     		adds	r7, r7, #8
 541              	.LCFI30:
 542              		.cfi_def_cfa_offset 8
 543 004c BD46     		mov	sp, r7
 544              	.LCFI31:
 545              		.cfi_def_cfa_register 13
 546              		@ sp needed
 547 004e 80BD     		pop	{r7, pc}
 548              		.cfi_endproc
 549              	.LFE135:
 551              		.section	.text.HAL_TIMEx_HallSensor_Start_IT,"ax",%progbits
 552              		.align	1
 553              		.global	HAL_TIMEx_HallSensor_Start_IT
 554              		.syntax unified
 555              		.thumb
 556              		.thumb_func
 557              		.fpu fpv4-sp-d16
 559              	HAL_TIMEx_HallSensor_Start_IT:
 560              	.LFB136:
 330:Drivers/STM32F4xx_HAL_Driver/Src/stm32f4xx_hal_tim_ex.c **** 
 331:Drivers/STM32F4xx_HAL_Driver/Src/stm32f4xx_hal_tim_ex.c **** /**
 332:Drivers/STM32F4xx_HAL_Driver/Src/stm32f4xx_hal_tim_ex.c ****   * @brief  Starts the TIM Hall Sensor Interface in interrupt mode.
 333:Drivers/STM32F4xx_HAL_Driver/Src/stm32f4xx_hal_tim_ex.c ****   * @param  htim TIM Hall Sensor Interface handle
 334:Drivers/STM32F4xx_HAL_Driver/Src/stm32f4xx_hal_tim_ex.c ****   * @retval HAL status
 335:Drivers/STM32F4xx_HAL_Driver/Src/stm32f4xx_hal_tim_ex.c ****   */
 336:Drivers/STM32F4xx_HAL_Driver/Src/stm32f4xx_hal_tim_ex.c **** HAL_StatusTypeDef HAL_TIMEx_HallSensor_Start_IT(TIM_HandleTypeDef *htim)
 337:Drivers/STM32F4xx_HAL_Driver/Src/stm32f4xx_hal_tim_ex.c **** {
 561              		.loc 1 337 1
 562              		.cfi_startproc
 563              		@ args = 0, pretend = 0, frame = 16
 564              		@ frame_needed = 1, uses_anonymous_args = 0
 565 0000 80B5     		push	{r7, lr}
 566              	.LCFI32:
 567              		.cfi_def_cfa_offset 8
 568              		.cfi_offset 7, -8
 569              		.cfi_offset 14, -4
 570 0002 84B0     		sub	sp, sp, #16
 571              	.LCFI33:
 572              		.cfi_def_cfa_offset 24
 573 0004 00AF     		add	r7, sp, #0
 574              	.LCFI34:
 575              		.cfi_def_cfa_register 7
 576 0006 7860     		str	r0, [r7, #4]
 338:Drivers/STM32F4xx_HAL_Driver/Src/stm32f4xx_hal_tim_ex.c ****   uint32_t tmpsmcr;
 339:Drivers/STM32F4xx_HAL_Driver/Src/stm32f4xx_hal_tim_ex.c **** 
 340:Drivers/STM32F4xx_HAL_Driver/Src/stm32f4xx_hal_tim_ex.c ****   /* Check the parameters */
 341:Drivers/STM32F4xx_HAL_Driver/Src/stm32f4xx_hal_tim_ex.c ****   assert_param(IS_TIM_HALL_SENSOR_INTERFACE_INSTANCE(htim->Instance));
 342:Drivers/STM32F4xx_HAL_Driver/Src/stm32f4xx_hal_tim_ex.c **** 
 343:Drivers/STM32F4xx_HAL_Driver/Src/stm32f4xx_hal_tim_ex.c ****   /* Enable the capture compare Interrupts 1 event */
 344:Drivers/STM32F4xx_HAL_Driver/Src/stm32f4xx_hal_tim_ex.c ****   __HAL_TIM_ENABLE_IT(htim, TIM_IT_CC1);
 577              		.loc 1 344 3
 578 0008 7B68     		ldr	r3, [r7, #4]
 579 000a 1B68     		ldr	r3, [r3]
 580 000c DA68     		ldr	r2, [r3, #12]
 581 000e 7B68     		ldr	r3, [r7, #4]
ARM GAS  /tmp/ccilmNhL.s 			page 17


 582 0010 1B68     		ldr	r3, [r3]
 583 0012 42F00202 		orr	r2, r2, #2
 584 0016 DA60     		str	r2, [r3, #12]
 345:Drivers/STM32F4xx_HAL_Driver/Src/stm32f4xx_hal_tim_ex.c **** 
 346:Drivers/STM32F4xx_HAL_Driver/Src/stm32f4xx_hal_tim_ex.c ****   /* Enable the Input Capture channel 1
 347:Drivers/STM32F4xx_HAL_Driver/Src/stm32f4xx_hal_tim_ex.c ****     (in the Hall Sensor Interface the three possible channels that can be used are TIM_CHANNEL_1, T
 348:Drivers/STM32F4xx_HAL_Driver/Src/stm32f4xx_hal_tim_ex.c ****   TIM_CCxChannelCmd(htim->Instance, TIM_CHANNEL_1, TIM_CCx_ENABLE);
 585              		.loc 1 348 3
 586 0018 7B68     		ldr	r3, [r7, #4]
 587 001a 1B68     		ldr	r3, [r3]
 588 001c 0122     		movs	r2, #1
 589 001e 0021     		movs	r1, #0
 590 0020 1846     		mov	r0, r3
 591 0022 FFF7FEFF 		bl	TIM_CCxChannelCmd
 349:Drivers/STM32F4xx_HAL_Driver/Src/stm32f4xx_hal_tim_ex.c **** 
 350:Drivers/STM32F4xx_HAL_Driver/Src/stm32f4xx_hal_tim_ex.c ****   /* Enable the Peripheral, except in trigger mode where enable is automatically done with trigger 
 351:Drivers/STM32F4xx_HAL_Driver/Src/stm32f4xx_hal_tim_ex.c ****   tmpsmcr = htim->Instance->SMCR & TIM_SMCR_SMS;
 592              		.loc 1 351 17
 593 0026 7B68     		ldr	r3, [r7, #4]
 594 0028 1B68     		ldr	r3, [r3]
 595              		.loc 1 351 27
 596 002a 9B68     		ldr	r3, [r3, #8]
 597              		.loc 1 351 11
 598 002c 03F00703 		and	r3, r3, #7
 599 0030 FB60     		str	r3, [r7, #12]
 352:Drivers/STM32F4xx_HAL_Driver/Src/stm32f4xx_hal_tim_ex.c ****   if (!IS_TIM_SLAVEMODE_TRIGGER_ENABLED(tmpsmcr))
 600              		.loc 1 352 6
 601 0032 FB68     		ldr	r3, [r7, #12]
 602 0034 062B     		cmp	r3, #6
 603 0036 07D0     		beq	.L18
 353:Drivers/STM32F4xx_HAL_Driver/Src/stm32f4xx_hal_tim_ex.c ****   {
 354:Drivers/STM32F4xx_HAL_Driver/Src/stm32f4xx_hal_tim_ex.c ****     __HAL_TIM_ENABLE(htim);
 604              		.loc 1 354 5
 605 0038 7B68     		ldr	r3, [r7, #4]
 606 003a 1B68     		ldr	r3, [r3]
 607 003c 1A68     		ldr	r2, [r3]
 608 003e 7B68     		ldr	r3, [r7, #4]
 609 0040 1B68     		ldr	r3, [r3]
 610 0042 42F00102 		orr	r2, r2, #1
 611 0046 1A60     		str	r2, [r3]
 612              	.L18:
 355:Drivers/STM32F4xx_HAL_Driver/Src/stm32f4xx_hal_tim_ex.c ****   }
 356:Drivers/STM32F4xx_HAL_Driver/Src/stm32f4xx_hal_tim_ex.c **** 
 357:Drivers/STM32F4xx_HAL_Driver/Src/stm32f4xx_hal_tim_ex.c ****   /* Return function status */
 358:Drivers/STM32F4xx_HAL_Driver/Src/stm32f4xx_hal_tim_ex.c ****   return HAL_OK;
 613              		.loc 1 358 10
 614 0048 0023     		movs	r3, #0
 359:Drivers/STM32F4xx_HAL_Driver/Src/stm32f4xx_hal_tim_ex.c **** }
 615              		.loc 1 359 1
 616 004a 1846     		mov	r0, r3
 617 004c 1037     		adds	r7, r7, #16
 618              	.LCFI35:
 619              		.cfi_def_cfa_offset 8
 620 004e BD46     		mov	sp, r7
 621              	.LCFI36:
 622              		.cfi_def_cfa_register 13
 623              		@ sp needed
ARM GAS  /tmp/ccilmNhL.s 			page 18


 624 0050 80BD     		pop	{r7, pc}
 625              		.cfi_endproc
 626              	.LFE136:
 628              		.section	.text.HAL_TIMEx_HallSensor_Stop_IT,"ax",%progbits
 629              		.align	1
 630              		.global	HAL_TIMEx_HallSensor_Stop_IT
 631              		.syntax unified
 632              		.thumb
 633              		.thumb_func
 634              		.fpu fpv4-sp-d16
 636              	HAL_TIMEx_HallSensor_Stop_IT:
 637              	.LFB137:
 360:Drivers/STM32F4xx_HAL_Driver/Src/stm32f4xx_hal_tim_ex.c **** 
 361:Drivers/STM32F4xx_HAL_Driver/Src/stm32f4xx_hal_tim_ex.c **** /**
 362:Drivers/STM32F4xx_HAL_Driver/Src/stm32f4xx_hal_tim_ex.c ****   * @brief  Stops the TIM Hall Sensor Interface in interrupt mode.
 363:Drivers/STM32F4xx_HAL_Driver/Src/stm32f4xx_hal_tim_ex.c ****   * @param  htim TIM Hall Sensor Interface handle
 364:Drivers/STM32F4xx_HAL_Driver/Src/stm32f4xx_hal_tim_ex.c ****   * @retval HAL status
 365:Drivers/STM32F4xx_HAL_Driver/Src/stm32f4xx_hal_tim_ex.c ****   */
 366:Drivers/STM32F4xx_HAL_Driver/Src/stm32f4xx_hal_tim_ex.c **** HAL_StatusTypeDef HAL_TIMEx_HallSensor_Stop_IT(TIM_HandleTypeDef *htim)
 367:Drivers/STM32F4xx_HAL_Driver/Src/stm32f4xx_hal_tim_ex.c **** {
 638              		.loc 1 367 1
 639              		.cfi_startproc
 640              		@ args = 0, pretend = 0, frame = 8
 641              		@ frame_needed = 1, uses_anonymous_args = 0
 642 0000 80B5     		push	{r7, lr}
 643              	.LCFI37:
 644              		.cfi_def_cfa_offset 8
 645              		.cfi_offset 7, -8
 646              		.cfi_offset 14, -4
 647 0002 82B0     		sub	sp, sp, #8
 648              	.LCFI38:
 649              		.cfi_def_cfa_offset 16
 650 0004 00AF     		add	r7, sp, #0
 651              	.LCFI39:
 652              		.cfi_def_cfa_register 7
 653 0006 7860     		str	r0, [r7, #4]
 368:Drivers/STM32F4xx_HAL_Driver/Src/stm32f4xx_hal_tim_ex.c ****   /* Check the parameters */
 369:Drivers/STM32F4xx_HAL_Driver/Src/stm32f4xx_hal_tim_ex.c ****   assert_param(IS_TIM_HALL_SENSOR_INTERFACE_INSTANCE(htim->Instance));
 370:Drivers/STM32F4xx_HAL_Driver/Src/stm32f4xx_hal_tim_ex.c **** 
 371:Drivers/STM32F4xx_HAL_Driver/Src/stm32f4xx_hal_tim_ex.c ****   /* Disable the Input Capture channel 1
 372:Drivers/STM32F4xx_HAL_Driver/Src/stm32f4xx_hal_tim_ex.c ****     (in the Hall Sensor Interface the three possible channels that can be used are TIM_CHANNEL_1, T
 373:Drivers/STM32F4xx_HAL_Driver/Src/stm32f4xx_hal_tim_ex.c ****   TIM_CCxChannelCmd(htim->Instance, TIM_CHANNEL_1, TIM_CCx_DISABLE);
 654              		.loc 1 373 3
 655 0008 7B68     		ldr	r3, [r7, #4]
 656 000a 1B68     		ldr	r3, [r3]
 657 000c 0022     		movs	r2, #0
 658 000e 0021     		movs	r1, #0
 659 0010 1846     		mov	r0, r3
 660 0012 FFF7FEFF 		bl	TIM_CCxChannelCmd
 374:Drivers/STM32F4xx_HAL_Driver/Src/stm32f4xx_hal_tim_ex.c **** 
 375:Drivers/STM32F4xx_HAL_Driver/Src/stm32f4xx_hal_tim_ex.c ****   /* Disable the capture compare Interrupts event */
 376:Drivers/STM32F4xx_HAL_Driver/Src/stm32f4xx_hal_tim_ex.c ****   __HAL_TIM_DISABLE_IT(htim, TIM_IT_CC1);
 661              		.loc 1 376 3
 662 0016 7B68     		ldr	r3, [r7, #4]
 663 0018 1B68     		ldr	r3, [r3]
 664 001a DA68     		ldr	r2, [r3, #12]
 665 001c 7B68     		ldr	r3, [r7, #4]
ARM GAS  /tmp/ccilmNhL.s 			page 19


 666 001e 1B68     		ldr	r3, [r3]
 667 0020 22F00202 		bic	r2, r2, #2
 668 0024 DA60     		str	r2, [r3, #12]
 377:Drivers/STM32F4xx_HAL_Driver/Src/stm32f4xx_hal_tim_ex.c **** 
 378:Drivers/STM32F4xx_HAL_Driver/Src/stm32f4xx_hal_tim_ex.c ****   /* Disable the Peripheral */
 379:Drivers/STM32F4xx_HAL_Driver/Src/stm32f4xx_hal_tim_ex.c ****   __HAL_TIM_DISABLE(htim);
 669              		.loc 1 379 3
 670 0026 7B68     		ldr	r3, [r7, #4]
 671 0028 1B68     		ldr	r3, [r3]
 672 002a 1A6A     		ldr	r2, [r3, #32]
 673 002c 41F21113 		movw	r3, #4369
 674 0030 1340     		ands	r3, r3, r2
 675 0032 002B     		cmp	r3, #0
 676 0034 0FD1     		bne	.L21
 677              		.loc 1 379 3 is_stmt 0 discriminator 1
 678 0036 7B68     		ldr	r3, [r7, #4]
 679 0038 1B68     		ldr	r3, [r3]
 680 003a 1A6A     		ldr	r2, [r3, #32]
 681 003c 40F24443 		movw	r3, #1092
 682 0040 1340     		ands	r3, r3, r2
 683 0042 002B     		cmp	r3, #0
 684 0044 07D1     		bne	.L21
 685              		.loc 1 379 3 discriminator 2
 686 0046 7B68     		ldr	r3, [r7, #4]
 687 0048 1B68     		ldr	r3, [r3]
 688 004a 1A68     		ldr	r2, [r3]
 689 004c 7B68     		ldr	r3, [r7, #4]
 690 004e 1B68     		ldr	r3, [r3]
 691 0050 22F00102 		bic	r2, r2, #1
 692 0054 1A60     		str	r2, [r3]
 693              	.L21:
 380:Drivers/STM32F4xx_HAL_Driver/Src/stm32f4xx_hal_tim_ex.c **** 
 381:Drivers/STM32F4xx_HAL_Driver/Src/stm32f4xx_hal_tim_ex.c ****   /* Return function status */
 382:Drivers/STM32F4xx_HAL_Driver/Src/stm32f4xx_hal_tim_ex.c ****   return HAL_OK;
 694              		.loc 1 382 10 is_stmt 1
 695 0056 0023     		movs	r3, #0
 383:Drivers/STM32F4xx_HAL_Driver/Src/stm32f4xx_hal_tim_ex.c **** }
 696              		.loc 1 383 1
 697 0058 1846     		mov	r0, r3
 698 005a 0837     		adds	r7, r7, #8
 699              	.LCFI40:
 700              		.cfi_def_cfa_offset 8
 701 005c BD46     		mov	sp, r7
 702              	.LCFI41:
 703              		.cfi_def_cfa_register 13
 704              		@ sp needed
 705 005e 80BD     		pop	{r7, pc}
 706              		.cfi_endproc
 707              	.LFE137:
 709              		.section	.text.HAL_TIMEx_HallSensor_Start_DMA,"ax",%progbits
 710              		.align	1
 711              		.global	HAL_TIMEx_HallSensor_Start_DMA
 712              		.syntax unified
 713              		.thumb
 714              		.thumb_func
 715              		.fpu fpv4-sp-d16
 717              	HAL_TIMEx_HallSensor_Start_DMA:
ARM GAS  /tmp/ccilmNhL.s 			page 20


 718              	.LFB138:
 384:Drivers/STM32F4xx_HAL_Driver/Src/stm32f4xx_hal_tim_ex.c **** 
 385:Drivers/STM32F4xx_HAL_Driver/Src/stm32f4xx_hal_tim_ex.c **** /**
 386:Drivers/STM32F4xx_HAL_Driver/Src/stm32f4xx_hal_tim_ex.c ****   * @brief  Starts the TIM Hall Sensor Interface in DMA mode.
 387:Drivers/STM32F4xx_HAL_Driver/Src/stm32f4xx_hal_tim_ex.c ****   * @param  htim TIM Hall Sensor Interface handle
 388:Drivers/STM32F4xx_HAL_Driver/Src/stm32f4xx_hal_tim_ex.c ****   * @param  pData The destination Buffer address.
 389:Drivers/STM32F4xx_HAL_Driver/Src/stm32f4xx_hal_tim_ex.c ****   * @param  Length The length of data to be transferred from TIM peripheral to memory.
 390:Drivers/STM32F4xx_HAL_Driver/Src/stm32f4xx_hal_tim_ex.c ****   * @retval HAL status
 391:Drivers/STM32F4xx_HAL_Driver/Src/stm32f4xx_hal_tim_ex.c ****   */
 392:Drivers/STM32F4xx_HAL_Driver/Src/stm32f4xx_hal_tim_ex.c **** HAL_StatusTypeDef HAL_TIMEx_HallSensor_Start_DMA(TIM_HandleTypeDef *htim, uint32_t *pData, uint16_t
 393:Drivers/STM32F4xx_HAL_Driver/Src/stm32f4xx_hal_tim_ex.c **** {
 719              		.loc 1 393 1
 720              		.cfi_startproc
 721              		@ args = 0, pretend = 0, frame = 24
 722              		@ frame_needed = 1, uses_anonymous_args = 0
 723 0000 80B5     		push	{r7, lr}
 724              	.LCFI42:
 725              		.cfi_def_cfa_offset 8
 726              		.cfi_offset 7, -8
 727              		.cfi_offset 14, -4
 728 0002 86B0     		sub	sp, sp, #24
 729              	.LCFI43:
 730              		.cfi_def_cfa_offset 32
 731 0004 00AF     		add	r7, sp, #0
 732              	.LCFI44:
 733              		.cfi_def_cfa_register 7
 734 0006 F860     		str	r0, [r7, #12]
 735 0008 B960     		str	r1, [r7, #8]
 736 000a 1346     		mov	r3, r2
 737 000c FB80     		strh	r3, [r7, #6]	@ movhi
 394:Drivers/STM32F4xx_HAL_Driver/Src/stm32f4xx_hal_tim_ex.c ****   uint32_t tmpsmcr;
 395:Drivers/STM32F4xx_HAL_Driver/Src/stm32f4xx_hal_tim_ex.c **** 
 396:Drivers/STM32F4xx_HAL_Driver/Src/stm32f4xx_hal_tim_ex.c ****   /* Check the parameters */
 397:Drivers/STM32F4xx_HAL_Driver/Src/stm32f4xx_hal_tim_ex.c ****   assert_param(IS_TIM_HALL_SENSOR_INTERFACE_INSTANCE(htim->Instance));
 398:Drivers/STM32F4xx_HAL_Driver/Src/stm32f4xx_hal_tim_ex.c **** 
 399:Drivers/STM32F4xx_HAL_Driver/Src/stm32f4xx_hal_tim_ex.c ****   if (htim->State == HAL_TIM_STATE_BUSY)
 738              		.loc 1 399 11
 739 000e FB68     		ldr	r3, [r7, #12]
 740 0010 93F83D30 		ldrb	r3, [r3, #61]
 741 0014 DBB2     		uxtb	r3, r3
 742              		.loc 1 399 6
 743 0016 022B     		cmp	r3, #2
 744 0018 01D1     		bne	.L24
 400:Drivers/STM32F4xx_HAL_Driver/Src/stm32f4xx_hal_tim_ex.c ****   {
 401:Drivers/STM32F4xx_HAL_Driver/Src/stm32f4xx_hal_tim_ex.c ****     return HAL_BUSY;
 745              		.loc 1 401 12
 746 001a 0223     		movs	r3, #2
 747 001c 4DE0     		b	.L25
 748              	.L24:
 402:Drivers/STM32F4xx_HAL_Driver/Src/stm32f4xx_hal_tim_ex.c ****   }
 403:Drivers/STM32F4xx_HAL_Driver/Src/stm32f4xx_hal_tim_ex.c ****   else if (htim->State == HAL_TIM_STATE_READY)
 749              		.loc 1 403 16
 750 001e FB68     		ldr	r3, [r7, #12]
 751 0020 93F83D30 		ldrb	r3, [r3, #61]
 752 0024 DBB2     		uxtb	r3, r3
 753              		.loc 1 403 11
 754 0026 012B     		cmp	r3, #1
ARM GAS  /tmp/ccilmNhL.s 			page 21


 755 0028 0BD1     		bne	.L26
 404:Drivers/STM32F4xx_HAL_Driver/Src/stm32f4xx_hal_tim_ex.c ****   {
 405:Drivers/STM32F4xx_HAL_Driver/Src/stm32f4xx_hal_tim_ex.c ****     if (((uint32_t)pData == 0U) && (Length > 0U))
 756              		.loc 1 405 8
 757 002a BB68     		ldr	r3, [r7, #8]
 758 002c 002B     		cmp	r3, #0
 759 002e 04D1     		bne	.L27
 760              		.loc 1 405 33 discriminator 1
 761 0030 FB88     		ldrh	r3, [r7, #6]
 762 0032 002B     		cmp	r3, #0
 763 0034 01D0     		beq	.L27
 406:Drivers/STM32F4xx_HAL_Driver/Src/stm32f4xx_hal_tim_ex.c ****     {
 407:Drivers/STM32F4xx_HAL_Driver/Src/stm32f4xx_hal_tim_ex.c ****       return HAL_ERROR;
 764              		.loc 1 407 14
 765 0036 0123     		movs	r3, #1
 766 0038 3FE0     		b	.L25
 767              	.L27:
 408:Drivers/STM32F4xx_HAL_Driver/Src/stm32f4xx_hal_tim_ex.c ****     }
 409:Drivers/STM32F4xx_HAL_Driver/Src/stm32f4xx_hal_tim_ex.c ****     else
 410:Drivers/STM32F4xx_HAL_Driver/Src/stm32f4xx_hal_tim_ex.c ****     {
 411:Drivers/STM32F4xx_HAL_Driver/Src/stm32f4xx_hal_tim_ex.c ****       htim->State = HAL_TIM_STATE_BUSY;
 768              		.loc 1 411 19
 769 003a FB68     		ldr	r3, [r7, #12]
 770 003c 0222     		movs	r2, #2
 771 003e 83F83D20 		strb	r2, [r3, #61]
 772              	.L26:
 412:Drivers/STM32F4xx_HAL_Driver/Src/stm32f4xx_hal_tim_ex.c ****     }
 413:Drivers/STM32F4xx_HAL_Driver/Src/stm32f4xx_hal_tim_ex.c ****   }
 414:Drivers/STM32F4xx_HAL_Driver/Src/stm32f4xx_hal_tim_ex.c ****   else
 415:Drivers/STM32F4xx_HAL_Driver/Src/stm32f4xx_hal_tim_ex.c ****   {
 416:Drivers/STM32F4xx_HAL_Driver/Src/stm32f4xx_hal_tim_ex.c ****     /* nothing to do */
 417:Drivers/STM32F4xx_HAL_Driver/Src/stm32f4xx_hal_tim_ex.c ****   }
 418:Drivers/STM32F4xx_HAL_Driver/Src/stm32f4xx_hal_tim_ex.c ****   /* Enable the Input Capture channel 1
 419:Drivers/STM32F4xx_HAL_Driver/Src/stm32f4xx_hal_tim_ex.c ****     (in the Hall Sensor Interface the three possible channels that can be used are TIM_CHANNEL_1, T
 420:Drivers/STM32F4xx_HAL_Driver/Src/stm32f4xx_hal_tim_ex.c ****   TIM_CCxChannelCmd(htim->Instance, TIM_CHANNEL_1, TIM_CCx_ENABLE);
 773              		.loc 1 420 3
 774 0042 FB68     		ldr	r3, [r7, #12]
 775 0044 1B68     		ldr	r3, [r3]
 776 0046 0122     		movs	r2, #1
 777 0048 0021     		movs	r1, #0
 778 004a 1846     		mov	r0, r3
 779 004c FFF7FEFF 		bl	TIM_CCxChannelCmd
 421:Drivers/STM32F4xx_HAL_Driver/Src/stm32f4xx_hal_tim_ex.c **** 
 422:Drivers/STM32F4xx_HAL_Driver/Src/stm32f4xx_hal_tim_ex.c ****   /* Set the DMA Input Capture 1 Callbacks */
 423:Drivers/STM32F4xx_HAL_Driver/Src/stm32f4xx_hal_tim_ex.c ****   htim->hdma[TIM_DMA_ID_CC1]->XferCpltCallback = TIM_DMACaptureCplt;
 780              		.loc 1 423 13
 781 0050 FB68     		ldr	r3, [r7, #12]
 782 0052 5B6A     		ldr	r3, [r3, #36]
 783              		.loc 1 423 48
 784 0054 1B4A     		ldr	r2, .L30
 785 0056 DA63     		str	r2, [r3, #60]
 424:Drivers/STM32F4xx_HAL_Driver/Src/stm32f4xx_hal_tim_ex.c ****   htim->hdma[TIM_DMA_ID_CC1]->XferHalfCpltCallback = TIM_DMACaptureHalfCplt;
 786              		.loc 1 424 13
 787 0058 FB68     		ldr	r3, [r7, #12]
 788 005a 5B6A     		ldr	r3, [r3, #36]
 789              		.loc 1 424 52
 790 005c 1A4A     		ldr	r2, .L30+4
ARM GAS  /tmp/ccilmNhL.s 			page 22


 791 005e 1A64     		str	r2, [r3, #64]
 425:Drivers/STM32F4xx_HAL_Driver/Src/stm32f4xx_hal_tim_ex.c ****   /* Set the DMA error callback */
 426:Drivers/STM32F4xx_HAL_Driver/Src/stm32f4xx_hal_tim_ex.c ****   htim->hdma[TIM_DMA_ID_CC1]->XferErrorCallback = TIM_DMAError ;
 792              		.loc 1 426 13
 793 0060 FB68     		ldr	r3, [r7, #12]
 794 0062 5B6A     		ldr	r3, [r3, #36]
 795              		.loc 1 426 49
 796 0064 194A     		ldr	r2, .L30+8
 797 0066 DA64     		str	r2, [r3, #76]
 427:Drivers/STM32F4xx_HAL_Driver/Src/stm32f4xx_hal_tim_ex.c **** 
 428:Drivers/STM32F4xx_HAL_Driver/Src/stm32f4xx_hal_tim_ex.c ****   /* Enable the DMA stream for Capture 1*/
 429:Drivers/STM32F4xx_HAL_Driver/Src/stm32f4xx_hal_tim_ex.c ****   if (HAL_DMA_Start_IT(htim->hdma[TIM_DMA_ID_CC1], (uint32_t)&htim->Instance->CCR1, (uint32_t)pData
 798              		.loc 1 429 7
 799 0068 FB68     		ldr	r3, [r7, #12]
 800 006a 586A     		ldr	r0, [r3, #36]
 801              		.loc 1 429 67
 802 006c FB68     		ldr	r3, [r7, #12]
 803 006e 1B68     		ldr	r3, [r3]
 804              		.loc 1 429 62
 805 0070 3433     		adds	r3, r3, #52
 806              		.loc 1 429 7
 807 0072 1946     		mov	r1, r3
 808 0074 BA68     		ldr	r2, [r7, #8]
 809 0076 FB88     		ldrh	r3, [r7, #6]
 810 0078 FFF7FEFF 		bl	HAL_DMA_Start_IT
 811 007c 0346     		mov	r3, r0
 812              		.loc 1 429 6
 813 007e 002B     		cmp	r3, #0
 814 0080 01D0     		beq	.L28
 430:Drivers/STM32F4xx_HAL_Driver/Src/stm32f4xx_hal_tim_ex.c ****   {
 431:Drivers/STM32F4xx_HAL_Driver/Src/stm32f4xx_hal_tim_ex.c ****     return HAL_ERROR;
 815              		.loc 1 431 12
 816 0082 0123     		movs	r3, #1
 817 0084 19E0     		b	.L25
 818              	.L28:
 432:Drivers/STM32F4xx_HAL_Driver/Src/stm32f4xx_hal_tim_ex.c ****   }
 433:Drivers/STM32F4xx_HAL_Driver/Src/stm32f4xx_hal_tim_ex.c ****   /* Enable the capture compare 1 Interrupt */
 434:Drivers/STM32F4xx_HAL_Driver/Src/stm32f4xx_hal_tim_ex.c ****   __HAL_TIM_ENABLE_DMA(htim, TIM_DMA_CC1);
 819              		.loc 1 434 3
 820 0086 FB68     		ldr	r3, [r7, #12]
 821 0088 1B68     		ldr	r3, [r3]
 822 008a DA68     		ldr	r2, [r3, #12]
 823 008c FB68     		ldr	r3, [r7, #12]
 824 008e 1B68     		ldr	r3, [r3]
 825 0090 42F40072 		orr	r2, r2, #512
 826 0094 DA60     		str	r2, [r3, #12]
 435:Drivers/STM32F4xx_HAL_Driver/Src/stm32f4xx_hal_tim_ex.c **** 
 436:Drivers/STM32F4xx_HAL_Driver/Src/stm32f4xx_hal_tim_ex.c ****   /* Enable the Peripheral, except in trigger mode where enable is automatically done with trigger 
 437:Drivers/STM32F4xx_HAL_Driver/Src/stm32f4xx_hal_tim_ex.c ****   tmpsmcr = htim->Instance->SMCR & TIM_SMCR_SMS;
 827              		.loc 1 437 17
 828 0096 FB68     		ldr	r3, [r7, #12]
 829 0098 1B68     		ldr	r3, [r3]
 830              		.loc 1 437 27
 831 009a 9B68     		ldr	r3, [r3, #8]
 832              		.loc 1 437 11
 833 009c 03F00703 		and	r3, r3, #7
 834 00a0 7B61     		str	r3, [r7, #20]
ARM GAS  /tmp/ccilmNhL.s 			page 23


 438:Drivers/STM32F4xx_HAL_Driver/Src/stm32f4xx_hal_tim_ex.c ****   if (!IS_TIM_SLAVEMODE_TRIGGER_ENABLED(tmpsmcr))
 835              		.loc 1 438 6
 836 00a2 7B69     		ldr	r3, [r7, #20]
 837 00a4 062B     		cmp	r3, #6
 838 00a6 07D0     		beq	.L29
 439:Drivers/STM32F4xx_HAL_Driver/Src/stm32f4xx_hal_tim_ex.c ****   {
 440:Drivers/STM32F4xx_HAL_Driver/Src/stm32f4xx_hal_tim_ex.c ****     __HAL_TIM_ENABLE(htim);
 839              		.loc 1 440 5
 840 00a8 FB68     		ldr	r3, [r7, #12]
 841 00aa 1B68     		ldr	r3, [r3]
 842 00ac 1A68     		ldr	r2, [r3]
 843 00ae FB68     		ldr	r3, [r7, #12]
 844 00b0 1B68     		ldr	r3, [r3]
 845 00b2 42F00102 		orr	r2, r2, #1
 846 00b6 1A60     		str	r2, [r3]
 847              	.L29:
 441:Drivers/STM32F4xx_HAL_Driver/Src/stm32f4xx_hal_tim_ex.c ****   }
 442:Drivers/STM32F4xx_HAL_Driver/Src/stm32f4xx_hal_tim_ex.c **** 
 443:Drivers/STM32F4xx_HAL_Driver/Src/stm32f4xx_hal_tim_ex.c ****   /* Return function status */
 444:Drivers/STM32F4xx_HAL_Driver/Src/stm32f4xx_hal_tim_ex.c ****   return HAL_OK;
 848              		.loc 1 444 10
 849 00b8 0023     		movs	r3, #0
 850              	.L25:
 445:Drivers/STM32F4xx_HAL_Driver/Src/stm32f4xx_hal_tim_ex.c **** }
 851              		.loc 1 445 1
 852 00ba 1846     		mov	r0, r3
 853 00bc 1837     		adds	r7, r7, #24
 854              	.LCFI45:
 855              		.cfi_def_cfa_offset 8
 856 00be BD46     		mov	sp, r7
 857              	.LCFI46:
 858              		.cfi_def_cfa_register 13
 859              		@ sp needed
 860 00c0 80BD     		pop	{r7, pc}
 861              	.L31:
 862 00c2 00BF     		.align	2
 863              	.L30:
 864 00c4 00000000 		.word	TIM_DMACaptureCplt
 865 00c8 00000000 		.word	TIM_DMACaptureHalfCplt
 866 00cc 00000000 		.word	TIM_DMAError
 867              		.cfi_endproc
 868              	.LFE138:
 870              		.section	.text.HAL_TIMEx_HallSensor_Stop_DMA,"ax",%progbits
 871              		.align	1
 872              		.global	HAL_TIMEx_HallSensor_Stop_DMA
 873              		.syntax unified
 874              		.thumb
 875              		.thumb_func
 876              		.fpu fpv4-sp-d16
 878              	HAL_TIMEx_HallSensor_Stop_DMA:
 879              	.LFB139:
 446:Drivers/STM32F4xx_HAL_Driver/Src/stm32f4xx_hal_tim_ex.c **** 
 447:Drivers/STM32F4xx_HAL_Driver/Src/stm32f4xx_hal_tim_ex.c **** /**
 448:Drivers/STM32F4xx_HAL_Driver/Src/stm32f4xx_hal_tim_ex.c ****   * @brief  Stops the TIM Hall Sensor Interface in DMA mode.
 449:Drivers/STM32F4xx_HAL_Driver/Src/stm32f4xx_hal_tim_ex.c ****   * @param  htim TIM Hall Sensor Interface handle
 450:Drivers/STM32F4xx_HAL_Driver/Src/stm32f4xx_hal_tim_ex.c ****   * @retval HAL status
 451:Drivers/STM32F4xx_HAL_Driver/Src/stm32f4xx_hal_tim_ex.c ****   */
ARM GAS  /tmp/ccilmNhL.s 			page 24


 452:Drivers/STM32F4xx_HAL_Driver/Src/stm32f4xx_hal_tim_ex.c **** HAL_StatusTypeDef HAL_TIMEx_HallSensor_Stop_DMA(TIM_HandleTypeDef *htim)
 453:Drivers/STM32F4xx_HAL_Driver/Src/stm32f4xx_hal_tim_ex.c **** {
 880              		.loc 1 453 1
 881              		.cfi_startproc
 882              		@ args = 0, pretend = 0, frame = 8
 883              		@ frame_needed = 1, uses_anonymous_args = 0
 884 0000 80B5     		push	{r7, lr}
 885              	.LCFI47:
 886              		.cfi_def_cfa_offset 8
 887              		.cfi_offset 7, -8
 888              		.cfi_offset 14, -4
 889 0002 82B0     		sub	sp, sp, #8
 890              	.LCFI48:
 891              		.cfi_def_cfa_offset 16
 892 0004 00AF     		add	r7, sp, #0
 893              	.LCFI49:
 894              		.cfi_def_cfa_register 7
 895 0006 7860     		str	r0, [r7, #4]
 454:Drivers/STM32F4xx_HAL_Driver/Src/stm32f4xx_hal_tim_ex.c ****   /* Check the parameters */
 455:Drivers/STM32F4xx_HAL_Driver/Src/stm32f4xx_hal_tim_ex.c ****   assert_param(IS_TIM_HALL_SENSOR_INTERFACE_INSTANCE(htim->Instance));
 456:Drivers/STM32F4xx_HAL_Driver/Src/stm32f4xx_hal_tim_ex.c **** 
 457:Drivers/STM32F4xx_HAL_Driver/Src/stm32f4xx_hal_tim_ex.c ****   /* Disable the Input Capture channel 1
 458:Drivers/STM32F4xx_HAL_Driver/Src/stm32f4xx_hal_tim_ex.c ****     (in the Hall Sensor Interface the three possible channels that can be used are TIM_CHANNEL_1, T
 459:Drivers/STM32F4xx_HAL_Driver/Src/stm32f4xx_hal_tim_ex.c ****   TIM_CCxChannelCmd(htim->Instance, TIM_CHANNEL_1, TIM_CCx_DISABLE);
 896              		.loc 1 459 3
 897 0008 7B68     		ldr	r3, [r7, #4]
 898 000a 1B68     		ldr	r3, [r3]
 899 000c 0022     		movs	r2, #0
 900 000e 0021     		movs	r1, #0
 901 0010 1846     		mov	r0, r3
 902 0012 FFF7FEFF 		bl	TIM_CCxChannelCmd
 460:Drivers/STM32F4xx_HAL_Driver/Src/stm32f4xx_hal_tim_ex.c **** 
 461:Drivers/STM32F4xx_HAL_Driver/Src/stm32f4xx_hal_tim_ex.c **** 
 462:Drivers/STM32F4xx_HAL_Driver/Src/stm32f4xx_hal_tim_ex.c ****   /* Disable the capture compare Interrupts 1 event */
 463:Drivers/STM32F4xx_HAL_Driver/Src/stm32f4xx_hal_tim_ex.c ****   __HAL_TIM_DISABLE_DMA(htim, TIM_DMA_CC1);
 903              		.loc 1 463 3
 904 0016 7B68     		ldr	r3, [r7, #4]
 905 0018 1B68     		ldr	r3, [r3]
 906 001a DA68     		ldr	r2, [r3, #12]
 907 001c 7B68     		ldr	r3, [r7, #4]
 908 001e 1B68     		ldr	r3, [r3]
 909 0020 22F40072 		bic	r2, r2, #512
 910 0024 DA60     		str	r2, [r3, #12]
 464:Drivers/STM32F4xx_HAL_Driver/Src/stm32f4xx_hal_tim_ex.c **** 
 465:Drivers/STM32F4xx_HAL_Driver/Src/stm32f4xx_hal_tim_ex.c ****   (void)HAL_DMA_Abort_IT(htim->hdma[TIM_DMA_ID_CC1]);
 911              		.loc 1 465 9
 912 0026 7B68     		ldr	r3, [r7, #4]
 913 0028 5B6A     		ldr	r3, [r3, #36]
 914 002a 1846     		mov	r0, r3
 915 002c FFF7FEFF 		bl	HAL_DMA_Abort_IT
 466:Drivers/STM32F4xx_HAL_Driver/Src/stm32f4xx_hal_tim_ex.c ****   /* Disable the Peripheral */
 467:Drivers/STM32F4xx_HAL_Driver/Src/stm32f4xx_hal_tim_ex.c ****   __HAL_TIM_DISABLE(htim);
 916              		.loc 1 467 3
 917 0030 7B68     		ldr	r3, [r7, #4]
 918 0032 1B68     		ldr	r3, [r3]
 919 0034 1A6A     		ldr	r2, [r3, #32]
 920 0036 41F21113 		movw	r3, #4369
ARM GAS  /tmp/ccilmNhL.s 			page 25


 921 003a 1340     		ands	r3, r3, r2
 922 003c 002B     		cmp	r3, #0
 923 003e 0FD1     		bne	.L33
 924              		.loc 1 467 3 is_stmt 0 discriminator 1
 925 0040 7B68     		ldr	r3, [r7, #4]
 926 0042 1B68     		ldr	r3, [r3]
 927 0044 1A6A     		ldr	r2, [r3, #32]
 928 0046 40F24443 		movw	r3, #1092
 929 004a 1340     		ands	r3, r3, r2
 930 004c 002B     		cmp	r3, #0
 931 004e 07D1     		bne	.L33
 932              		.loc 1 467 3 discriminator 2
 933 0050 7B68     		ldr	r3, [r7, #4]
 934 0052 1B68     		ldr	r3, [r3]
 935 0054 1A68     		ldr	r2, [r3]
 936 0056 7B68     		ldr	r3, [r7, #4]
 937 0058 1B68     		ldr	r3, [r3]
 938 005a 22F00102 		bic	r2, r2, #1
 939 005e 1A60     		str	r2, [r3]
 940              	.L33:
 468:Drivers/STM32F4xx_HAL_Driver/Src/stm32f4xx_hal_tim_ex.c **** 
 469:Drivers/STM32F4xx_HAL_Driver/Src/stm32f4xx_hal_tim_ex.c ****   /* Return function status */
 470:Drivers/STM32F4xx_HAL_Driver/Src/stm32f4xx_hal_tim_ex.c ****   return HAL_OK;
 941              		.loc 1 470 10 is_stmt 1
 942 0060 0023     		movs	r3, #0
 471:Drivers/STM32F4xx_HAL_Driver/Src/stm32f4xx_hal_tim_ex.c **** }
 943              		.loc 1 471 1
 944 0062 1846     		mov	r0, r3
 945 0064 0837     		adds	r7, r7, #8
 946              	.LCFI50:
 947              		.cfi_def_cfa_offset 8
 948 0066 BD46     		mov	sp, r7
 949              	.LCFI51:
 950              		.cfi_def_cfa_register 13
 951              		@ sp needed
 952 0068 80BD     		pop	{r7, pc}
 953              		.cfi_endproc
 954              	.LFE139:
 956              		.section	.text.HAL_TIMEx_OCN_Start,"ax",%progbits
 957              		.align	1
 958              		.global	HAL_TIMEx_OCN_Start
 959              		.syntax unified
 960              		.thumb
 961              		.thumb_func
 962              		.fpu fpv4-sp-d16
 964              	HAL_TIMEx_OCN_Start:
 965              	.LFB140:
 472:Drivers/STM32F4xx_HAL_Driver/Src/stm32f4xx_hal_tim_ex.c **** 
 473:Drivers/STM32F4xx_HAL_Driver/Src/stm32f4xx_hal_tim_ex.c **** /**
 474:Drivers/STM32F4xx_HAL_Driver/Src/stm32f4xx_hal_tim_ex.c ****   * @}
 475:Drivers/STM32F4xx_HAL_Driver/Src/stm32f4xx_hal_tim_ex.c ****   */
 476:Drivers/STM32F4xx_HAL_Driver/Src/stm32f4xx_hal_tim_ex.c **** 
 477:Drivers/STM32F4xx_HAL_Driver/Src/stm32f4xx_hal_tim_ex.c **** /** @defgroup TIMEx_Exported_Functions_Group2 Extended Timer Complementary Output Compare functions
 478:Drivers/STM32F4xx_HAL_Driver/Src/stm32f4xx_hal_tim_ex.c ****   *  @brief   Timer Complementary Output Compare functions
 479:Drivers/STM32F4xx_HAL_Driver/Src/stm32f4xx_hal_tim_ex.c ****   *
 480:Drivers/STM32F4xx_HAL_Driver/Src/stm32f4xx_hal_tim_ex.c **** @verbatim
 481:Drivers/STM32F4xx_HAL_Driver/Src/stm32f4xx_hal_tim_ex.c ****   ==============================================================================
ARM GAS  /tmp/ccilmNhL.s 			page 26


 482:Drivers/STM32F4xx_HAL_Driver/Src/stm32f4xx_hal_tim_ex.c ****               ##### Timer Complementary Output Compare functions #####
 483:Drivers/STM32F4xx_HAL_Driver/Src/stm32f4xx_hal_tim_ex.c ****   ==============================================================================
 484:Drivers/STM32F4xx_HAL_Driver/Src/stm32f4xx_hal_tim_ex.c ****   [..]
 485:Drivers/STM32F4xx_HAL_Driver/Src/stm32f4xx_hal_tim_ex.c ****     This section provides functions allowing to:
 486:Drivers/STM32F4xx_HAL_Driver/Src/stm32f4xx_hal_tim_ex.c ****     (+) Start the Complementary Output Compare/PWM.
 487:Drivers/STM32F4xx_HAL_Driver/Src/stm32f4xx_hal_tim_ex.c ****     (+) Stop the Complementary Output Compare/PWM.
 488:Drivers/STM32F4xx_HAL_Driver/Src/stm32f4xx_hal_tim_ex.c ****     (+) Start the Complementary Output Compare/PWM and enable interrupts.
 489:Drivers/STM32F4xx_HAL_Driver/Src/stm32f4xx_hal_tim_ex.c ****     (+) Stop the Complementary Output Compare/PWM and disable interrupts.
 490:Drivers/STM32F4xx_HAL_Driver/Src/stm32f4xx_hal_tim_ex.c ****     (+) Start the Complementary Output Compare/PWM and enable DMA transfers.
 491:Drivers/STM32F4xx_HAL_Driver/Src/stm32f4xx_hal_tim_ex.c ****     (+) Stop the Complementary Output Compare/PWM and disable DMA transfers.
 492:Drivers/STM32F4xx_HAL_Driver/Src/stm32f4xx_hal_tim_ex.c **** 
 493:Drivers/STM32F4xx_HAL_Driver/Src/stm32f4xx_hal_tim_ex.c **** @endverbatim
 494:Drivers/STM32F4xx_HAL_Driver/Src/stm32f4xx_hal_tim_ex.c ****   * @{
 495:Drivers/STM32F4xx_HAL_Driver/Src/stm32f4xx_hal_tim_ex.c ****   */
 496:Drivers/STM32F4xx_HAL_Driver/Src/stm32f4xx_hal_tim_ex.c **** 
 497:Drivers/STM32F4xx_HAL_Driver/Src/stm32f4xx_hal_tim_ex.c **** /**
 498:Drivers/STM32F4xx_HAL_Driver/Src/stm32f4xx_hal_tim_ex.c ****   * @brief  Starts the TIM Output Compare signal generation on the complementary
 499:Drivers/STM32F4xx_HAL_Driver/Src/stm32f4xx_hal_tim_ex.c ****   *         output.
 500:Drivers/STM32F4xx_HAL_Driver/Src/stm32f4xx_hal_tim_ex.c ****   * @param  htim TIM Output Compare handle
 501:Drivers/STM32F4xx_HAL_Driver/Src/stm32f4xx_hal_tim_ex.c ****   * @param  Channel TIM Channel to be enabled
 502:Drivers/STM32F4xx_HAL_Driver/Src/stm32f4xx_hal_tim_ex.c ****   *          This parameter can be one of the following values:
 503:Drivers/STM32F4xx_HAL_Driver/Src/stm32f4xx_hal_tim_ex.c ****   *            @arg TIM_CHANNEL_1: TIM Channel 1 selected
 504:Drivers/STM32F4xx_HAL_Driver/Src/stm32f4xx_hal_tim_ex.c ****   *            @arg TIM_CHANNEL_2: TIM Channel 2 selected
 505:Drivers/STM32F4xx_HAL_Driver/Src/stm32f4xx_hal_tim_ex.c ****   *            @arg TIM_CHANNEL_3: TIM Channel 3 selected
 506:Drivers/STM32F4xx_HAL_Driver/Src/stm32f4xx_hal_tim_ex.c ****   * @retval HAL status
 507:Drivers/STM32F4xx_HAL_Driver/Src/stm32f4xx_hal_tim_ex.c ****   */
 508:Drivers/STM32F4xx_HAL_Driver/Src/stm32f4xx_hal_tim_ex.c **** HAL_StatusTypeDef HAL_TIMEx_OCN_Start(TIM_HandleTypeDef *htim, uint32_t Channel)
 509:Drivers/STM32F4xx_HAL_Driver/Src/stm32f4xx_hal_tim_ex.c **** {
 966              		.loc 1 509 1
 967              		.cfi_startproc
 968              		@ args = 0, pretend = 0, frame = 16
 969              		@ frame_needed = 1, uses_anonymous_args = 0
 970 0000 80B5     		push	{r7, lr}
 971              	.LCFI52:
 972              		.cfi_def_cfa_offset 8
 973              		.cfi_offset 7, -8
 974              		.cfi_offset 14, -4
 975 0002 84B0     		sub	sp, sp, #16
 976              	.LCFI53:
 977              		.cfi_def_cfa_offset 24
 978 0004 00AF     		add	r7, sp, #0
 979              	.LCFI54:
 980              		.cfi_def_cfa_register 7
 981 0006 7860     		str	r0, [r7, #4]
 982 0008 3960     		str	r1, [r7]
 510:Drivers/STM32F4xx_HAL_Driver/Src/stm32f4xx_hal_tim_ex.c ****   uint32_t tmpsmcr;
 511:Drivers/STM32F4xx_HAL_Driver/Src/stm32f4xx_hal_tim_ex.c **** 
 512:Drivers/STM32F4xx_HAL_Driver/Src/stm32f4xx_hal_tim_ex.c ****   /* Check the parameters */
 513:Drivers/STM32F4xx_HAL_Driver/Src/stm32f4xx_hal_tim_ex.c ****   assert_param(IS_TIM_CCXN_INSTANCE(htim->Instance, Channel));
 514:Drivers/STM32F4xx_HAL_Driver/Src/stm32f4xx_hal_tim_ex.c **** 
 515:Drivers/STM32F4xx_HAL_Driver/Src/stm32f4xx_hal_tim_ex.c ****   /* Enable the Capture compare channel N */
 516:Drivers/STM32F4xx_HAL_Driver/Src/stm32f4xx_hal_tim_ex.c ****   TIM_CCxNChannelCmd(htim->Instance, Channel, TIM_CCxN_ENABLE);
 983              		.loc 1 516 3
 984 000a 7B68     		ldr	r3, [r7, #4]
 985 000c 1B68     		ldr	r3, [r3]
 986 000e 0422     		movs	r2, #4
 987 0010 3968     		ldr	r1, [r7]
ARM GAS  /tmp/ccilmNhL.s 			page 27


 988 0012 1846     		mov	r0, r3
 989 0014 FFF7FEFF 		bl	TIM_CCxNChannelCmd
 517:Drivers/STM32F4xx_HAL_Driver/Src/stm32f4xx_hal_tim_ex.c **** 
 518:Drivers/STM32F4xx_HAL_Driver/Src/stm32f4xx_hal_tim_ex.c ****   /* Enable the Main Output */
 519:Drivers/STM32F4xx_HAL_Driver/Src/stm32f4xx_hal_tim_ex.c ****   __HAL_TIM_MOE_ENABLE(htim);
 990              		.loc 1 519 3
 991 0018 7B68     		ldr	r3, [r7, #4]
 992 001a 1B68     		ldr	r3, [r3]
 993 001c 5A6C     		ldr	r2, [r3, #68]
 994 001e 7B68     		ldr	r3, [r7, #4]
 995 0020 1B68     		ldr	r3, [r3]
 996 0022 42F40042 		orr	r2, r2, #32768
 997 0026 5A64     		str	r2, [r3, #68]
 520:Drivers/STM32F4xx_HAL_Driver/Src/stm32f4xx_hal_tim_ex.c **** 
 521:Drivers/STM32F4xx_HAL_Driver/Src/stm32f4xx_hal_tim_ex.c ****   /* Enable the Peripheral, except in trigger mode where enable is automatically done with trigger 
 522:Drivers/STM32F4xx_HAL_Driver/Src/stm32f4xx_hal_tim_ex.c ****   tmpsmcr = htim->Instance->SMCR & TIM_SMCR_SMS;
 998              		.loc 1 522 17
 999 0028 7B68     		ldr	r3, [r7, #4]
 1000 002a 1B68     		ldr	r3, [r3]
 1001              		.loc 1 522 27
 1002 002c 9B68     		ldr	r3, [r3, #8]
 1003              		.loc 1 522 11
 1004 002e 03F00703 		and	r3, r3, #7
 1005 0032 FB60     		str	r3, [r7, #12]
 523:Drivers/STM32F4xx_HAL_Driver/Src/stm32f4xx_hal_tim_ex.c ****   if (!IS_TIM_SLAVEMODE_TRIGGER_ENABLED(tmpsmcr))
 1006              		.loc 1 523 6
 1007 0034 FB68     		ldr	r3, [r7, #12]
 1008 0036 062B     		cmp	r3, #6
 1009 0038 07D0     		beq	.L36
 524:Drivers/STM32F4xx_HAL_Driver/Src/stm32f4xx_hal_tim_ex.c ****   {
 525:Drivers/STM32F4xx_HAL_Driver/Src/stm32f4xx_hal_tim_ex.c ****     __HAL_TIM_ENABLE(htim);
 1010              		.loc 1 525 5
 1011 003a 7B68     		ldr	r3, [r7, #4]
 1012 003c 1B68     		ldr	r3, [r3]
 1013 003e 1A68     		ldr	r2, [r3]
 1014 0040 7B68     		ldr	r3, [r7, #4]
 1015 0042 1B68     		ldr	r3, [r3]
 1016 0044 42F00102 		orr	r2, r2, #1
 1017 0048 1A60     		str	r2, [r3]
 1018              	.L36:
 526:Drivers/STM32F4xx_HAL_Driver/Src/stm32f4xx_hal_tim_ex.c ****   }
 527:Drivers/STM32F4xx_HAL_Driver/Src/stm32f4xx_hal_tim_ex.c **** 
 528:Drivers/STM32F4xx_HAL_Driver/Src/stm32f4xx_hal_tim_ex.c ****   /* Return function status */
 529:Drivers/STM32F4xx_HAL_Driver/Src/stm32f4xx_hal_tim_ex.c ****   return HAL_OK;
 1019              		.loc 1 529 10
 1020 004a 0023     		movs	r3, #0
 530:Drivers/STM32F4xx_HAL_Driver/Src/stm32f4xx_hal_tim_ex.c **** }
 1021              		.loc 1 530 1
 1022 004c 1846     		mov	r0, r3
 1023 004e 1037     		adds	r7, r7, #16
 1024              	.LCFI55:
 1025              		.cfi_def_cfa_offset 8
 1026 0050 BD46     		mov	sp, r7
 1027              	.LCFI56:
 1028              		.cfi_def_cfa_register 13
 1029              		@ sp needed
 1030 0052 80BD     		pop	{r7, pc}
ARM GAS  /tmp/ccilmNhL.s 			page 28


 1031              		.cfi_endproc
 1032              	.LFE140:
 1034              		.section	.text.HAL_TIMEx_OCN_Stop,"ax",%progbits
 1035              		.align	1
 1036              		.global	HAL_TIMEx_OCN_Stop
 1037              		.syntax unified
 1038              		.thumb
 1039              		.thumb_func
 1040              		.fpu fpv4-sp-d16
 1042              	HAL_TIMEx_OCN_Stop:
 1043              	.LFB141:
 531:Drivers/STM32F4xx_HAL_Driver/Src/stm32f4xx_hal_tim_ex.c **** 
 532:Drivers/STM32F4xx_HAL_Driver/Src/stm32f4xx_hal_tim_ex.c **** /**
 533:Drivers/STM32F4xx_HAL_Driver/Src/stm32f4xx_hal_tim_ex.c ****   * @brief  Stops the TIM Output Compare signal generation on the complementary
 534:Drivers/STM32F4xx_HAL_Driver/Src/stm32f4xx_hal_tim_ex.c ****   *         output.
 535:Drivers/STM32F4xx_HAL_Driver/Src/stm32f4xx_hal_tim_ex.c ****   * @param  htim TIM handle
 536:Drivers/STM32F4xx_HAL_Driver/Src/stm32f4xx_hal_tim_ex.c ****   * @param  Channel TIM Channel to be disabled
 537:Drivers/STM32F4xx_HAL_Driver/Src/stm32f4xx_hal_tim_ex.c ****   *          This parameter can be one of the following values:
 538:Drivers/STM32F4xx_HAL_Driver/Src/stm32f4xx_hal_tim_ex.c ****   *            @arg TIM_CHANNEL_1: TIM Channel 1 selected
 539:Drivers/STM32F4xx_HAL_Driver/Src/stm32f4xx_hal_tim_ex.c ****   *            @arg TIM_CHANNEL_2: TIM Channel 2 selected
 540:Drivers/STM32F4xx_HAL_Driver/Src/stm32f4xx_hal_tim_ex.c ****   *            @arg TIM_CHANNEL_3: TIM Channel 3 selected
 541:Drivers/STM32F4xx_HAL_Driver/Src/stm32f4xx_hal_tim_ex.c ****   * @retval HAL status
 542:Drivers/STM32F4xx_HAL_Driver/Src/stm32f4xx_hal_tim_ex.c ****   */
 543:Drivers/STM32F4xx_HAL_Driver/Src/stm32f4xx_hal_tim_ex.c **** HAL_StatusTypeDef HAL_TIMEx_OCN_Stop(TIM_HandleTypeDef *htim, uint32_t Channel)
 544:Drivers/STM32F4xx_HAL_Driver/Src/stm32f4xx_hal_tim_ex.c **** {
 1044              		.loc 1 544 1
 1045              		.cfi_startproc
 1046              		@ args = 0, pretend = 0, frame = 8
 1047              		@ frame_needed = 1, uses_anonymous_args = 0
 1048 0000 80B5     		push	{r7, lr}
 1049              	.LCFI57:
 1050              		.cfi_def_cfa_offset 8
 1051              		.cfi_offset 7, -8
 1052              		.cfi_offset 14, -4
 1053 0002 82B0     		sub	sp, sp, #8
 1054              	.LCFI58:
 1055              		.cfi_def_cfa_offset 16
 1056 0004 00AF     		add	r7, sp, #0
 1057              	.LCFI59:
 1058              		.cfi_def_cfa_register 7
 1059 0006 7860     		str	r0, [r7, #4]
 1060 0008 3960     		str	r1, [r7]
 545:Drivers/STM32F4xx_HAL_Driver/Src/stm32f4xx_hal_tim_ex.c ****   /* Check the parameters */
 546:Drivers/STM32F4xx_HAL_Driver/Src/stm32f4xx_hal_tim_ex.c ****   assert_param(IS_TIM_CCXN_INSTANCE(htim->Instance, Channel));
 547:Drivers/STM32F4xx_HAL_Driver/Src/stm32f4xx_hal_tim_ex.c **** 
 548:Drivers/STM32F4xx_HAL_Driver/Src/stm32f4xx_hal_tim_ex.c ****   /* Disable the Capture compare channel N */
 549:Drivers/STM32F4xx_HAL_Driver/Src/stm32f4xx_hal_tim_ex.c ****   TIM_CCxNChannelCmd(htim->Instance, Channel, TIM_CCxN_DISABLE);
 1061              		.loc 1 549 3
 1062 000a 7B68     		ldr	r3, [r7, #4]
 1063 000c 1B68     		ldr	r3, [r3]
 1064 000e 0022     		movs	r2, #0
 1065 0010 3968     		ldr	r1, [r7]
 1066 0012 1846     		mov	r0, r3
 1067 0014 FFF7FEFF 		bl	TIM_CCxNChannelCmd
 550:Drivers/STM32F4xx_HAL_Driver/Src/stm32f4xx_hal_tim_ex.c **** 
 551:Drivers/STM32F4xx_HAL_Driver/Src/stm32f4xx_hal_tim_ex.c ****   /* Disable the Main Output */
 552:Drivers/STM32F4xx_HAL_Driver/Src/stm32f4xx_hal_tim_ex.c ****   __HAL_TIM_MOE_DISABLE(htim);
ARM GAS  /tmp/ccilmNhL.s 			page 29


 1068              		.loc 1 552 3
 1069 0018 7B68     		ldr	r3, [r7, #4]
 1070 001a 1B68     		ldr	r3, [r3]
 1071 001c 1A6A     		ldr	r2, [r3, #32]
 1072 001e 41F21113 		movw	r3, #4369
 1073 0022 1340     		ands	r3, r3, r2
 1074 0024 002B     		cmp	r3, #0
 1075 0026 0FD1     		bne	.L39
 1076              		.loc 1 552 3 is_stmt 0 discriminator 1
 1077 0028 7B68     		ldr	r3, [r7, #4]
 1078 002a 1B68     		ldr	r3, [r3]
 1079 002c 1A6A     		ldr	r2, [r3, #32]
 1080 002e 40F24443 		movw	r3, #1092
 1081 0032 1340     		ands	r3, r3, r2
 1082 0034 002B     		cmp	r3, #0
 1083 0036 07D1     		bne	.L39
 1084              		.loc 1 552 3 discriminator 2
 1085 0038 7B68     		ldr	r3, [r7, #4]
 1086 003a 1B68     		ldr	r3, [r3]
 1087 003c 5A6C     		ldr	r2, [r3, #68]
 1088 003e 7B68     		ldr	r3, [r7, #4]
 1089 0040 1B68     		ldr	r3, [r3]
 1090 0042 22F40042 		bic	r2, r2, #32768
 1091 0046 5A64     		str	r2, [r3, #68]
 1092              	.L39:
 553:Drivers/STM32F4xx_HAL_Driver/Src/stm32f4xx_hal_tim_ex.c **** 
 554:Drivers/STM32F4xx_HAL_Driver/Src/stm32f4xx_hal_tim_ex.c ****   /* Disable the Peripheral */
 555:Drivers/STM32F4xx_HAL_Driver/Src/stm32f4xx_hal_tim_ex.c ****   __HAL_TIM_DISABLE(htim);
 1093              		.loc 1 555 3 is_stmt 1
 1094 0048 7B68     		ldr	r3, [r7, #4]
 1095 004a 1B68     		ldr	r3, [r3]
 1096 004c 1A6A     		ldr	r2, [r3, #32]
 1097 004e 41F21113 		movw	r3, #4369
 1098 0052 1340     		ands	r3, r3, r2
 1099 0054 002B     		cmp	r3, #0
 1100 0056 0FD1     		bne	.L40
 1101              		.loc 1 555 3 is_stmt 0 discriminator 1
 1102 0058 7B68     		ldr	r3, [r7, #4]
 1103 005a 1B68     		ldr	r3, [r3]
 1104 005c 1A6A     		ldr	r2, [r3, #32]
 1105 005e 40F24443 		movw	r3, #1092
 1106 0062 1340     		ands	r3, r3, r2
 1107 0064 002B     		cmp	r3, #0
 1108 0066 07D1     		bne	.L40
 1109              		.loc 1 555 3 discriminator 2
 1110 0068 7B68     		ldr	r3, [r7, #4]
 1111 006a 1B68     		ldr	r3, [r3]
 1112 006c 1A68     		ldr	r2, [r3]
 1113 006e 7B68     		ldr	r3, [r7, #4]
 1114 0070 1B68     		ldr	r3, [r3]
 1115 0072 22F00102 		bic	r2, r2, #1
 1116 0076 1A60     		str	r2, [r3]
 1117              	.L40:
 556:Drivers/STM32F4xx_HAL_Driver/Src/stm32f4xx_hal_tim_ex.c **** 
 557:Drivers/STM32F4xx_HAL_Driver/Src/stm32f4xx_hal_tim_ex.c ****   /* Return function status */
 558:Drivers/STM32F4xx_HAL_Driver/Src/stm32f4xx_hal_tim_ex.c ****   return HAL_OK;
 1118              		.loc 1 558 10 is_stmt 1
ARM GAS  /tmp/ccilmNhL.s 			page 30


 1119 0078 0023     		movs	r3, #0
 559:Drivers/STM32F4xx_HAL_Driver/Src/stm32f4xx_hal_tim_ex.c **** }
 1120              		.loc 1 559 1
 1121 007a 1846     		mov	r0, r3
 1122 007c 0837     		adds	r7, r7, #8
 1123              	.LCFI60:
 1124              		.cfi_def_cfa_offset 8
 1125 007e BD46     		mov	sp, r7
 1126              	.LCFI61:
 1127              		.cfi_def_cfa_register 13
 1128              		@ sp needed
 1129 0080 80BD     		pop	{r7, pc}
 1130              		.cfi_endproc
 1131              	.LFE141:
 1133              		.section	.text.HAL_TIMEx_OCN_Start_IT,"ax",%progbits
 1134              		.align	1
 1135              		.global	HAL_TIMEx_OCN_Start_IT
 1136              		.syntax unified
 1137              		.thumb
 1138              		.thumb_func
 1139              		.fpu fpv4-sp-d16
 1141              	HAL_TIMEx_OCN_Start_IT:
 1142              	.LFB142:
 560:Drivers/STM32F4xx_HAL_Driver/Src/stm32f4xx_hal_tim_ex.c **** 
 561:Drivers/STM32F4xx_HAL_Driver/Src/stm32f4xx_hal_tim_ex.c **** /**
 562:Drivers/STM32F4xx_HAL_Driver/Src/stm32f4xx_hal_tim_ex.c ****   * @brief  Starts the TIM Output Compare signal generation in interrupt mode
 563:Drivers/STM32F4xx_HAL_Driver/Src/stm32f4xx_hal_tim_ex.c ****   *         on the complementary output.
 564:Drivers/STM32F4xx_HAL_Driver/Src/stm32f4xx_hal_tim_ex.c ****   * @param  htim TIM OC handle
 565:Drivers/STM32F4xx_HAL_Driver/Src/stm32f4xx_hal_tim_ex.c ****   * @param  Channel TIM Channel to be enabled
 566:Drivers/STM32F4xx_HAL_Driver/Src/stm32f4xx_hal_tim_ex.c ****   *          This parameter can be one of the following values:
 567:Drivers/STM32F4xx_HAL_Driver/Src/stm32f4xx_hal_tim_ex.c ****   *            @arg TIM_CHANNEL_1: TIM Channel 1 selected
 568:Drivers/STM32F4xx_HAL_Driver/Src/stm32f4xx_hal_tim_ex.c ****   *            @arg TIM_CHANNEL_2: TIM Channel 2 selected
 569:Drivers/STM32F4xx_HAL_Driver/Src/stm32f4xx_hal_tim_ex.c ****   *            @arg TIM_CHANNEL_3: TIM Channel 3 selected
 570:Drivers/STM32F4xx_HAL_Driver/Src/stm32f4xx_hal_tim_ex.c ****   * @retval HAL status
 571:Drivers/STM32F4xx_HAL_Driver/Src/stm32f4xx_hal_tim_ex.c ****   */
 572:Drivers/STM32F4xx_HAL_Driver/Src/stm32f4xx_hal_tim_ex.c **** HAL_StatusTypeDef HAL_TIMEx_OCN_Start_IT(TIM_HandleTypeDef *htim, uint32_t Channel)
 573:Drivers/STM32F4xx_HAL_Driver/Src/stm32f4xx_hal_tim_ex.c **** {
 1143              		.loc 1 573 1
 1144              		.cfi_startproc
 1145              		@ args = 0, pretend = 0, frame = 16
 1146              		@ frame_needed = 1, uses_anonymous_args = 0
 1147 0000 80B5     		push	{r7, lr}
 1148              	.LCFI62:
 1149              		.cfi_def_cfa_offset 8
 1150              		.cfi_offset 7, -8
 1151              		.cfi_offset 14, -4
 1152 0002 84B0     		sub	sp, sp, #16
 1153              	.LCFI63:
 1154              		.cfi_def_cfa_offset 24
 1155 0004 00AF     		add	r7, sp, #0
 1156              	.LCFI64:
 1157              		.cfi_def_cfa_register 7
 1158 0006 7860     		str	r0, [r7, #4]
 1159 0008 3960     		str	r1, [r7]
 574:Drivers/STM32F4xx_HAL_Driver/Src/stm32f4xx_hal_tim_ex.c ****   uint32_t tmpsmcr;
 575:Drivers/STM32F4xx_HAL_Driver/Src/stm32f4xx_hal_tim_ex.c **** 
 576:Drivers/STM32F4xx_HAL_Driver/Src/stm32f4xx_hal_tim_ex.c ****   /* Check the parameters */
ARM GAS  /tmp/ccilmNhL.s 			page 31


 577:Drivers/STM32F4xx_HAL_Driver/Src/stm32f4xx_hal_tim_ex.c ****   assert_param(IS_TIM_CCXN_INSTANCE(htim->Instance, Channel));
 578:Drivers/STM32F4xx_HAL_Driver/Src/stm32f4xx_hal_tim_ex.c **** 
 579:Drivers/STM32F4xx_HAL_Driver/Src/stm32f4xx_hal_tim_ex.c ****   switch (Channel)
 1160              		.loc 1 579 3
 1161 000a 3B68     		ldr	r3, [r7]
 1162 000c 042B     		cmp	r3, #4
 1163 000e 0ED0     		beq	.L43
 1164 0010 3B68     		ldr	r3, [r7]
 1165 0012 082B     		cmp	r3, #8
 1166 0014 14D0     		beq	.L44
 1167 0016 3B68     		ldr	r3, [r7]
 1168 0018 002B     		cmp	r3, #0
 1169 001a 1AD1     		bne	.L49
 580:Drivers/STM32F4xx_HAL_Driver/Src/stm32f4xx_hal_tim_ex.c ****   {
 581:Drivers/STM32F4xx_HAL_Driver/Src/stm32f4xx_hal_tim_ex.c ****     case TIM_CHANNEL_1:
 582:Drivers/STM32F4xx_HAL_Driver/Src/stm32f4xx_hal_tim_ex.c ****     {
 583:Drivers/STM32F4xx_HAL_Driver/Src/stm32f4xx_hal_tim_ex.c ****       /* Enable the TIM Output Compare interrupt */
 584:Drivers/STM32F4xx_HAL_Driver/Src/stm32f4xx_hal_tim_ex.c ****       __HAL_TIM_ENABLE_IT(htim, TIM_IT_CC1);
 1170              		.loc 1 584 7
 1171 001c 7B68     		ldr	r3, [r7, #4]
 1172 001e 1B68     		ldr	r3, [r3]
 1173 0020 DA68     		ldr	r2, [r3, #12]
 1174 0022 7B68     		ldr	r3, [r7, #4]
 1175 0024 1B68     		ldr	r3, [r3]
 1176 0026 42F00202 		orr	r2, r2, #2
 1177 002a DA60     		str	r2, [r3, #12]
 585:Drivers/STM32F4xx_HAL_Driver/Src/stm32f4xx_hal_tim_ex.c ****       break;
 1178              		.loc 1 585 7
 1179 002c 12E0     		b	.L46
 1180              	.L43:
 586:Drivers/STM32F4xx_HAL_Driver/Src/stm32f4xx_hal_tim_ex.c ****     }
 587:Drivers/STM32F4xx_HAL_Driver/Src/stm32f4xx_hal_tim_ex.c **** 
 588:Drivers/STM32F4xx_HAL_Driver/Src/stm32f4xx_hal_tim_ex.c ****     case TIM_CHANNEL_2:
 589:Drivers/STM32F4xx_HAL_Driver/Src/stm32f4xx_hal_tim_ex.c ****     {
 590:Drivers/STM32F4xx_HAL_Driver/Src/stm32f4xx_hal_tim_ex.c ****       /* Enable the TIM Output Compare interrupt */
 591:Drivers/STM32F4xx_HAL_Driver/Src/stm32f4xx_hal_tim_ex.c ****       __HAL_TIM_ENABLE_IT(htim, TIM_IT_CC2);
 1181              		.loc 1 591 7
 1182 002e 7B68     		ldr	r3, [r7, #4]
 1183 0030 1B68     		ldr	r3, [r3]
 1184 0032 DA68     		ldr	r2, [r3, #12]
 1185 0034 7B68     		ldr	r3, [r7, #4]
 1186 0036 1B68     		ldr	r3, [r3]
 1187 0038 42F00402 		orr	r2, r2, #4
 1188 003c DA60     		str	r2, [r3, #12]
 592:Drivers/STM32F4xx_HAL_Driver/Src/stm32f4xx_hal_tim_ex.c ****       break;
 1189              		.loc 1 592 7
 1190 003e 09E0     		b	.L46
 1191              	.L44:
 593:Drivers/STM32F4xx_HAL_Driver/Src/stm32f4xx_hal_tim_ex.c ****     }
 594:Drivers/STM32F4xx_HAL_Driver/Src/stm32f4xx_hal_tim_ex.c **** 
 595:Drivers/STM32F4xx_HAL_Driver/Src/stm32f4xx_hal_tim_ex.c ****     case TIM_CHANNEL_3:
 596:Drivers/STM32F4xx_HAL_Driver/Src/stm32f4xx_hal_tim_ex.c ****     {
 597:Drivers/STM32F4xx_HAL_Driver/Src/stm32f4xx_hal_tim_ex.c ****       /* Enable the TIM Output Compare interrupt */
 598:Drivers/STM32F4xx_HAL_Driver/Src/stm32f4xx_hal_tim_ex.c ****       __HAL_TIM_ENABLE_IT(htim, TIM_IT_CC3);
 1192              		.loc 1 598 7
 1193 0040 7B68     		ldr	r3, [r7, #4]
 1194 0042 1B68     		ldr	r3, [r3]
ARM GAS  /tmp/ccilmNhL.s 			page 32


 1195 0044 DA68     		ldr	r2, [r3, #12]
 1196 0046 7B68     		ldr	r3, [r7, #4]
 1197 0048 1B68     		ldr	r3, [r3]
 1198 004a 42F00802 		orr	r2, r2, #8
 1199 004e DA60     		str	r2, [r3, #12]
 599:Drivers/STM32F4xx_HAL_Driver/Src/stm32f4xx_hal_tim_ex.c ****       break;
 1200              		.loc 1 599 7
 1201 0050 00E0     		b	.L46
 1202              	.L49:
 600:Drivers/STM32F4xx_HAL_Driver/Src/stm32f4xx_hal_tim_ex.c ****     }
 601:Drivers/STM32F4xx_HAL_Driver/Src/stm32f4xx_hal_tim_ex.c **** 
 602:Drivers/STM32F4xx_HAL_Driver/Src/stm32f4xx_hal_tim_ex.c **** 
 603:Drivers/STM32F4xx_HAL_Driver/Src/stm32f4xx_hal_tim_ex.c ****     default:
 604:Drivers/STM32F4xx_HAL_Driver/Src/stm32f4xx_hal_tim_ex.c ****       break;
 1203              		.loc 1 604 7
 1204 0052 00BF     		nop
 1205              	.L46:
 605:Drivers/STM32F4xx_HAL_Driver/Src/stm32f4xx_hal_tim_ex.c ****   }
 606:Drivers/STM32F4xx_HAL_Driver/Src/stm32f4xx_hal_tim_ex.c **** 
 607:Drivers/STM32F4xx_HAL_Driver/Src/stm32f4xx_hal_tim_ex.c ****   /* Enable the TIM Break interrupt */
 608:Drivers/STM32F4xx_HAL_Driver/Src/stm32f4xx_hal_tim_ex.c ****   __HAL_TIM_ENABLE_IT(htim, TIM_IT_BREAK);
 1206              		.loc 1 608 3
 1207 0054 7B68     		ldr	r3, [r7, #4]
 1208 0056 1B68     		ldr	r3, [r3]
 1209 0058 DA68     		ldr	r2, [r3, #12]
 1210 005a 7B68     		ldr	r3, [r7, #4]
 1211 005c 1B68     		ldr	r3, [r3]
 1212 005e 42F08002 		orr	r2, r2, #128
 1213 0062 DA60     		str	r2, [r3, #12]
 609:Drivers/STM32F4xx_HAL_Driver/Src/stm32f4xx_hal_tim_ex.c **** 
 610:Drivers/STM32F4xx_HAL_Driver/Src/stm32f4xx_hal_tim_ex.c ****   /* Enable the Capture compare channel N */
 611:Drivers/STM32F4xx_HAL_Driver/Src/stm32f4xx_hal_tim_ex.c ****   TIM_CCxNChannelCmd(htim->Instance, Channel, TIM_CCxN_ENABLE);
 1214              		.loc 1 611 3
 1215 0064 7B68     		ldr	r3, [r7, #4]
 1216 0066 1B68     		ldr	r3, [r3]
 1217 0068 0422     		movs	r2, #4
 1218 006a 3968     		ldr	r1, [r7]
 1219 006c 1846     		mov	r0, r3
 1220 006e FFF7FEFF 		bl	TIM_CCxNChannelCmd
 612:Drivers/STM32F4xx_HAL_Driver/Src/stm32f4xx_hal_tim_ex.c **** 
 613:Drivers/STM32F4xx_HAL_Driver/Src/stm32f4xx_hal_tim_ex.c ****   /* Enable the Main Output */
 614:Drivers/STM32F4xx_HAL_Driver/Src/stm32f4xx_hal_tim_ex.c ****   __HAL_TIM_MOE_ENABLE(htim);
 1221              		.loc 1 614 3
 1222 0072 7B68     		ldr	r3, [r7, #4]
 1223 0074 1B68     		ldr	r3, [r3]
 1224 0076 5A6C     		ldr	r2, [r3, #68]
 1225 0078 7B68     		ldr	r3, [r7, #4]
 1226 007a 1B68     		ldr	r3, [r3]
 1227 007c 42F40042 		orr	r2, r2, #32768
 1228 0080 5A64     		str	r2, [r3, #68]
 615:Drivers/STM32F4xx_HAL_Driver/Src/stm32f4xx_hal_tim_ex.c **** 
 616:Drivers/STM32F4xx_HAL_Driver/Src/stm32f4xx_hal_tim_ex.c ****   /* Enable the Peripheral, except in trigger mode where enable is automatically done with trigger 
 617:Drivers/STM32F4xx_HAL_Driver/Src/stm32f4xx_hal_tim_ex.c ****   tmpsmcr = htim->Instance->SMCR & TIM_SMCR_SMS;
 1229              		.loc 1 617 17
 1230 0082 7B68     		ldr	r3, [r7, #4]
 1231 0084 1B68     		ldr	r3, [r3]
 1232              		.loc 1 617 27
ARM GAS  /tmp/ccilmNhL.s 			page 33


 1233 0086 9B68     		ldr	r3, [r3, #8]
 1234              		.loc 1 617 11
 1235 0088 03F00703 		and	r3, r3, #7
 1236 008c FB60     		str	r3, [r7, #12]
 618:Drivers/STM32F4xx_HAL_Driver/Src/stm32f4xx_hal_tim_ex.c ****   if (!IS_TIM_SLAVEMODE_TRIGGER_ENABLED(tmpsmcr))
 1237              		.loc 1 618 6
 1238 008e FB68     		ldr	r3, [r7, #12]
 1239 0090 062B     		cmp	r3, #6
 1240 0092 07D0     		beq	.L47
 619:Drivers/STM32F4xx_HAL_Driver/Src/stm32f4xx_hal_tim_ex.c ****   {
 620:Drivers/STM32F4xx_HAL_Driver/Src/stm32f4xx_hal_tim_ex.c ****     __HAL_TIM_ENABLE(htim);
 1241              		.loc 1 620 5
 1242 0094 7B68     		ldr	r3, [r7, #4]
 1243 0096 1B68     		ldr	r3, [r3]
 1244 0098 1A68     		ldr	r2, [r3]
 1245 009a 7B68     		ldr	r3, [r7, #4]
 1246 009c 1B68     		ldr	r3, [r3]
 1247 009e 42F00102 		orr	r2, r2, #1
 1248 00a2 1A60     		str	r2, [r3]
 1249              	.L47:
 621:Drivers/STM32F4xx_HAL_Driver/Src/stm32f4xx_hal_tim_ex.c ****   }
 622:Drivers/STM32F4xx_HAL_Driver/Src/stm32f4xx_hal_tim_ex.c **** 
 623:Drivers/STM32F4xx_HAL_Driver/Src/stm32f4xx_hal_tim_ex.c ****   /* Return function status */
 624:Drivers/STM32F4xx_HAL_Driver/Src/stm32f4xx_hal_tim_ex.c ****   return HAL_OK;
 1250              		.loc 1 624 10
 1251 00a4 0023     		movs	r3, #0
 625:Drivers/STM32F4xx_HAL_Driver/Src/stm32f4xx_hal_tim_ex.c **** }
 1252              		.loc 1 625 1
 1253 00a6 1846     		mov	r0, r3
 1254 00a8 1037     		adds	r7, r7, #16
 1255              	.LCFI65:
 1256              		.cfi_def_cfa_offset 8
 1257 00aa BD46     		mov	sp, r7
 1258              	.LCFI66:
 1259              		.cfi_def_cfa_register 13
 1260              		@ sp needed
 1261 00ac 80BD     		pop	{r7, pc}
 1262              		.cfi_endproc
 1263              	.LFE142:
 1265              		.section	.text.HAL_TIMEx_OCN_Stop_IT,"ax",%progbits
 1266              		.align	1
 1267              		.global	HAL_TIMEx_OCN_Stop_IT
 1268              		.syntax unified
 1269              		.thumb
 1270              		.thumb_func
 1271              		.fpu fpv4-sp-d16
 1273              	HAL_TIMEx_OCN_Stop_IT:
 1274              	.LFB143:
 626:Drivers/STM32F4xx_HAL_Driver/Src/stm32f4xx_hal_tim_ex.c **** 
 627:Drivers/STM32F4xx_HAL_Driver/Src/stm32f4xx_hal_tim_ex.c **** /**
 628:Drivers/STM32F4xx_HAL_Driver/Src/stm32f4xx_hal_tim_ex.c ****   * @brief  Stops the TIM Output Compare signal generation in interrupt mode
 629:Drivers/STM32F4xx_HAL_Driver/Src/stm32f4xx_hal_tim_ex.c ****   *         on the complementary output.
 630:Drivers/STM32F4xx_HAL_Driver/Src/stm32f4xx_hal_tim_ex.c ****   * @param  htim TIM Output Compare handle
 631:Drivers/STM32F4xx_HAL_Driver/Src/stm32f4xx_hal_tim_ex.c ****   * @param  Channel TIM Channel to be disabled
 632:Drivers/STM32F4xx_HAL_Driver/Src/stm32f4xx_hal_tim_ex.c ****   *          This parameter can be one of the following values:
 633:Drivers/STM32F4xx_HAL_Driver/Src/stm32f4xx_hal_tim_ex.c ****   *            @arg TIM_CHANNEL_1: TIM Channel 1 selected
 634:Drivers/STM32F4xx_HAL_Driver/Src/stm32f4xx_hal_tim_ex.c ****   *            @arg TIM_CHANNEL_2: TIM Channel 2 selected
ARM GAS  /tmp/ccilmNhL.s 			page 34


 635:Drivers/STM32F4xx_HAL_Driver/Src/stm32f4xx_hal_tim_ex.c ****   *            @arg TIM_CHANNEL_3: TIM Channel 3 selected
 636:Drivers/STM32F4xx_HAL_Driver/Src/stm32f4xx_hal_tim_ex.c ****   * @retval HAL status
 637:Drivers/STM32F4xx_HAL_Driver/Src/stm32f4xx_hal_tim_ex.c ****   */
 638:Drivers/STM32F4xx_HAL_Driver/Src/stm32f4xx_hal_tim_ex.c **** HAL_StatusTypeDef HAL_TIMEx_OCN_Stop_IT(TIM_HandleTypeDef *htim, uint32_t Channel)
 639:Drivers/STM32F4xx_HAL_Driver/Src/stm32f4xx_hal_tim_ex.c **** {
 1275              		.loc 1 639 1
 1276              		.cfi_startproc
 1277              		@ args = 0, pretend = 0, frame = 16
 1278              		@ frame_needed = 1, uses_anonymous_args = 0
 1279 0000 80B5     		push	{r7, lr}
 1280              	.LCFI67:
 1281              		.cfi_def_cfa_offset 8
 1282              		.cfi_offset 7, -8
 1283              		.cfi_offset 14, -4
 1284 0002 84B0     		sub	sp, sp, #16
 1285              	.LCFI68:
 1286              		.cfi_def_cfa_offset 24
 1287 0004 00AF     		add	r7, sp, #0
 1288              	.LCFI69:
 1289              		.cfi_def_cfa_register 7
 1290 0006 7860     		str	r0, [r7, #4]
 1291 0008 3960     		str	r1, [r7]
 640:Drivers/STM32F4xx_HAL_Driver/Src/stm32f4xx_hal_tim_ex.c ****   uint32_t tmpccer;
 641:Drivers/STM32F4xx_HAL_Driver/Src/stm32f4xx_hal_tim_ex.c ****   /* Check the parameters */
 642:Drivers/STM32F4xx_HAL_Driver/Src/stm32f4xx_hal_tim_ex.c ****   assert_param(IS_TIM_CCXN_INSTANCE(htim->Instance, Channel));
 643:Drivers/STM32F4xx_HAL_Driver/Src/stm32f4xx_hal_tim_ex.c **** 
 644:Drivers/STM32F4xx_HAL_Driver/Src/stm32f4xx_hal_tim_ex.c ****   switch (Channel)
 1292              		.loc 1 644 3
 1293 000a 3B68     		ldr	r3, [r7]
 1294 000c 042B     		cmp	r3, #4
 1295 000e 0ED0     		beq	.L51
 1296 0010 3B68     		ldr	r3, [r7]
 1297 0012 082B     		cmp	r3, #8
 1298 0014 14D0     		beq	.L52
 1299 0016 3B68     		ldr	r3, [r7]
 1300 0018 002B     		cmp	r3, #0
 1301 001a 1AD1     		bne	.L59
 645:Drivers/STM32F4xx_HAL_Driver/Src/stm32f4xx_hal_tim_ex.c ****   {
 646:Drivers/STM32F4xx_HAL_Driver/Src/stm32f4xx_hal_tim_ex.c ****     case TIM_CHANNEL_1:
 647:Drivers/STM32F4xx_HAL_Driver/Src/stm32f4xx_hal_tim_ex.c ****     {
 648:Drivers/STM32F4xx_HAL_Driver/Src/stm32f4xx_hal_tim_ex.c ****       /* Disable the TIM Output Compare interrupt */
 649:Drivers/STM32F4xx_HAL_Driver/Src/stm32f4xx_hal_tim_ex.c ****       __HAL_TIM_DISABLE_IT(htim, TIM_IT_CC1);
 1302              		.loc 1 649 7
 1303 001c 7B68     		ldr	r3, [r7, #4]
 1304 001e 1B68     		ldr	r3, [r3]
 1305 0020 DA68     		ldr	r2, [r3, #12]
 1306 0022 7B68     		ldr	r3, [r7, #4]
 1307 0024 1B68     		ldr	r3, [r3]
 1308 0026 22F00202 		bic	r2, r2, #2
 1309 002a DA60     		str	r2, [r3, #12]
 650:Drivers/STM32F4xx_HAL_Driver/Src/stm32f4xx_hal_tim_ex.c ****       break;
 1310              		.loc 1 650 7
 1311 002c 12E0     		b	.L54
 1312              	.L51:
 651:Drivers/STM32F4xx_HAL_Driver/Src/stm32f4xx_hal_tim_ex.c ****     }
 652:Drivers/STM32F4xx_HAL_Driver/Src/stm32f4xx_hal_tim_ex.c **** 
 653:Drivers/STM32F4xx_HAL_Driver/Src/stm32f4xx_hal_tim_ex.c ****     case TIM_CHANNEL_2:
ARM GAS  /tmp/ccilmNhL.s 			page 35


 654:Drivers/STM32F4xx_HAL_Driver/Src/stm32f4xx_hal_tim_ex.c ****     {
 655:Drivers/STM32F4xx_HAL_Driver/Src/stm32f4xx_hal_tim_ex.c ****       /* Disable the TIM Output Compare interrupt */
 656:Drivers/STM32F4xx_HAL_Driver/Src/stm32f4xx_hal_tim_ex.c ****       __HAL_TIM_DISABLE_IT(htim, TIM_IT_CC2);
 1313              		.loc 1 656 7
 1314 002e 7B68     		ldr	r3, [r7, #4]
 1315 0030 1B68     		ldr	r3, [r3]
 1316 0032 DA68     		ldr	r2, [r3, #12]
 1317 0034 7B68     		ldr	r3, [r7, #4]
 1318 0036 1B68     		ldr	r3, [r3]
 1319 0038 22F00402 		bic	r2, r2, #4
 1320 003c DA60     		str	r2, [r3, #12]
 657:Drivers/STM32F4xx_HAL_Driver/Src/stm32f4xx_hal_tim_ex.c ****       break;
 1321              		.loc 1 657 7
 1322 003e 09E0     		b	.L54
 1323              	.L52:
 658:Drivers/STM32F4xx_HAL_Driver/Src/stm32f4xx_hal_tim_ex.c ****     }
 659:Drivers/STM32F4xx_HAL_Driver/Src/stm32f4xx_hal_tim_ex.c **** 
 660:Drivers/STM32F4xx_HAL_Driver/Src/stm32f4xx_hal_tim_ex.c ****     case TIM_CHANNEL_3:
 661:Drivers/STM32F4xx_HAL_Driver/Src/stm32f4xx_hal_tim_ex.c ****     {
 662:Drivers/STM32F4xx_HAL_Driver/Src/stm32f4xx_hal_tim_ex.c ****       /* Disable the TIM Output Compare interrupt */
 663:Drivers/STM32F4xx_HAL_Driver/Src/stm32f4xx_hal_tim_ex.c ****       __HAL_TIM_DISABLE_IT(htim, TIM_IT_CC3);
 1324              		.loc 1 663 7
 1325 0040 7B68     		ldr	r3, [r7, #4]
 1326 0042 1B68     		ldr	r3, [r3]
 1327 0044 DA68     		ldr	r2, [r3, #12]
 1328 0046 7B68     		ldr	r3, [r7, #4]
 1329 0048 1B68     		ldr	r3, [r3]
 1330 004a 22F00802 		bic	r2, r2, #8
 1331 004e DA60     		str	r2, [r3, #12]
 664:Drivers/STM32F4xx_HAL_Driver/Src/stm32f4xx_hal_tim_ex.c ****       break;
 1332              		.loc 1 664 7
 1333 0050 00E0     		b	.L54
 1334              	.L59:
 665:Drivers/STM32F4xx_HAL_Driver/Src/stm32f4xx_hal_tim_ex.c ****     }
 666:Drivers/STM32F4xx_HAL_Driver/Src/stm32f4xx_hal_tim_ex.c **** 
 667:Drivers/STM32F4xx_HAL_Driver/Src/stm32f4xx_hal_tim_ex.c ****     default:
 668:Drivers/STM32F4xx_HAL_Driver/Src/stm32f4xx_hal_tim_ex.c ****       break;
 1335              		.loc 1 668 7
 1336 0052 00BF     		nop
 1337              	.L54:
 669:Drivers/STM32F4xx_HAL_Driver/Src/stm32f4xx_hal_tim_ex.c ****   }
 670:Drivers/STM32F4xx_HAL_Driver/Src/stm32f4xx_hal_tim_ex.c **** 
 671:Drivers/STM32F4xx_HAL_Driver/Src/stm32f4xx_hal_tim_ex.c ****   /* Disable the Capture compare channel N */
 672:Drivers/STM32F4xx_HAL_Driver/Src/stm32f4xx_hal_tim_ex.c ****   TIM_CCxNChannelCmd(htim->Instance, Channel, TIM_CCxN_DISABLE);
 1338              		.loc 1 672 3
 1339 0054 7B68     		ldr	r3, [r7, #4]
 1340 0056 1B68     		ldr	r3, [r3]
 1341 0058 0022     		movs	r2, #0
 1342 005a 3968     		ldr	r1, [r7]
 1343 005c 1846     		mov	r0, r3
 1344 005e FFF7FEFF 		bl	TIM_CCxNChannelCmd
 673:Drivers/STM32F4xx_HAL_Driver/Src/stm32f4xx_hal_tim_ex.c **** 
 674:Drivers/STM32F4xx_HAL_Driver/Src/stm32f4xx_hal_tim_ex.c ****   /* Disable the TIM Break interrupt (only if no more channel is active) */
 675:Drivers/STM32F4xx_HAL_Driver/Src/stm32f4xx_hal_tim_ex.c ****   tmpccer = htim->Instance->CCER;
 1345              		.loc 1 675 17
 1346 0062 7B68     		ldr	r3, [r7, #4]
 1347 0064 1B68     		ldr	r3, [r3]
ARM GAS  /tmp/ccilmNhL.s 			page 36


 1348              		.loc 1 675 11
 1349 0066 1B6A     		ldr	r3, [r3, #32]
 1350 0068 FB60     		str	r3, [r7, #12]
 676:Drivers/STM32F4xx_HAL_Driver/Src/stm32f4xx_hal_tim_ex.c ****   if ((tmpccer & (TIM_CCER_CC1NE | TIM_CCER_CC2NE | TIM_CCER_CC3NE)) == (uint32_t)RESET)
 1351              		.loc 1 676 16
 1352 006a FA68     		ldr	r2, [r7, #12]
 1353 006c 40F24443 		movw	r3, #1092
 1354 0070 1340     		ands	r3, r3, r2
 1355              		.loc 1 676 6
 1356 0072 002B     		cmp	r3, #0
 1357 0074 07D1     		bne	.L55
 677:Drivers/STM32F4xx_HAL_Driver/Src/stm32f4xx_hal_tim_ex.c ****   {
 678:Drivers/STM32F4xx_HAL_Driver/Src/stm32f4xx_hal_tim_ex.c ****     __HAL_TIM_DISABLE_IT(htim, TIM_IT_BREAK);
 1358              		.loc 1 678 5
 1359 0076 7B68     		ldr	r3, [r7, #4]
 1360 0078 1B68     		ldr	r3, [r3]
 1361 007a DA68     		ldr	r2, [r3, #12]
 1362 007c 7B68     		ldr	r3, [r7, #4]
 1363 007e 1B68     		ldr	r3, [r3]
 1364 0080 22F08002 		bic	r2, r2, #128
 1365 0084 DA60     		str	r2, [r3, #12]
 1366              	.L55:
 679:Drivers/STM32F4xx_HAL_Driver/Src/stm32f4xx_hal_tim_ex.c ****   }
 680:Drivers/STM32F4xx_HAL_Driver/Src/stm32f4xx_hal_tim_ex.c **** 
 681:Drivers/STM32F4xx_HAL_Driver/Src/stm32f4xx_hal_tim_ex.c ****   /* Disable the Main Output */
 682:Drivers/STM32F4xx_HAL_Driver/Src/stm32f4xx_hal_tim_ex.c ****   __HAL_TIM_MOE_DISABLE(htim);
 1367              		.loc 1 682 3
 1368 0086 7B68     		ldr	r3, [r7, #4]
 1369 0088 1B68     		ldr	r3, [r3]
 1370 008a 1A6A     		ldr	r2, [r3, #32]
 1371 008c 41F21113 		movw	r3, #4369
 1372 0090 1340     		ands	r3, r3, r2
 1373 0092 002B     		cmp	r3, #0
 1374 0094 0FD1     		bne	.L56
 1375              		.loc 1 682 3 is_stmt 0 discriminator 1
 1376 0096 7B68     		ldr	r3, [r7, #4]
 1377 0098 1B68     		ldr	r3, [r3]
 1378 009a 1A6A     		ldr	r2, [r3, #32]
 1379 009c 40F24443 		movw	r3, #1092
 1380 00a0 1340     		ands	r3, r3, r2
 1381 00a2 002B     		cmp	r3, #0
 1382 00a4 07D1     		bne	.L56
 1383              		.loc 1 682 3 discriminator 2
 1384 00a6 7B68     		ldr	r3, [r7, #4]
 1385 00a8 1B68     		ldr	r3, [r3]
 1386 00aa 5A6C     		ldr	r2, [r3, #68]
 1387 00ac 7B68     		ldr	r3, [r7, #4]
 1388 00ae 1B68     		ldr	r3, [r3]
 1389 00b0 22F40042 		bic	r2, r2, #32768
 1390 00b4 5A64     		str	r2, [r3, #68]
 1391              	.L56:
 683:Drivers/STM32F4xx_HAL_Driver/Src/stm32f4xx_hal_tim_ex.c **** 
 684:Drivers/STM32F4xx_HAL_Driver/Src/stm32f4xx_hal_tim_ex.c ****   /* Disable the Peripheral */
 685:Drivers/STM32F4xx_HAL_Driver/Src/stm32f4xx_hal_tim_ex.c ****   __HAL_TIM_DISABLE(htim);
 1392              		.loc 1 685 3 is_stmt 1
 1393 00b6 7B68     		ldr	r3, [r7, #4]
 1394 00b8 1B68     		ldr	r3, [r3]
ARM GAS  /tmp/ccilmNhL.s 			page 37


 1395 00ba 1A6A     		ldr	r2, [r3, #32]
 1396 00bc 41F21113 		movw	r3, #4369
 1397 00c0 1340     		ands	r3, r3, r2
 1398 00c2 002B     		cmp	r3, #0
 1399 00c4 0FD1     		bne	.L57
 1400              		.loc 1 685 3 is_stmt 0 discriminator 1
 1401 00c6 7B68     		ldr	r3, [r7, #4]
 1402 00c8 1B68     		ldr	r3, [r3]
 1403 00ca 1A6A     		ldr	r2, [r3, #32]
 1404 00cc 40F24443 		movw	r3, #1092
 1405 00d0 1340     		ands	r3, r3, r2
 1406 00d2 002B     		cmp	r3, #0
 1407 00d4 07D1     		bne	.L57
 1408              		.loc 1 685 3 discriminator 2
 1409 00d6 7B68     		ldr	r3, [r7, #4]
 1410 00d8 1B68     		ldr	r3, [r3]
 1411 00da 1A68     		ldr	r2, [r3]
 1412 00dc 7B68     		ldr	r3, [r7, #4]
 1413 00de 1B68     		ldr	r3, [r3]
 1414 00e0 22F00102 		bic	r2, r2, #1
 1415 00e4 1A60     		str	r2, [r3]
 1416              	.L57:
 686:Drivers/STM32F4xx_HAL_Driver/Src/stm32f4xx_hal_tim_ex.c **** 
 687:Drivers/STM32F4xx_HAL_Driver/Src/stm32f4xx_hal_tim_ex.c ****   /* Return function status */
 688:Drivers/STM32F4xx_HAL_Driver/Src/stm32f4xx_hal_tim_ex.c ****   return HAL_OK;
 1417              		.loc 1 688 10 is_stmt 1
 1418 00e6 0023     		movs	r3, #0
 689:Drivers/STM32F4xx_HAL_Driver/Src/stm32f4xx_hal_tim_ex.c **** }
 1419              		.loc 1 689 1
 1420 00e8 1846     		mov	r0, r3
 1421 00ea 1037     		adds	r7, r7, #16
 1422              	.LCFI70:
 1423              		.cfi_def_cfa_offset 8
 1424 00ec BD46     		mov	sp, r7
 1425              	.LCFI71:
 1426              		.cfi_def_cfa_register 13
 1427              		@ sp needed
 1428 00ee 80BD     		pop	{r7, pc}
 1429              		.cfi_endproc
 1430              	.LFE143:
 1432              		.section	.text.HAL_TIMEx_OCN_Start_DMA,"ax",%progbits
 1433              		.align	1
 1434              		.global	HAL_TIMEx_OCN_Start_DMA
 1435              		.syntax unified
 1436              		.thumb
 1437              		.thumb_func
 1438              		.fpu fpv4-sp-d16
 1440              	HAL_TIMEx_OCN_Start_DMA:
 1441              	.LFB144:
 690:Drivers/STM32F4xx_HAL_Driver/Src/stm32f4xx_hal_tim_ex.c **** 
 691:Drivers/STM32F4xx_HAL_Driver/Src/stm32f4xx_hal_tim_ex.c **** /**
 692:Drivers/STM32F4xx_HAL_Driver/Src/stm32f4xx_hal_tim_ex.c ****   * @brief  Starts the TIM Output Compare signal generation in DMA mode
 693:Drivers/STM32F4xx_HAL_Driver/Src/stm32f4xx_hal_tim_ex.c ****   *         on the complementary output.
 694:Drivers/STM32F4xx_HAL_Driver/Src/stm32f4xx_hal_tim_ex.c ****   * @param  htim TIM Output Compare handle
 695:Drivers/STM32F4xx_HAL_Driver/Src/stm32f4xx_hal_tim_ex.c ****   * @param  Channel TIM Channel to be enabled
 696:Drivers/STM32F4xx_HAL_Driver/Src/stm32f4xx_hal_tim_ex.c ****   *          This parameter can be one of the following values:
 697:Drivers/STM32F4xx_HAL_Driver/Src/stm32f4xx_hal_tim_ex.c ****   *            @arg TIM_CHANNEL_1: TIM Channel 1 selected
ARM GAS  /tmp/ccilmNhL.s 			page 38


 698:Drivers/STM32F4xx_HAL_Driver/Src/stm32f4xx_hal_tim_ex.c ****   *            @arg TIM_CHANNEL_2: TIM Channel 2 selected
 699:Drivers/STM32F4xx_HAL_Driver/Src/stm32f4xx_hal_tim_ex.c ****   *            @arg TIM_CHANNEL_3: TIM Channel 3 selected
 700:Drivers/STM32F4xx_HAL_Driver/Src/stm32f4xx_hal_tim_ex.c ****   * @param  pData The source Buffer address.
 701:Drivers/STM32F4xx_HAL_Driver/Src/stm32f4xx_hal_tim_ex.c ****   * @param  Length The length of data to be transferred from memory to TIM peripheral
 702:Drivers/STM32F4xx_HAL_Driver/Src/stm32f4xx_hal_tim_ex.c ****   * @retval HAL status
 703:Drivers/STM32F4xx_HAL_Driver/Src/stm32f4xx_hal_tim_ex.c ****   */
 704:Drivers/STM32F4xx_HAL_Driver/Src/stm32f4xx_hal_tim_ex.c **** HAL_StatusTypeDef HAL_TIMEx_OCN_Start_DMA(TIM_HandleTypeDef *htim, uint32_t Channel, uint32_t *pDat
 705:Drivers/STM32F4xx_HAL_Driver/Src/stm32f4xx_hal_tim_ex.c **** {
 1442              		.loc 1 705 1
 1443              		.cfi_startproc
 1444              		@ args = 0, pretend = 0, frame = 24
 1445              		@ frame_needed = 1, uses_anonymous_args = 0
 1446 0000 80B5     		push	{r7, lr}
 1447              	.LCFI72:
 1448              		.cfi_def_cfa_offset 8
 1449              		.cfi_offset 7, -8
 1450              		.cfi_offset 14, -4
 1451 0002 86B0     		sub	sp, sp, #24
 1452              	.LCFI73:
 1453              		.cfi_def_cfa_offset 32
 1454 0004 00AF     		add	r7, sp, #0
 1455              	.LCFI74:
 1456              		.cfi_def_cfa_register 7
 1457 0006 F860     		str	r0, [r7, #12]
 1458 0008 B960     		str	r1, [r7, #8]
 1459 000a 7A60     		str	r2, [r7, #4]
 1460 000c 7B80     		strh	r3, [r7, #2]	@ movhi
 706:Drivers/STM32F4xx_HAL_Driver/Src/stm32f4xx_hal_tim_ex.c ****   uint32_t tmpsmcr;
 707:Drivers/STM32F4xx_HAL_Driver/Src/stm32f4xx_hal_tim_ex.c **** 
 708:Drivers/STM32F4xx_HAL_Driver/Src/stm32f4xx_hal_tim_ex.c ****   /* Check the parameters */
 709:Drivers/STM32F4xx_HAL_Driver/Src/stm32f4xx_hal_tim_ex.c ****   assert_param(IS_TIM_CCXN_INSTANCE(htim->Instance, Channel));
 710:Drivers/STM32F4xx_HAL_Driver/Src/stm32f4xx_hal_tim_ex.c **** 
 711:Drivers/STM32F4xx_HAL_Driver/Src/stm32f4xx_hal_tim_ex.c ****   if (htim->State == HAL_TIM_STATE_BUSY)
 1461              		.loc 1 711 11
 1462 000e FB68     		ldr	r3, [r7, #12]
 1463 0010 93F83D30 		ldrb	r3, [r3, #61]
 1464 0014 DBB2     		uxtb	r3, r3
 1465              		.loc 1 711 6
 1466 0016 022B     		cmp	r3, #2
 1467 0018 01D1     		bne	.L61
 712:Drivers/STM32F4xx_HAL_Driver/Src/stm32f4xx_hal_tim_ex.c ****   {
 713:Drivers/STM32F4xx_HAL_Driver/Src/stm32f4xx_hal_tim_ex.c ****     return HAL_BUSY;
 1468              		.loc 1 713 12
 1469 001a 0223     		movs	r3, #2
 1470 001c A8E0     		b	.L62
 1471              	.L61:
 714:Drivers/STM32F4xx_HAL_Driver/Src/stm32f4xx_hal_tim_ex.c ****   }
 715:Drivers/STM32F4xx_HAL_Driver/Src/stm32f4xx_hal_tim_ex.c ****   else if (htim->State == HAL_TIM_STATE_READY)
 1472              		.loc 1 715 16
 1473 001e FB68     		ldr	r3, [r7, #12]
 1474 0020 93F83D30 		ldrb	r3, [r3, #61]
 1475 0024 DBB2     		uxtb	r3, r3
 1476              		.loc 1 715 11
 1477 0026 012B     		cmp	r3, #1
 1478 0028 0BD1     		bne	.L63
 716:Drivers/STM32F4xx_HAL_Driver/Src/stm32f4xx_hal_tim_ex.c ****   {
 717:Drivers/STM32F4xx_HAL_Driver/Src/stm32f4xx_hal_tim_ex.c ****     if (((uint32_t)pData == 0U) && (Length > 0U))
ARM GAS  /tmp/ccilmNhL.s 			page 39


 1479              		.loc 1 717 8
 1480 002a 7B68     		ldr	r3, [r7, #4]
 1481 002c 002B     		cmp	r3, #0
 1482 002e 04D1     		bne	.L64
 1483              		.loc 1 717 33 discriminator 1
 1484 0030 7B88     		ldrh	r3, [r7, #2]
 1485 0032 002B     		cmp	r3, #0
 1486 0034 01D0     		beq	.L64
 718:Drivers/STM32F4xx_HAL_Driver/Src/stm32f4xx_hal_tim_ex.c ****     {
 719:Drivers/STM32F4xx_HAL_Driver/Src/stm32f4xx_hal_tim_ex.c ****       return HAL_ERROR;
 1487              		.loc 1 719 14
 1488 0036 0123     		movs	r3, #1
 1489 0038 9AE0     		b	.L62
 1490              	.L64:
 720:Drivers/STM32F4xx_HAL_Driver/Src/stm32f4xx_hal_tim_ex.c ****     }
 721:Drivers/STM32F4xx_HAL_Driver/Src/stm32f4xx_hal_tim_ex.c ****     else
 722:Drivers/STM32F4xx_HAL_Driver/Src/stm32f4xx_hal_tim_ex.c ****     {
 723:Drivers/STM32F4xx_HAL_Driver/Src/stm32f4xx_hal_tim_ex.c ****       htim->State = HAL_TIM_STATE_BUSY;
 1491              		.loc 1 723 19
 1492 003a FB68     		ldr	r3, [r7, #12]
 1493 003c 0222     		movs	r2, #2
 1494 003e 83F83D20 		strb	r2, [r3, #61]
 1495              	.L63:
 724:Drivers/STM32F4xx_HAL_Driver/Src/stm32f4xx_hal_tim_ex.c ****     }
 725:Drivers/STM32F4xx_HAL_Driver/Src/stm32f4xx_hal_tim_ex.c ****   }
 726:Drivers/STM32F4xx_HAL_Driver/Src/stm32f4xx_hal_tim_ex.c ****   else
 727:Drivers/STM32F4xx_HAL_Driver/Src/stm32f4xx_hal_tim_ex.c ****   {
 728:Drivers/STM32F4xx_HAL_Driver/Src/stm32f4xx_hal_tim_ex.c ****     /* nothing to do  */
 729:Drivers/STM32F4xx_HAL_Driver/Src/stm32f4xx_hal_tim_ex.c ****   }
 730:Drivers/STM32F4xx_HAL_Driver/Src/stm32f4xx_hal_tim_ex.c **** 
 731:Drivers/STM32F4xx_HAL_Driver/Src/stm32f4xx_hal_tim_ex.c ****   switch (Channel)
 1496              		.loc 1 731 3
 1497 0042 BB68     		ldr	r3, [r7, #8]
 1498 0044 042B     		cmp	r3, #4
 1499 0046 29D0     		beq	.L65
 1500 0048 BB68     		ldr	r3, [r7, #8]
 1501 004a 082B     		cmp	r3, #8
 1502 004c 4AD0     		beq	.L66
 1503 004e BB68     		ldr	r3, [r7, #8]
 1504 0050 002B     		cmp	r3, #0
 1505 0052 6BD1     		bne	.L73
 732:Drivers/STM32F4xx_HAL_Driver/Src/stm32f4xx_hal_tim_ex.c ****   {
 733:Drivers/STM32F4xx_HAL_Driver/Src/stm32f4xx_hal_tim_ex.c ****     case TIM_CHANNEL_1:
 734:Drivers/STM32F4xx_HAL_Driver/Src/stm32f4xx_hal_tim_ex.c ****     {
 735:Drivers/STM32F4xx_HAL_Driver/Src/stm32f4xx_hal_tim_ex.c ****       /* Set the DMA compare callbacks */
 736:Drivers/STM32F4xx_HAL_Driver/Src/stm32f4xx_hal_tim_ex.c ****       htim->hdma[TIM_DMA_ID_CC1]->XferCpltCallback = TIM_DMADelayPulseCplt;
 1506              		.loc 1 736 17
 1507 0054 FB68     		ldr	r3, [r7, #12]
 1508 0056 5B6A     		ldr	r3, [r3, #36]
 1509              		.loc 1 736 52
 1510 0058 474A     		ldr	r2, .L74
 1511 005a DA63     		str	r2, [r3, #60]
 737:Drivers/STM32F4xx_HAL_Driver/Src/stm32f4xx_hal_tim_ex.c ****       htim->hdma[TIM_DMA_ID_CC1]->XferHalfCpltCallback = TIM_DMADelayPulseHalfCplt;
 1512              		.loc 1 737 17
 1513 005c FB68     		ldr	r3, [r7, #12]
 1514 005e 5B6A     		ldr	r3, [r3, #36]
 1515              		.loc 1 737 56
ARM GAS  /tmp/ccilmNhL.s 			page 40


 1516 0060 464A     		ldr	r2, .L74+4
 1517 0062 1A64     		str	r2, [r3, #64]
 738:Drivers/STM32F4xx_HAL_Driver/Src/stm32f4xx_hal_tim_ex.c **** 
 739:Drivers/STM32F4xx_HAL_Driver/Src/stm32f4xx_hal_tim_ex.c ****       /* Set the DMA error callback */
 740:Drivers/STM32F4xx_HAL_Driver/Src/stm32f4xx_hal_tim_ex.c ****       htim->hdma[TIM_DMA_ID_CC1]->XferErrorCallback = TIM_DMAError ;
 1518              		.loc 1 740 17
 1519 0064 FB68     		ldr	r3, [r7, #12]
 1520 0066 5B6A     		ldr	r3, [r3, #36]
 1521              		.loc 1 740 53
 1522 0068 454A     		ldr	r2, .L74+8
 1523 006a DA64     		str	r2, [r3, #76]
 741:Drivers/STM32F4xx_HAL_Driver/Src/stm32f4xx_hal_tim_ex.c **** 
 742:Drivers/STM32F4xx_HAL_Driver/Src/stm32f4xx_hal_tim_ex.c ****       /* Enable the DMA stream */
 743:Drivers/STM32F4xx_HAL_Driver/Src/stm32f4xx_hal_tim_ex.c ****       if (HAL_DMA_Start_IT(htim->hdma[TIM_DMA_ID_CC1], (uint32_t)pData, (uint32_t)&htim->Instance->
 1524              		.loc 1 743 11
 1525 006c FB68     		ldr	r3, [r7, #12]
 1526 006e 586A     		ldr	r0, [r3, #36]
 1527 0070 7968     		ldr	r1, [r7, #4]
 1528              		.loc 1 743 88
 1529 0072 FB68     		ldr	r3, [r7, #12]
 1530 0074 1B68     		ldr	r3, [r3]
 1531              		.loc 1 743 83
 1532 0076 3433     		adds	r3, r3, #52
 1533              		.loc 1 743 11
 1534 0078 1A46     		mov	r2, r3
 1535 007a 7B88     		ldrh	r3, [r7, #2]
 1536 007c FFF7FEFF 		bl	HAL_DMA_Start_IT
 1537 0080 0346     		mov	r3, r0
 1538              		.loc 1 743 10
 1539 0082 002B     		cmp	r3, #0
 1540 0084 01D0     		beq	.L68
 744:Drivers/STM32F4xx_HAL_Driver/Src/stm32f4xx_hal_tim_ex.c ****       {
 745:Drivers/STM32F4xx_HAL_Driver/Src/stm32f4xx_hal_tim_ex.c ****         return HAL_ERROR;
 1541              		.loc 1 745 16
 1542 0086 0123     		movs	r3, #1
 1543 0088 72E0     		b	.L62
 1544              	.L68:
 746:Drivers/STM32F4xx_HAL_Driver/Src/stm32f4xx_hal_tim_ex.c ****       }
 747:Drivers/STM32F4xx_HAL_Driver/Src/stm32f4xx_hal_tim_ex.c ****       /* Enable the TIM Output Compare DMA request */
 748:Drivers/STM32F4xx_HAL_Driver/Src/stm32f4xx_hal_tim_ex.c ****       __HAL_TIM_ENABLE_DMA(htim, TIM_DMA_CC1);
 1545              		.loc 1 748 7
 1546 008a FB68     		ldr	r3, [r7, #12]
 1547 008c 1B68     		ldr	r3, [r3]
 1548 008e DA68     		ldr	r2, [r3, #12]
 1549 0090 FB68     		ldr	r3, [r7, #12]
 1550 0092 1B68     		ldr	r3, [r3]
 1551 0094 42F40072 		orr	r2, r2, #512
 1552 0098 DA60     		str	r2, [r3, #12]
 749:Drivers/STM32F4xx_HAL_Driver/Src/stm32f4xx_hal_tim_ex.c ****       break;
 1553              		.loc 1 749 7
 1554 009a 48E0     		b	.L69
 1555              	.L65:
 750:Drivers/STM32F4xx_HAL_Driver/Src/stm32f4xx_hal_tim_ex.c ****     }
 751:Drivers/STM32F4xx_HAL_Driver/Src/stm32f4xx_hal_tim_ex.c **** 
 752:Drivers/STM32F4xx_HAL_Driver/Src/stm32f4xx_hal_tim_ex.c ****     case TIM_CHANNEL_2:
 753:Drivers/STM32F4xx_HAL_Driver/Src/stm32f4xx_hal_tim_ex.c ****     {
 754:Drivers/STM32F4xx_HAL_Driver/Src/stm32f4xx_hal_tim_ex.c ****       /* Set the DMA compare callbacks */
ARM GAS  /tmp/ccilmNhL.s 			page 41


 755:Drivers/STM32F4xx_HAL_Driver/Src/stm32f4xx_hal_tim_ex.c ****       htim->hdma[TIM_DMA_ID_CC2]->XferCpltCallback = TIM_DMADelayPulseCplt;
 1556              		.loc 1 755 17
 1557 009c FB68     		ldr	r3, [r7, #12]
 1558 009e 9B6A     		ldr	r3, [r3, #40]
 1559              		.loc 1 755 52
 1560 00a0 354A     		ldr	r2, .L74
 1561 00a2 DA63     		str	r2, [r3, #60]
 756:Drivers/STM32F4xx_HAL_Driver/Src/stm32f4xx_hal_tim_ex.c ****       htim->hdma[TIM_DMA_ID_CC2]->XferHalfCpltCallback = TIM_DMADelayPulseHalfCplt;
 1562              		.loc 1 756 17
 1563 00a4 FB68     		ldr	r3, [r7, #12]
 1564 00a6 9B6A     		ldr	r3, [r3, #40]
 1565              		.loc 1 756 56
 1566 00a8 344A     		ldr	r2, .L74+4
 1567 00aa 1A64     		str	r2, [r3, #64]
 757:Drivers/STM32F4xx_HAL_Driver/Src/stm32f4xx_hal_tim_ex.c **** 
 758:Drivers/STM32F4xx_HAL_Driver/Src/stm32f4xx_hal_tim_ex.c ****       /* Set the DMA error callback */
 759:Drivers/STM32F4xx_HAL_Driver/Src/stm32f4xx_hal_tim_ex.c ****       htim->hdma[TIM_DMA_ID_CC2]->XferErrorCallback = TIM_DMAError ;
 1568              		.loc 1 759 17
 1569 00ac FB68     		ldr	r3, [r7, #12]
 1570 00ae 9B6A     		ldr	r3, [r3, #40]
 1571              		.loc 1 759 53
 1572 00b0 334A     		ldr	r2, .L74+8
 1573 00b2 DA64     		str	r2, [r3, #76]
 760:Drivers/STM32F4xx_HAL_Driver/Src/stm32f4xx_hal_tim_ex.c **** 
 761:Drivers/STM32F4xx_HAL_Driver/Src/stm32f4xx_hal_tim_ex.c ****       /* Enable the DMA stream */
 762:Drivers/STM32F4xx_HAL_Driver/Src/stm32f4xx_hal_tim_ex.c ****       if (HAL_DMA_Start_IT(htim->hdma[TIM_DMA_ID_CC2], (uint32_t)pData, (uint32_t)&htim->Instance->
 1574              		.loc 1 762 11
 1575 00b4 FB68     		ldr	r3, [r7, #12]
 1576 00b6 986A     		ldr	r0, [r3, #40]
 1577 00b8 7968     		ldr	r1, [r7, #4]
 1578              		.loc 1 762 88
 1579 00ba FB68     		ldr	r3, [r7, #12]
 1580 00bc 1B68     		ldr	r3, [r3]
 1581              		.loc 1 762 83
 1582 00be 3833     		adds	r3, r3, #56
 1583              		.loc 1 762 11
 1584 00c0 1A46     		mov	r2, r3
 1585 00c2 7B88     		ldrh	r3, [r7, #2]
 1586 00c4 FFF7FEFF 		bl	HAL_DMA_Start_IT
 1587 00c8 0346     		mov	r3, r0
 1588              		.loc 1 762 10
 1589 00ca 002B     		cmp	r3, #0
 1590 00cc 01D0     		beq	.L70
 763:Drivers/STM32F4xx_HAL_Driver/Src/stm32f4xx_hal_tim_ex.c ****       {
 764:Drivers/STM32F4xx_HAL_Driver/Src/stm32f4xx_hal_tim_ex.c ****         return HAL_ERROR;
 1591              		.loc 1 764 16
 1592 00ce 0123     		movs	r3, #1
 1593 00d0 4EE0     		b	.L62
 1594              	.L70:
 765:Drivers/STM32F4xx_HAL_Driver/Src/stm32f4xx_hal_tim_ex.c ****       }
 766:Drivers/STM32F4xx_HAL_Driver/Src/stm32f4xx_hal_tim_ex.c ****       /* Enable the TIM Output Compare DMA request */
 767:Drivers/STM32F4xx_HAL_Driver/Src/stm32f4xx_hal_tim_ex.c ****       __HAL_TIM_ENABLE_DMA(htim, TIM_DMA_CC2);
 1595              		.loc 1 767 7
 1596 00d2 FB68     		ldr	r3, [r7, #12]
 1597 00d4 1B68     		ldr	r3, [r3]
 1598 00d6 DA68     		ldr	r2, [r3, #12]
 1599 00d8 FB68     		ldr	r3, [r7, #12]
ARM GAS  /tmp/ccilmNhL.s 			page 42


 1600 00da 1B68     		ldr	r3, [r3]
 1601 00dc 42F48062 		orr	r2, r2, #1024
 1602 00e0 DA60     		str	r2, [r3, #12]
 768:Drivers/STM32F4xx_HAL_Driver/Src/stm32f4xx_hal_tim_ex.c ****       break;
 1603              		.loc 1 768 7
 1604 00e2 24E0     		b	.L69
 1605              	.L66:
 769:Drivers/STM32F4xx_HAL_Driver/Src/stm32f4xx_hal_tim_ex.c ****     }
 770:Drivers/STM32F4xx_HAL_Driver/Src/stm32f4xx_hal_tim_ex.c **** 
 771:Drivers/STM32F4xx_HAL_Driver/Src/stm32f4xx_hal_tim_ex.c ****     case TIM_CHANNEL_3:
 772:Drivers/STM32F4xx_HAL_Driver/Src/stm32f4xx_hal_tim_ex.c ****     {
 773:Drivers/STM32F4xx_HAL_Driver/Src/stm32f4xx_hal_tim_ex.c ****       /* Set the DMA compare callbacks */
 774:Drivers/STM32F4xx_HAL_Driver/Src/stm32f4xx_hal_tim_ex.c ****       htim->hdma[TIM_DMA_ID_CC3]->XferCpltCallback = TIM_DMADelayPulseCplt;
 1606              		.loc 1 774 17
 1607 00e4 FB68     		ldr	r3, [r7, #12]
 1608 00e6 DB6A     		ldr	r3, [r3, #44]
 1609              		.loc 1 774 52
 1610 00e8 234A     		ldr	r2, .L74
 1611 00ea DA63     		str	r2, [r3, #60]
 775:Drivers/STM32F4xx_HAL_Driver/Src/stm32f4xx_hal_tim_ex.c ****       htim->hdma[TIM_DMA_ID_CC3]->XferHalfCpltCallback = TIM_DMADelayPulseHalfCplt;
 1612              		.loc 1 775 17
 1613 00ec FB68     		ldr	r3, [r7, #12]
 1614 00ee DB6A     		ldr	r3, [r3, #44]
 1615              		.loc 1 775 56
 1616 00f0 224A     		ldr	r2, .L74+4
 1617 00f2 1A64     		str	r2, [r3, #64]
 776:Drivers/STM32F4xx_HAL_Driver/Src/stm32f4xx_hal_tim_ex.c **** 
 777:Drivers/STM32F4xx_HAL_Driver/Src/stm32f4xx_hal_tim_ex.c ****       /* Set the DMA error callback */
 778:Drivers/STM32F4xx_HAL_Driver/Src/stm32f4xx_hal_tim_ex.c ****       htim->hdma[TIM_DMA_ID_CC3]->XferErrorCallback = TIM_DMAError ;
 1618              		.loc 1 778 17
 1619 00f4 FB68     		ldr	r3, [r7, #12]
 1620 00f6 DB6A     		ldr	r3, [r3, #44]
 1621              		.loc 1 778 53
 1622 00f8 214A     		ldr	r2, .L74+8
 1623 00fa DA64     		str	r2, [r3, #76]
 779:Drivers/STM32F4xx_HAL_Driver/Src/stm32f4xx_hal_tim_ex.c **** 
 780:Drivers/STM32F4xx_HAL_Driver/Src/stm32f4xx_hal_tim_ex.c ****       /* Enable the DMA stream */
 781:Drivers/STM32F4xx_HAL_Driver/Src/stm32f4xx_hal_tim_ex.c ****       if (HAL_DMA_Start_IT(htim->hdma[TIM_DMA_ID_CC3], (uint32_t)pData, (uint32_t)&htim->Instance->
 1624              		.loc 1 781 11
 1625 00fc FB68     		ldr	r3, [r7, #12]
 1626 00fe D86A     		ldr	r0, [r3, #44]
 1627 0100 7968     		ldr	r1, [r7, #4]
 1628              		.loc 1 781 88
 1629 0102 FB68     		ldr	r3, [r7, #12]
 1630 0104 1B68     		ldr	r3, [r3]
 1631              		.loc 1 781 83
 1632 0106 3C33     		adds	r3, r3, #60
 1633              		.loc 1 781 11
 1634 0108 1A46     		mov	r2, r3
 1635 010a 7B88     		ldrh	r3, [r7, #2]
 1636 010c FFF7FEFF 		bl	HAL_DMA_Start_IT
 1637 0110 0346     		mov	r3, r0
 1638              		.loc 1 781 10
 1639 0112 002B     		cmp	r3, #0
 1640 0114 01D0     		beq	.L71
 782:Drivers/STM32F4xx_HAL_Driver/Src/stm32f4xx_hal_tim_ex.c ****       {
 783:Drivers/STM32F4xx_HAL_Driver/Src/stm32f4xx_hal_tim_ex.c ****         return HAL_ERROR;
ARM GAS  /tmp/ccilmNhL.s 			page 43


 1641              		.loc 1 783 16
 1642 0116 0123     		movs	r3, #1
 1643 0118 2AE0     		b	.L62
 1644              	.L71:
 784:Drivers/STM32F4xx_HAL_Driver/Src/stm32f4xx_hal_tim_ex.c ****       }
 785:Drivers/STM32F4xx_HAL_Driver/Src/stm32f4xx_hal_tim_ex.c ****       /* Enable the TIM Output Compare DMA request */
 786:Drivers/STM32F4xx_HAL_Driver/Src/stm32f4xx_hal_tim_ex.c ****       __HAL_TIM_ENABLE_DMA(htim, TIM_DMA_CC3);
 1645              		.loc 1 786 7
 1646 011a FB68     		ldr	r3, [r7, #12]
 1647 011c 1B68     		ldr	r3, [r3]
 1648 011e DA68     		ldr	r2, [r3, #12]
 1649 0120 FB68     		ldr	r3, [r7, #12]
 1650 0122 1B68     		ldr	r3, [r3]
 1651 0124 42F40062 		orr	r2, r2, #2048
 1652 0128 DA60     		str	r2, [r3, #12]
 787:Drivers/STM32F4xx_HAL_Driver/Src/stm32f4xx_hal_tim_ex.c ****       break;
 1653              		.loc 1 787 7
 1654 012a 00E0     		b	.L69
 1655              	.L73:
 788:Drivers/STM32F4xx_HAL_Driver/Src/stm32f4xx_hal_tim_ex.c ****     }
 789:Drivers/STM32F4xx_HAL_Driver/Src/stm32f4xx_hal_tim_ex.c **** 
 790:Drivers/STM32F4xx_HAL_Driver/Src/stm32f4xx_hal_tim_ex.c ****     default:
 791:Drivers/STM32F4xx_HAL_Driver/Src/stm32f4xx_hal_tim_ex.c ****       break;
 1656              		.loc 1 791 7
 1657 012c 00BF     		nop
 1658              	.L69:
 792:Drivers/STM32F4xx_HAL_Driver/Src/stm32f4xx_hal_tim_ex.c ****   }
 793:Drivers/STM32F4xx_HAL_Driver/Src/stm32f4xx_hal_tim_ex.c **** 
 794:Drivers/STM32F4xx_HAL_Driver/Src/stm32f4xx_hal_tim_ex.c ****   /* Enable the Capture compare channel N */
 795:Drivers/STM32F4xx_HAL_Driver/Src/stm32f4xx_hal_tim_ex.c ****   TIM_CCxNChannelCmd(htim->Instance, Channel, TIM_CCxN_ENABLE);
 1659              		.loc 1 795 3
 1660 012e FB68     		ldr	r3, [r7, #12]
 1661 0130 1B68     		ldr	r3, [r3]
 1662 0132 0422     		movs	r2, #4
 1663 0134 B968     		ldr	r1, [r7, #8]
 1664 0136 1846     		mov	r0, r3
 1665 0138 FFF7FEFF 		bl	TIM_CCxNChannelCmd
 796:Drivers/STM32F4xx_HAL_Driver/Src/stm32f4xx_hal_tim_ex.c **** 
 797:Drivers/STM32F4xx_HAL_Driver/Src/stm32f4xx_hal_tim_ex.c ****   /* Enable the Main Output */
 798:Drivers/STM32F4xx_HAL_Driver/Src/stm32f4xx_hal_tim_ex.c ****   __HAL_TIM_MOE_ENABLE(htim);
 1666              		.loc 1 798 3
 1667 013c FB68     		ldr	r3, [r7, #12]
 1668 013e 1B68     		ldr	r3, [r3]
 1669 0140 5A6C     		ldr	r2, [r3, #68]
 1670 0142 FB68     		ldr	r3, [r7, #12]
 1671 0144 1B68     		ldr	r3, [r3]
 1672 0146 42F40042 		orr	r2, r2, #32768
 1673 014a 5A64     		str	r2, [r3, #68]
 799:Drivers/STM32F4xx_HAL_Driver/Src/stm32f4xx_hal_tim_ex.c **** 
 800:Drivers/STM32F4xx_HAL_Driver/Src/stm32f4xx_hal_tim_ex.c ****   /* Enable the Peripheral, except in trigger mode where enable is automatically done with trigger 
 801:Drivers/STM32F4xx_HAL_Driver/Src/stm32f4xx_hal_tim_ex.c ****   tmpsmcr = htim->Instance->SMCR & TIM_SMCR_SMS;
 1674              		.loc 1 801 17
 1675 014c FB68     		ldr	r3, [r7, #12]
 1676 014e 1B68     		ldr	r3, [r3]
 1677              		.loc 1 801 27
 1678 0150 9B68     		ldr	r3, [r3, #8]
 1679              		.loc 1 801 11
ARM GAS  /tmp/ccilmNhL.s 			page 44


 1680 0152 03F00703 		and	r3, r3, #7
 1681 0156 7B61     		str	r3, [r7, #20]
 802:Drivers/STM32F4xx_HAL_Driver/Src/stm32f4xx_hal_tim_ex.c ****   if (!IS_TIM_SLAVEMODE_TRIGGER_ENABLED(tmpsmcr))
 1682              		.loc 1 802 6
 1683 0158 7B69     		ldr	r3, [r7, #20]
 1684 015a 062B     		cmp	r3, #6
 1685 015c 07D0     		beq	.L72
 803:Drivers/STM32F4xx_HAL_Driver/Src/stm32f4xx_hal_tim_ex.c ****   {
 804:Drivers/STM32F4xx_HAL_Driver/Src/stm32f4xx_hal_tim_ex.c ****     __HAL_TIM_ENABLE(htim);
 1686              		.loc 1 804 5
 1687 015e FB68     		ldr	r3, [r7, #12]
 1688 0160 1B68     		ldr	r3, [r3]
 1689 0162 1A68     		ldr	r2, [r3]
 1690 0164 FB68     		ldr	r3, [r7, #12]
 1691 0166 1B68     		ldr	r3, [r3]
 1692 0168 42F00102 		orr	r2, r2, #1
 1693 016c 1A60     		str	r2, [r3]
 1694              	.L72:
 805:Drivers/STM32F4xx_HAL_Driver/Src/stm32f4xx_hal_tim_ex.c ****   }
 806:Drivers/STM32F4xx_HAL_Driver/Src/stm32f4xx_hal_tim_ex.c **** 
 807:Drivers/STM32F4xx_HAL_Driver/Src/stm32f4xx_hal_tim_ex.c ****   /* Return function status */
 808:Drivers/STM32F4xx_HAL_Driver/Src/stm32f4xx_hal_tim_ex.c ****   return HAL_OK;
 1695              		.loc 1 808 10
 1696 016e 0023     		movs	r3, #0
 1697              	.L62:
 809:Drivers/STM32F4xx_HAL_Driver/Src/stm32f4xx_hal_tim_ex.c **** }
 1698              		.loc 1 809 1
 1699 0170 1846     		mov	r0, r3
 1700 0172 1837     		adds	r7, r7, #24
 1701              	.LCFI75:
 1702              		.cfi_def_cfa_offset 8
 1703 0174 BD46     		mov	sp, r7
 1704              	.LCFI76:
 1705              		.cfi_def_cfa_register 13
 1706              		@ sp needed
 1707 0176 80BD     		pop	{r7, pc}
 1708              	.L75:
 1709              		.align	2
 1710              	.L74:
 1711 0178 00000000 		.word	TIM_DMADelayPulseCplt
 1712 017c 00000000 		.word	TIM_DMADelayPulseHalfCplt
 1713 0180 00000000 		.word	TIM_DMAError
 1714              		.cfi_endproc
 1715              	.LFE144:
 1717              		.section	.text.HAL_TIMEx_OCN_Stop_DMA,"ax",%progbits
 1718              		.align	1
 1719              		.global	HAL_TIMEx_OCN_Stop_DMA
 1720              		.syntax unified
 1721              		.thumb
 1722              		.thumb_func
 1723              		.fpu fpv4-sp-d16
 1725              	HAL_TIMEx_OCN_Stop_DMA:
 1726              	.LFB145:
 810:Drivers/STM32F4xx_HAL_Driver/Src/stm32f4xx_hal_tim_ex.c **** 
 811:Drivers/STM32F4xx_HAL_Driver/Src/stm32f4xx_hal_tim_ex.c **** /**
 812:Drivers/STM32F4xx_HAL_Driver/Src/stm32f4xx_hal_tim_ex.c ****   * @brief  Stops the TIM Output Compare signal generation in DMA mode
 813:Drivers/STM32F4xx_HAL_Driver/Src/stm32f4xx_hal_tim_ex.c ****   *         on the complementary output.
ARM GAS  /tmp/ccilmNhL.s 			page 45


 814:Drivers/STM32F4xx_HAL_Driver/Src/stm32f4xx_hal_tim_ex.c ****   * @param  htim TIM Output Compare handle
 815:Drivers/STM32F4xx_HAL_Driver/Src/stm32f4xx_hal_tim_ex.c ****   * @param  Channel TIM Channel to be disabled
 816:Drivers/STM32F4xx_HAL_Driver/Src/stm32f4xx_hal_tim_ex.c ****   *          This parameter can be one of the following values:
 817:Drivers/STM32F4xx_HAL_Driver/Src/stm32f4xx_hal_tim_ex.c ****   *            @arg TIM_CHANNEL_1: TIM Channel 1 selected
 818:Drivers/STM32F4xx_HAL_Driver/Src/stm32f4xx_hal_tim_ex.c ****   *            @arg TIM_CHANNEL_2: TIM Channel 2 selected
 819:Drivers/STM32F4xx_HAL_Driver/Src/stm32f4xx_hal_tim_ex.c ****   *            @arg TIM_CHANNEL_3: TIM Channel 3 selected
 820:Drivers/STM32F4xx_HAL_Driver/Src/stm32f4xx_hal_tim_ex.c ****   * @retval HAL status
 821:Drivers/STM32F4xx_HAL_Driver/Src/stm32f4xx_hal_tim_ex.c ****   */
 822:Drivers/STM32F4xx_HAL_Driver/Src/stm32f4xx_hal_tim_ex.c **** HAL_StatusTypeDef HAL_TIMEx_OCN_Stop_DMA(TIM_HandleTypeDef *htim, uint32_t Channel)
 823:Drivers/STM32F4xx_HAL_Driver/Src/stm32f4xx_hal_tim_ex.c **** {
 1727              		.loc 1 823 1
 1728              		.cfi_startproc
 1729              		@ args = 0, pretend = 0, frame = 8
 1730              		@ frame_needed = 1, uses_anonymous_args = 0
 1731 0000 80B5     		push	{r7, lr}
 1732              	.LCFI77:
 1733              		.cfi_def_cfa_offset 8
 1734              		.cfi_offset 7, -8
 1735              		.cfi_offset 14, -4
 1736 0002 82B0     		sub	sp, sp, #8
 1737              	.LCFI78:
 1738              		.cfi_def_cfa_offset 16
 1739 0004 00AF     		add	r7, sp, #0
 1740              	.LCFI79:
 1741              		.cfi_def_cfa_register 7
 1742 0006 7860     		str	r0, [r7, #4]
 1743 0008 3960     		str	r1, [r7]
 824:Drivers/STM32F4xx_HAL_Driver/Src/stm32f4xx_hal_tim_ex.c ****   /* Check the parameters */
 825:Drivers/STM32F4xx_HAL_Driver/Src/stm32f4xx_hal_tim_ex.c ****   assert_param(IS_TIM_CCXN_INSTANCE(htim->Instance, Channel));
 826:Drivers/STM32F4xx_HAL_Driver/Src/stm32f4xx_hal_tim_ex.c **** 
 827:Drivers/STM32F4xx_HAL_Driver/Src/stm32f4xx_hal_tim_ex.c ****   switch (Channel)
 1744              		.loc 1 827 3
 1745 000a 3B68     		ldr	r3, [r7]
 1746 000c 042B     		cmp	r3, #4
 1747 000e 13D0     		beq	.L77
 1748 0010 3B68     		ldr	r3, [r7]
 1749 0012 082B     		cmp	r3, #8
 1750 0014 1ED0     		beq	.L78
 1751 0016 3B68     		ldr	r3, [r7]
 1752 0018 002B     		cmp	r3, #0
 1753 001a 29D1     		bne	.L84
 828:Drivers/STM32F4xx_HAL_Driver/Src/stm32f4xx_hal_tim_ex.c ****   {
 829:Drivers/STM32F4xx_HAL_Driver/Src/stm32f4xx_hal_tim_ex.c ****     case TIM_CHANNEL_1:
 830:Drivers/STM32F4xx_HAL_Driver/Src/stm32f4xx_hal_tim_ex.c ****     {
 831:Drivers/STM32F4xx_HAL_Driver/Src/stm32f4xx_hal_tim_ex.c ****       /* Disable the TIM Output Compare DMA request */
 832:Drivers/STM32F4xx_HAL_Driver/Src/stm32f4xx_hal_tim_ex.c ****       __HAL_TIM_DISABLE_DMA(htim, TIM_DMA_CC1);
 1754              		.loc 1 832 7
 1755 001c 7B68     		ldr	r3, [r7, #4]
 1756 001e 1B68     		ldr	r3, [r3]
 1757 0020 DA68     		ldr	r2, [r3, #12]
 1758 0022 7B68     		ldr	r3, [r7, #4]
 1759 0024 1B68     		ldr	r3, [r3]
 1760 0026 22F40072 		bic	r2, r2, #512
 1761 002a DA60     		str	r2, [r3, #12]
 833:Drivers/STM32F4xx_HAL_Driver/Src/stm32f4xx_hal_tim_ex.c ****       (void)HAL_DMA_Abort_IT(htim->hdma[TIM_DMA_ID_CC1]);
 1762              		.loc 1 833 13
 1763 002c 7B68     		ldr	r3, [r7, #4]
ARM GAS  /tmp/ccilmNhL.s 			page 46


 1764 002e 5B6A     		ldr	r3, [r3, #36]
 1765 0030 1846     		mov	r0, r3
 1766 0032 FFF7FEFF 		bl	HAL_DMA_Abort_IT
 834:Drivers/STM32F4xx_HAL_Driver/Src/stm32f4xx_hal_tim_ex.c ****       break;
 1767              		.loc 1 834 7
 1768 0036 1CE0     		b	.L80
 1769              	.L77:
 835:Drivers/STM32F4xx_HAL_Driver/Src/stm32f4xx_hal_tim_ex.c ****     }
 836:Drivers/STM32F4xx_HAL_Driver/Src/stm32f4xx_hal_tim_ex.c **** 
 837:Drivers/STM32F4xx_HAL_Driver/Src/stm32f4xx_hal_tim_ex.c ****     case TIM_CHANNEL_2:
 838:Drivers/STM32F4xx_HAL_Driver/Src/stm32f4xx_hal_tim_ex.c ****     {
 839:Drivers/STM32F4xx_HAL_Driver/Src/stm32f4xx_hal_tim_ex.c ****       /* Disable the TIM Output Compare DMA request */
 840:Drivers/STM32F4xx_HAL_Driver/Src/stm32f4xx_hal_tim_ex.c ****       __HAL_TIM_DISABLE_DMA(htim, TIM_DMA_CC2);
 1770              		.loc 1 840 7
 1771 0038 7B68     		ldr	r3, [r7, #4]
 1772 003a 1B68     		ldr	r3, [r3]
 1773 003c DA68     		ldr	r2, [r3, #12]
 1774 003e 7B68     		ldr	r3, [r7, #4]
 1775 0040 1B68     		ldr	r3, [r3]
 1776 0042 22F48062 		bic	r2, r2, #1024
 1777 0046 DA60     		str	r2, [r3, #12]
 841:Drivers/STM32F4xx_HAL_Driver/Src/stm32f4xx_hal_tim_ex.c ****       (void)HAL_DMA_Abort_IT(htim->hdma[TIM_DMA_ID_CC2]);
 1778              		.loc 1 841 13
 1779 0048 7B68     		ldr	r3, [r7, #4]
 1780 004a 9B6A     		ldr	r3, [r3, #40]
 1781 004c 1846     		mov	r0, r3
 1782 004e FFF7FEFF 		bl	HAL_DMA_Abort_IT
 842:Drivers/STM32F4xx_HAL_Driver/Src/stm32f4xx_hal_tim_ex.c ****       break;
 1783              		.loc 1 842 7
 1784 0052 0EE0     		b	.L80
 1785              	.L78:
 843:Drivers/STM32F4xx_HAL_Driver/Src/stm32f4xx_hal_tim_ex.c ****     }
 844:Drivers/STM32F4xx_HAL_Driver/Src/stm32f4xx_hal_tim_ex.c **** 
 845:Drivers/STM32F4xx_HAL_Driver/Src/stm32f4xx_hal_tim_ex.c ****     case TIM_CHANNEL_3:
 846:Drivers/STM32F4xx_HAL_Driver/Src/stm32f4xx_hal_tim_ex.c ****     {
 847:Drivers/STM32F4xx_HAL_Driver/Src/stm32f4xx_hal_tim_ex.c ****       /* Disable the TIM Output Compare DMA request */
 848:Drivers/STM32F4xx_HAL_Driver/Src/stm32f4xx_hal_tim_ex.c ****       __HAL_TIM_DISABLE_DMA(htim, TIM_DMA_CC3);
 1786              		.loc 1 848 7
 1787 0054 7B68     		ldr	r3, [r7, #4]
 1788 0056 1B68     		ldr	r3, [r3]
 1789 0058 DA68     		ldr	r2, [r3, #12]
 1790 005a 7B68     		ldr	r3, [r7, #4]
 1791 005c 1B68     		ldr	r3, [r3]
 1792 005e 22F40062 		bic	r2, r2, #2048
 1793 0062 DA60     		str	r2, [r3, #12]
 849:Drivers/STM32F4xx_HAL_Driver/Src/stm32f4xx_hal_tim_ex.c ****       (void)HAL_DMA_Abort_IT(htim->hdma[TIM_DMA_ID_CC3]);
 1794              		.loc 1 849 13
 1795 0064 7B68     		ldr	r3, [r7, #4]
 1796 0066 DB6A     		ldr	r3, [r3, #44]
 1797 0068 1846     		mov	r0, r3
 1798 006a FFF7FEFF 		bl	HAL_DMA_Abort_IT
 850:Drivers/STM32F4xx_HAL_Driver/Src/stm32f4xx_hal_tim_ex.c ****       break;
 1799              		.loc 1 850 7
 1800 006e 00E0     		b	.L80
 1801              	.L84:
 851:Drivers/STM32F4xx_HAL_Driver/Src/stm32f4xx_hal_tim_ex.c ****     }
 852:Drivers/STM32F4xx_HAL_Driver/Src/stm32f4xx_hal_tim_ex.c **** 
ARM GAS  /tmp/ccilmNhL.s 			page 47


 853:Drivers/STM32F4xx_HAL_Driver/Src/stm32f4xx_hal_tim_ex.c ****     default:
 854:Drivers/STM32F4xx_HAL_Driver/Src/stm32f4xx_hal_tim_ex.c ****       break;
 1802              		.loc 1 854 7
 1803 0070 00BF     		nop
 1804              	.L80:
 855:Drivers/STM32F4xx_HAL_Driver/Src/stm32f4xx_hal_tim_ex.c ****   }
 856:Drivers/STM32F4xx_HAL_Driver/Src/stm32f4xx_hal_tim_ex.c **** 
 857:Drivers/STM32F4xx_HAL_Driver/Src/stm32f4xx_hal_tim_ex.c ****   /* Disable the Capture compare channel N */
 858:Drivers/STM32F4xx_HAL_Driver/Src/stm32f4xx_hal_tim_ex.c ****   TIM_CCxNChannelCmd(htim->Instance, Channel, TIM_CCxN_DISABLE);
 1805              		.loc 1 858 3
 1806 0072 7B68     		ldr	r3, [r7, #4]
 1807 0074 1B68     		ldr	r3, [r3]
 1808 0076 0022     		movs	r2, #0
 1809 0078 3968     		ldr	r1, [r7]
 1810 007a 1846     		mov	r0, r3
 1811 007c FFF7FEFF 		bl	TIM_CCxNChannelCmd
 859:Drivers/STM32F4xx_HAL_Driver/Src/stm32f4xx_hal_tim_ex.c **** 
 860:Drivers/STM32F4xx_HAL_Driver/Src/stm32f4xx_hal_tim_ex.c ****   /* Disable the Main Output */
 861:Drivers/STM32F4xx_HAL_Driver/Src/stm32f4xx_hal_tim_ex.c ****   __HAL_TIM_MOE_DISABLE(htim);
 1812              		.loc 1 861 3
 1813 0080 7B68     		ldr	r3, [r7, #4]
 1814 0082 1B68     		ldr	r3, [r3]
 1815 0084 1A6A     		ldr	r2, [r3, #32]
 1816 0086 41F21113 		movw	r3, #4369
 1817 008a 1340     		ands	r3, r3, r2
 1818 008c 002B     		cmp	r3, #0
 1819 008e 0FD1     		bne	.L81
 1820              		.loc 1 861 3 is_stmt 0 discriminator 1
 1821 0090 7B68     		ldr	r3, [r7, #4]
 1822 0092 1B68     		ldr	r3, [r3]
 1823 0094 1A6A     		ldr	r2, [r3, #32]
 1824 0096 40F24443 		movw	r3, #1092
 1825 009a 1340     		ands	r3, r3, r2
 1826 009c 002B     		cmp	r3, #0
 1827 009e 07D1     		bne	.L81
 1828              		.loc 1 861 3 discriminator 2
 1829 00a0 7B68     		ldr	r3, [r7, #4]
 1830 00a2 1B68     		ldr	r3, [r3]
 1831 00a4 5A6C     		ldr	r2, [r3, #68]
 1832 00a6 7B68     		ldr	r3, [r7, #4]
 1833 00a8 1B68     		ldr	r3, [r3]
 1834 00aa 22F40042 		bic	r2, r2, #32768
 1835 00ae 5A64     		str	r2, [r3, #68]
 1836              	.L81:
 862:Drivers/STM32F4xx_HAL_Driver/Src/stm32f4xx_hal_tim_ex.c **** 
 863:Drivers/STM32F4xx_HAL_Driver/Src/stm32f4xx_hal_tim_ex.c ****   /* Disable the Peripheral */
 864:Drivers/STM32F4xx_HAL_Driver/Src/stm32f4xx_hal_tim_ex.c ****   __HAL_TIM_DISABLE(htim);
 1837              		.loc 1 864 3 is_stmt 1
 1838 00b0 7B68     		ldr	r3, [r7, #4]
 1839 00b2 1B68     		ldr	r3, [r3]
 1840 00b4 1A6A     		ldr	r2, [r3, #32]
 1841 00b6 41F21113 		movw	r3, #4369
 1842 00ba 1340     		ands	r3, r3, r2
 1843 00bc 002B     		cmp	r3, #0
 1844 00be 0FD1     		bne	.L82
 1845              		.loc 1 864 3 is_stmt 0 discriminator 1
 1846 00c0 7B68     		ldr	r3, [r7, #4]
ARM GAS  /tmp/ccilmNhL.s 			page 48


 1847 00c2 1B68     		ldr	r3, [r3]
 1848 00c4 1A6A     		ldr	r2, [r3, #32]
 1849 00c6 40F24443 		movw	r3, #1092
 1850 00ca 1340     		ands	r3, r3, r2
 1851 00cc 002B     		cmp	r3, #0
 1852 00ce 07D1     		bne	.L82
 1853              		.loc 1 864 3 discriminator 2
 1854 00d0 7B68     		ldr	r3, [r7, #4]
 1855 00d2 1B68     		ldr	r3, [r3]
 1856 00d4 1A68     		ldr	r2, [r3]
 1857 00d6 7B68     		ldr	r3, [r7, #4]
 1858 00d8 1B68     		ldr	r3, [r3]
 1859 00da 22F00102 		bic	r2, r2, #1
 1860 00de 1A60     		str	r2, [r3]
 1861              	.L82:
 865:Drivers/STM32F4xx_HAL_Driver/Src/stm32f4xx_hal_tim_ex.c **** 
 866:Drivers/STM32F4xx_HAL_Driver/Src/stm32f4xx_hal_tim_ex.c ****   /* Change the htim state */
 867:Drivers/STM32F4xx_HAL_Driver/Src/stm32f4xx_hal_tim_ex.c ****   htim->State = HAL_TIM_STATE_READY;
 1862              		.loc 1 867 15 is_stmt 1
 1863 00e0 7B68     		ldr	r3, [r7, #4]
 1864 00e2 0122     		movs	r2, #1
 1865 00e4 83F83D20 		strb	r2, [r3, #61]
 868:Drivers/STM32F4xx_HAL_Driver/Src/stm32f4xx_hal_tim_ex.c **** 
 869:Drivers/STM32F4xx_HAL_Driver/Src/stm32f4xx_hal_tim_ex.c ****   /* Return function status */
 870:Drivers/STM32F4xx_HAL_Driver/Src/stm32f4xx_hal_tim_ex.c ****   return HAL_OK;
 1866              		.loc 1 870 10
 1867 00e8 0023     		movs	r3, #0
 871:Drivers/STM32F4xx_HAL_Driver/Src/stm32f4xx_hal_tim_ex.c **** }
 1868              		.loc 1 871 1
 1869 00ea 1846     		mov	r0, r3
 1870 00ec 0837     		adds	r7, r7, #8
 1871              	.LCFI80:
 1872              		.cfi_def_cfa_offset 8
 1873 00ee BD46     		mov	sp, r7
 1874              	.LCFI81:
 1875              		.cfi_def_cfa_register 13
 1876              		@ sp needed
 1877 00f0 80BD     		pop	{r7, pc}
 1878              		.cfi_endproc
 1879              	.LFE145:
 1881              		.section	.text.HAL_TIMEx_PWMN_Start,"ax",%progbits
 1882              		.align	1
 1883              		.global	HAL_TIMEx_PWMN_Start
 1884              		.syntax unified
 1885              		.thumb
 1886              		.thumb_func
 1887              		.fpu fpv4-sp-d16
 1889              	HAL_TIMEx_PWMN_Start:
 1890              	.LFB146:
 872:Drivers/STM32F4xx_HAL_Driver/Src/stm32f4xx_hal_tim_ex.c **** 
 873:Drivers/STM32F4xx_HAL_Driver/Src/stm32f4xx_hal_tim_ex.c **** /**
 874:Drivers/STM32F4xx_HAL_Driver/Src/stm32f4xx_hal_tim_ex.c ****   * @}
 875:Drivers/STM32F4xx_HAL_Driver/Src/stm32f4xx_hal_tim_ex.c ****   */
 876:Drivers/STM32F4xx_HAL_Driver/Src/stm32f4xx_hal_tim_ex.c **** 
 877:Drivers/STM32F4xx_HAL_Driver/Src/stm32f4xx_hal_tim_ex.c **** /** @defgroup TIMEx_Exported_Functions_Group3 Extended Timer Complementary PWM functions
 878:Drivers/STM32F4xx_HAL_Driver/Src/stm32f4xx_hal_tim_ex.c ****   * @brief    Timer Complementary PWM functions
 879:Drivers/STM32F4xx_HAL_Driver/Src/stm32f4xx_hal_tim_ex.c ****   *
ARM GAS  /tmp/ccilmNhL.s 			page 49


 880:Drivers/STM32F4xx_HAL_Driver/Src/stm32f4xx_hal_tim_ex.c **** @verbatim
 881:Drivers/STM32F4xx_HAL_Driver/Src/stm32f4xx_hal_tim_ex.c ****   ==============================================================================
 882:Drivers/STM32F4xx_HAL_Driver/Src/stm32f4xx_hal_tim_ex.c ****                  ##### Timer Complementary PWM functions #####
 883:Drivers/STM32F4xx_HAL_Driver/Src/stm32f4xx_hal_tim_ex.c ****   ==============================================================================
 884:Drivers/STM32F4xx_HAL_Driver/Src/stm32f4xx_hal_tim_ex.c ****   [..]
 885:Drivers/STM32F4xx_HAL_Driver/Src/stm32f4xx_hal_tim_ex.c ****     This section provides functions allowing to:
 886:Drivers/STM32F4xx_HAL_Driver/Src/stm32f4xx_hal_tim_ex.c ****     (+) Start the Complementary PWM.
 887:Drivers/STM32F4xx_HAL_Driver/Src/stm32f4xx_hal_tim_ex.c ****     (+) Stop the Complementary PWM.
 888:Drivers/STM32F4xx_HAL_Driver/Src/stm32f4xx_hal_tim_ex.c ****     (+) Start the Complementary PWM and enable interrupts.
 889:Drivers/STM32F4xx_HAL_Driver/Src/stm32f4xx_hal_tim_ex.c ****     (+) Stop the Complementary PWM and disable interrupts.
 890:Drivers/STM32F4xx_HAL_Driver/Src/stm32f4xx_hal_tim_ex.c ****     (+) Start the Complementary PWM and enable DMA transfers.
 891:Drivers/STM32F4xx_HAL_Driver/Src/stm32f4xx_hal_tim_ex.c ****     (+) Stop the Complementary PWM and disable DMA transfers.
 892:Drivers/STM32F4xx_HAL_Driver/Src/stm32f4xx_hal_tim_ex.c ****     (+) Start the Complementary Input Capture measurement.
 893:Drivers/STM32F4xx_HAL_Driver/Src/stm32f4xx_hal_tim_ex.c ****     (+) Stop the Complementary Input Capture.
 894:Drivers/STM32F4xx_HAL_Driver/Src/stm32f4xx_hal_tim_ex.c ****     (+) Start the Complementary Input Capture and enable interrupts.
 895:Drivers/STM32F4xx_HAL_Driver/Src/stm32f4xx_hal_tim_ex.c ****     (+) Stop the Complementary Input Capture and disable interrupts.
 896:Drivers/STM32F4xx_HAL_Driver/Src/stm32f4xx_hal_tim_ex.c ****     (+) Start the Complementary Input Capture and enable DMA transfers.
 897:Drivers/STM32F4xx_HAL_Driver/Src/stm32f4xx_hal_tim_ex.c ****     (+) Stop the Complementary Input Capture and disable DMA transfers.
 898:Drivers/STM32F4xx_HAL_Driver/Src/stm32f4xx_hal_tim_ex.c ****     (+) Start the Complementary One Pulse generation.
 899:Drivers/STM32F4xx_HAL_Driver/Src/stm32f4xx_hal_tim_ex.c ****     (+) Stop the Complementary One Pulse.
 900:Drivers/STM32F4xx_HAL_Driver/Src/stm32f4xx_hal_tim_ex.c ****     (+) Start the Complementary One Pulse and enable interrupts.
 901:Drivers/STM32F4xx_HAL_Driver/Src/stm32f4xx_hal_tim_ex.c ****     (+) Stop the Complementary One Pulse and disable interrupts.
 902:Drivers/STM32F4xx_HAL_Driver/Src/stm32f4xx_hal_tim_ex.c **** 
 903:Drivers/STM32F4xx_HAL_Driver/Src/stm32f4xx_hal_tim_ex.c **** @endverbatim
 904:Drivers/STM32F4xx_HAL_Driver/Src/stm32f4xx_hal_tim_ex.c ****   * @{
 905:Drivers/STM32F4xx_HAL_Driver/Src/stm32f4xx_hal_tim_ex.c ****   */
 906:Drivers/STM32F4xx_HAL_Driver/Src/stm32f4xx_hal_tim_ex.c **** 
 907:Drivers/STM32F4xx_HAL_Driver/Src/stm32f4xx_hal_tim_ex.c **** /**
 908:Drivers/STM32F4xx_HAL_Driver/Src/stm32f4xx_hal_tim_ex.c ****   * @brief  Starts the PWM signal generation on the complementary output.
 909:Drivers/STM32F4xx_HAL_Driver/Src/stm32f4xx_hal_tim_ex.c ****   * @param  htim TIM handle
 910:Drivers/STM32F4xx_HAL_Driver/Src/stm32f4xx_hal_tim_ex.c ****   * @param  Channel TIM Channel to be enabled
 911:Drivers/STM32F4xx_HAL_Driver/Src/stm32f4xx_hal_tim_ex.c ****   *          This parameter can be one of the following values:
 912:Drivers/STM32F4xx_HAL_Driver/Src/stm32f4xx_hal_tim_ex.c ****   *            @arg TIM_CHANNEL_1: TIM Channel 1 selected
 913:Drivers/STM32F4xx_HAL_Driver/Src/stm32f4xx_hal_tim_ex.c ****   *            @arg TIM_CHANNEL_2: TIM Channel 2 selected
 914:Drivers/STM32F4xx_HAL_Driver/Src/stm32f4xx_hal_tim_ex.c ****   *            @arg TIM_CHANNEL_3: TIM Channel 3 selected
 915:Drivers/STM32F4xx_HAL_Driver/Src/stm32f4xx_hal_tim_ex.c ****   * @retval HAL status
 916:Drivers/STM32F4xx_HAL_Driver/Src/stm32f4xx_hal_tim_ex.c ****   */
 917:Drivers/STM32F4xx_HAL_Driver/Src/stm32f4xx_hal_tim_ex.c **** HAL_StatusTypeDef HAL_TIMEx_PWMN_Start(TIM_HandleTypeDef *htim, uint32_t Channel)
 918:Drivers/STM32F4xx_HAL_Driver/Src/stm32f4xx_hal_tim_ex.c **** {
 1891              		.loc 1 918 1
 1892              		.cfi_startproc
 1893              		@ args = 0, pretend = 0, frame = 16
 1894              		@ frame_needed = 1, uses_anonymous_args = 0
 1895 0000 80B5     		push	{r7, lr}
 1896              	.LCFI82:
 1897              		.cfi_def_cfa_offset 8
 1898              		.cfi_offset 7, -8
 1899              		.cfi_offset 14, -4
 1900 0002 84B0     		sub	sp, sp, #16
 1901              	.LCFI83:
 1902              		.cfi_def_cfa_offset 24
 1903 0004 00AF     		add	r7, sp, #0
 1904              	.LCFI84:
 1905              		.cfi_def_cfa_register 7
 1906 0006 7860     		str	r0, [r7, #4]
 1907 0008 3960     		str	r1, [r7]
 919:Drivers/STM32F4xx_HAL_Driver/Src/stm32f4xx_hal_tim_ex.c ****   uint32_t tmpsmcr;
ARM GAS  /tmp/ccilmNhL.s 			page 50


 920:Drivers/STM32F4xx_HAL_Driver/Src/stm32f4xx_hal_tim_ex.c **** 
 921:Drivers/STM32F4xx_HAL_Driver/Src/stm32f4xx_hal_tim_ex.c ****   /* Check the parameters */
 922:Drivers/STM32F4xx_HAL_Driver/Src/stm32f4xx_hal_tim_ex.c ****   assert_param(IS_TIM_CCXN_INSTANCE(htim->Instance, Channel));
 923:Drivers/STM32F4xx_HAL_Driver/Src/stm32f4xx_hal_tim_ex.c **** 
 924:Drivers/STM32F4xx_HAL_Driver/Src/stm32f4xx_hal_tim_ex.c ****   /* Enable the complementary PWM output  */
 925:Drivers/STM32F4xx_HAL_Driver/Src/stm32f4xx_hal_tim_ex.c ****   TIM_CCxNChannelCmd(htim->Instance, Channel, TIM_CCxN_ENABLE);
 1908              		.loc 1 925 3
 1909 000a 7B68     		ldr	r3, [r7, #4]
 1910 000c 1B68     		ldr	r3, [r3]
 1911 000e 0422     		movs	r2, #4
 1912 0010 3968     		ldr	r1, [r7]
 1913 0012 1846     		mov	r0, r3
 1914 0014 FFF7FEFF 		bl	TIM_CCxNChannelCmd
 926:Drivers/STM32F4xx_HAL_Driver/Src/stm32f4xx_hal_tim_ex.c **** 
 927:Drivers/STM32F4xx_HAL_Driver/Src/stm32f4xx_hal_tim_ex.c ****   /* Enable the Main Output */
 928:Drivers/STM32F4xx_HAL_Driver/Src/stm32f4xx_hal_tim_ex.c ****   __HAL_TIM_MOE_ENABLE(htim);
 1915              		.loc 1 928 3
 1916 0018 7B68     		ldr	r3, [r7, #4]
 1917 001a 1B68     		ldr	r3, [r3]
 1918 001c 5A6C     		ldr	r2, [r3, #68]
 1919 001e 7B68     		ldr	r3, [r7, #4]
 1920 0020 1B68     		ldr	r3, [r3]
 1921 0022 42F40042 		orr	r2, r2, #32768
 1922 0026 5A64     		str	r2, [r3, #68]
 929:Drivers/STM32F4xx_HAL_Driver/Src/stm32f4xx_hal_tim_ex.c **** 
 930:Drivers/STM32F4xx_HAL_Driver/Src/stm32f4xx_hal_tim_ex.c ****   /* Enable the Peripheral, except in trigger mode where enable is automatically done with trigger 
 931:Drivers/STM32F4xx_HAL_Driver/Src/stm32f4xx_hal_tim_ex.c ****   tmpsmcr = htim->Instance->SMCR & TIM_SMCR_SMS;
 1923              		.loc 1 931 17
 1924 0028 7B68     		ldr	r3, [r7, #4]
 1925 002a 1B68     		ldr	r3, [r3]
 1926              		.loc 1 931 27
 1927 002c 9B68     		ldr	r3, [r3, #8]
 1928              		.loc 1 931 11
 1929 002e 03F00703 		and	r3, r3, #7
 1930 0032 FB60     		str	r3, [r7, #12]
 932:Drivers/STM32F4xx_HAL_Driver/Src/stm32f4xx_hal_tim_ex.c ****   if (!IS_TIM_SLAVEMODE_TRIGGER_ENABLED(tmpsmcr))
 1931              		.loc 1 932 6
 1932 0034 FB68     		ldr	r3, [r7, #12]
 1933 0036 062B     		cmp	r3, #6
 1934 0038 07D0     		beq	.L86
 933:Drivers/STM32F4xx_HAL_Driver/Src/stm32f4xx_hal_tim_ex.c ****   {
 934:Drivers/STM32F4xx_HAL_Driver/Src/stm32f4xx_hal_tim_ex.c ****     __HAL_TIM_ENABLE(htim);
 1935              		.loc 1 934 5
 1936 003a 7B68     		ldr	r3, [r7, #4]
 1937 003c 1B68     		ldr	r3, [r3]
 1938 003e 1A68     		ldr	r2, [r3]
 1939 0040 7B68     		ldr	r3, [r7, #4]
 1940 0042 1B68     		ldr	r3, [r3]
 1941 0044 42F00102 		orr	r2, r2, #1
 1942 0048 1A60     		str	r2, [r3]
 1943              	.L86:
 935:Drivers/STM32F4xx_HAL_Driver/Src/stm32f4xx_hal_tim_ex.c ****   }
 936:Drivers/STM32F4xx_HAL_Driver/Src/stm32f4xx_hal_tim_ex.c **** 
 937:Drivers/STM32F4xx_HAL_Driver/Src/stm32f4xx_hal_tim_ex.c ****   /* Return function status */
 938:Drivers/STM32F4xx_HAL_Driver/Src/stm32f4xx_hal_tim_ex.c ****   return HAL_OK;
 1944              		.loc 1 938 10
 1945 004a 0023     		movs	r3, #0
ARM GAS  /tmp/ccilmNhL.s 			page 51


 939:Drivers/STM32F4xx_HAL_Driver/Src/stm32f4xx_hal_tim_ex.c **** }
 1946              		.loc 1 939 1
 1947 004c 1846     		mov	r0, r3
 1948 004e 1037     		adds	r7, r7, #16
 1949              	.LCFI85:
 1950              		.cfi_def_cfa_offset 8
 1951 0050 BD46     		mov	sp, r7
 1952              	.LCFI86:
 1953              		.cfi_def_cfa_register 13
 1954              		@ sp needed
 1955 0052 80BD     		pop	{r7, pc}
 1956              		.cfi_endproc
 1957              	.LFE146:
 1959              		.section	.text.HAL_TIMEx_PWMN_Stop,"ax",%progbits
 1960              		.align	1
 1961              		.global	HAL_TIMEx_PWMN_Stop
 1962              		.syntax unified
 1963              		.thumb
 1964              		.thumb_func
 1965              		.fpu fpv4-sp-d16
 1967              	HAL_TIMEx_PWMN_Stop:
 1968              	.LFB147:
 940:Drivers/STM32F4xx_HAL_Driver/Src/stm32f4xx_hal_tim_ex.c **** 
 941:Drivers/STM32F4xx_HAL_Driver/Src/stm32f4xx_hal_tim_ex.c **** /**
 942:Drivers/STM32F4xx_HAL_Driver/Src/stm32f4xx_hal_tim_ex.c ****   * @brief  Stops the PWM signal generation on the complementary output.
 943:Drivers/STM32F4xx_HAL_Driver/Src/stm32f4xx_hal_tim_ex.c ****   * @param  htim TIM handle
 944:Drivers/STM32F4xx_HAL_Driver/Src/stm32f4xx_hal_tim_ex.c ****   * @param  Channel TIM Channel to be disabled
 945:Drivers/STM32F4xx_HAL_Driver/Src/stm32f4xx_hal_tim_ex.c ****   *          This parameter can be one of the following values:
 946:Drivers/STM32F4xx_HAL_Driver/Src/stm32f4xx_hal_tim_ex.c ****   *            @arg TIM_CHANNEL_1: TIM Channel 1 selected
 947:Drivers/STM32F4xx_HAL_Driver/Src/stm32f4xx_hal_tim_ex.c ****   *            @arg TIM_CHANNEL_2: TIM Channel 2 selected
 948:Drivers/STM32F4xx_HAL_Driver/Src/stm32f4xx_hal_tim_ex.c ****   *            @arg TIM_CHANNEL_3: TIM Channel 3 selected
 949:Drivers/STM32F4xx_HAL_Driver/Src/stm32f4xx_hal_tim_ex.c ****   * @retval HAL status
 950:Drivers/STM32F4xx_HAL_Driver/Src/stm32f4xx_hal_tim_ex.c ****   */
 951:Drivers/STM32F4xx_HAL_Driver/Src/stm32f4xx_hal_tim_ex.c **** HAL_StatusTypeDef HAL_TIMEx_PWMN_Stop(TIM_HandleTypeDef *htim, uint32_t Channel)
 952:Drivers/STM32F4xx_HAL_Driver/Src/stm32f4xx_hal_tim_ex.c **** {
 1969              		.loc 1 952 1
 1970              		.cfi_startproc
 1971              		@ args = 0, pretend = 0, frame = 8
 1972              		@ frame_needed = 1, uses_anonymous_args = 0
 1973 0000 80B5     		push	{r7, lr}
 1974              	.LCFI87:
 1975              		.cfi_def_cfa_offset 8
 1976              		.cfi_offset 7, -8
 1977              		.cfi_offset 14, -4
 1978 0002 82B0     		sub	sp, sp, #8
 1979              	.LCFI88:
 1980              		.cfi_def_cfa_offset 16
 1981 0004 00AF     		add	r7, sp, #0
 1982              	.LCFI89:
 1983              		.cfi_def_cfa_register 7
 1984 0006 7860     		str	r0, [r7, #4]
 1985 0008 3960     		str	r1, [r7]
 953:Drivers/STM32F4xx_HAL_Driver/Src/stm32f4xx_hal_tim_ex.c ****   /* Check the parameters */
 954:Drivers/STM32F4xx_HAL_Driver/Src/stm32f4xx_hal_tim_ex.c ****   assert_param(IS_TIM_CCXN_INSTANCE(htim->Instance, Channel));
 955:Drivers/STM32F4xx_HAL_Driver/Src/stm32f4xx_hal_tim_ex.c **** 
 956:Drivers/STM32F4xx_HAL_Driver/Src/stm32f4xx_hal_tim_ex.c ****   /* Disable the complementary PWM output  */
 957:Drivers/STM32F4xx_HAL_Driver/Src/stm32f4xx_hal_tim_ex.c ****   TIM_CCxNChannelCmd(htim->Instance, Channel, TIM_CCxN_DISABLE);
ARM GAS  /tmp/ccilmNhL.s 			page 52


 1986              		.loc 1 957 3
 1987 000a 7B68     		ldr	r3, [r7, #4]
 1988 000c 1B68     		ldr	r3, [r3]
 1989 000e 0022     		movs	r2, #0
 1990 0010 3968     		ldr	r1, [r7]
 1991 0012 1846     		mov	r0, r3
 1992 0014 FFF7FEFF 		bl	TIM_CCxNChannelCmd
 958:Drivers/STM32F4xx_HAL_Driver/Src/stm32f4xx_hal_tim_ex.c **** 
 959:Drivers/STM32F4xx_HAL_Driver/Src/stm32f4xx_hal_tim_ex.c ****   /* Disable the Main Output */
 960:Drivers/STM32F4xx_HAL_Driver/Src/stm32f4xx_hal_tim_ex.c ****   __HAL_TIM_MOE_DISABLE(htim);
 1993              		.loc 1 960 3
 1994 0018 7B68     		ldr	r3, [r7, #4]
 1995 001a 1B68     		ldr	r3, [r3]
 1996 001c 1A6A     		ldr	r2, [r3, #32]
 1997 001e 41F21113 		movw	r3, #4369
 1998 0022 1340     		ands	r3, r3, r2
 1999 0024 002B     		cmp	r3, #0
 2000 0026 0FD1     		bne	.L89
 2001              		.loc 1 960 3 is_stmt 0 discriminator 1
 2002 0028 7B68     		ldr	r3, [r7, #4]
 2003 002a 1B68     		ldr	r3, [r3]
 2004 002c 1A6A     		ldr	r2, [r3, #32]
 2005 002e 40F24443 		movw	r3, #1092
 2006 0032 1340     		ands	r3, r3, r2
 2007 0034 002B     		cmp	r3, #0
 2008 0036 07D1     		bne	.L89
 2009              		.loc 1 960 3 discriminator 2
 2010 0038 7B68     		ldr	r3, [r7, #4]
 2011 003a 1B68     		ldr	r3, [r3]
 2012 003c 5A6C     		ldr	r2, [r3, #68]
 2013 003e 7B68     		ldr	r3, [r7, #4]
 2014 0040 1B68     		ldr	r3, [r3]
 2015 0042 22F40042 		bic	r2, r2, #32768
 2016 0046 5A64     		str	r2, [r3, #68]
 2017              	.L89:
 961:Drivers/STM32F4xx_HAL_Driver/Src/stm32f4xx_hal_tim_ex.c **** 
 962:Drivers/STM32F4xx_HAL_Driver/Src/stm32f4xx_hal_tim_ex.c ****   /* Disable the Peripheral */
 963:Drivers/STM32F4xx_HAL_Driver/Src/stm32f4xx_hal_tim_ex.c ****   __HAL_TIM_DISABLE(htim);
 2018              		.loc 1 963 3 is_stmt 1
 2019 0048 7B68     		ldr	r3, [r7, #4]
 2020 004a 1B68     		ldr	r3, [r3]
 2021 004c 1A6A     		ldr	r2, [r3, #32]
 2022 004e 41F21113 		movw	r3, #4369
 2023 0052 1340     		ands	r3, r3, r2
 2024 0054 002B     		cmp	r3, #0
 2025 0056 0FD1     		bne	.L90
 2026              		.loc 1 963 3 is_stmt 0 discriminator 1
 2027 0058 7B68     		ldr	r3, [r7, #4]
 2028 005a 1B68     		ldr	r3, [r3]
 2029 005c 1A6A     		ldr	r2, [r3, #32]
 2030 005e 40F24443 		movw	r3, #1092
 2031 0062 1340     		ands	r3, r3, r2
 2032 0064 002B     		cmp	r3, #0
 2033 0066 07D1     		bne	.L90
 2034              		.loc 1 963 3 discriminator 2
 2035 0068 7B68     		ldr	r3, [r7, #4]
 2036 006a 1B68     		ldr	r3, [r3]
ARM GAS  /tmp/ccilmNhL.s 			page 53


 2037 006c 1A68     		ldr	r2, [r3]
 2038 006e 7B68     		ldr	r3, [r7, #4]
 2039 0070 1B68     		ldr	r3, [r3]
 2040 0072 22F00102 		bic	r2, r2, #1
 2041 0076 1A60     		str	r2, [r3]
 2042              	.L90:
 964:Drivers/STM32F4xx_HAL_Driver/Src/stm32f4xx_hal_tim_ex.c **** 
 965:Drivers/STM32F4xx_HAL_Driver/Src/stm32f4xx_hal_tim_ex.c ****   /* Return function status */
 966:Drivers/STM32F4xx_HAL_Driver/Src/stm32f4xx_hal_tim_ex.c ****   return HAL_OK;
 2043              		.loc 1 966 10 is_stmt 1
 2044 0078 0023     		movs	r3, #0
 967:Drivers/STM32F4xx_HAL_Driver/Src/stm32f4xx_hal_tim_ex.c **** }
 2045              		.loc 1 967 1
 2046 007a 1846     		mov	r0, r3
 2047 007c 0837     		adds	r7, r7, #8
 2048              	.LCFI90:
 2049              		.cfi_def_cfa_offset 8
 2050 007e BD46     		mov	sp, r7
 2051              	.LCFI91:
 2052              		.cfi_def_cfa_register 13
 2053              		@ sp needed
 2054 0080 80BD     		pop	{r7, pc}
 2055              		.cfi_endproc
 2056              	.LFE147:
 2058              		.section	.text.HAL_TIMEx_PWMN_Start_IT,"ax",%progbits
 2059              		.align	1
 2060              		.global	HAL_TIMEx_PWMN_Start_IT
 2061              		.syntax unified
 2062              		.thumb
 2063              		.thumb_func
 2064              		.fpu fpv4-sp-d16
 2066              	HAL_TIMEx_PWMN_Start_IT:
 2067              	.LFB148:
 968:Drivers/STM32F4xx_HAL_Driver/Src/stm32f4xx_hal_tim_ex.c **** 
 969:Drivers/STM32F4xx_HAL_Driver/Src/stm32f4xx_hal_tim_ex.c **** /**
 970:Drivers/STM32F4xx_HAL_Driver/Src/stm32f4xx_hal_tim_ex.c ****   * @brief  Starts the PWM signal generation in interrupt mode on the
 971:Drivers/STM32F4xx_HAL_Driver/Src/stm32f4xx_hal_tim_ex.c ****   *         complementary output.
 972:Drivers/STM32F4xx_HAL_Driver/Src/stm32f4xx_hal_tim_ex.c ****   * @param  htim TIM handle
 973:Drivers/STM32F4xx_HAL_Driver/Src/stm32f4xx_hal_tim_ex.c ****   * @param  Channel TIM Channel to be disabled
 974:Drivers/STM32F4xx_HAL_Driver/Src/stm32f4xx_hal_tim_ex.c ****   *          This parameter can be one of the following values:
 975:Drivers/STM32F4xx_HAL_Driver/Src/stm32f4xx_hal_tim_ex.c ****   *            @arg TIM_CHANNEL_1: TIM Channel 1 selected
 976:Drivers/STM32F4xx_HAL_Driver/Src/stm32f4xx_hal_tim_ex.c ****   *            @arg TIM_CHANNEL_2: TIM Channel 2 selected
 977:Drivers/STM32F4xx_HAL_Driver/Src/stm32f4xx_hal_tim_ex.c ****   *            @arg TIM_CHANNEL_3: TIM Channel 3 selected
 978:Drivers/STM32F4xx_HAL_Driver/Src/stm32f4xx_hal_tim_ex.c ****   * @retval HAL status
 979:Drivers/STM32F4xx_HAL_Driver/Src/stm32f4xx_hal_tim_ex.c ****   */
 980:Drivers/STM32F4xx_HAL_Driver/Src/stm32f4xx_hal_tim_ex.c **** HAL_StatusTypeDef HAL_TIMEx_PWMN_Start_IT(TIM_HandleTypeDef *htim, uint32_t Channel)
 981:Drivers/STM32F4xx_HAL_Driver/Src/stm32f4xx_hal_tim_ex.c **** {
 2068              		.loc 1 981 1
 2069              		.cfi_startproc
 2070              		@ args = 0, pretend = 0, frame = 16
 2071              		@ frame_needed = 1, uses_anonymous_args = 0
 2072 0000 80B5     		push	{r7, lr}
 2073              	.LCFI92:
 2074              		.cfi_def_cfa_offset 8
 2075              		.cfi_offset 7, -8
 2076              		.cfi_offset 14, -4
 2077 0002 84B0     		sub	sp, sp, #16
ARM GAS  /tmp/ccilmNhL.s 			page 54


 2078              	.LCFI93:
 2079              		.cfi_def_cfa_offset 24
 2080 0004 00AF     		add	r7, sp, #0
 2081              	.LCFI94:
 2082              		.cfi_def_cfa_register 7
 2083 0006 7860     		str	r0, [r7, #4]
 2084 0008 3960     		str	r1, [r7]
 982:Drivers/STM32F4xx_HAL_Driver/Src/stm32f4xx_hal_tim_ex.c ****   uint32_t tmpsmcr;
 983:Drivers/STM32F4xx_HAL_Driver/Src/stm32f4xx_hal_tim_ex.c **** 
 984:Drivers/STM32F4xx_HAL_Driver/Src/stm32f4xx_hal_tim_ex.c ****   /* Check the parameters */
 985:Drivers/STM32F4xx_HAL_Driver/Src/stm32f4xx_hal_tim_ex.c ****   assert_param(IS_TIM_CCXN_INSTANCE(htim->Instance, Channel));
 986:Drivers/STM32F4xx_HAL_Driver/Src/stm32f4xx_hal_tim_ex.c **** 
 987:Drivers/STM32F4xx_HAL_Driver/Src/stm32f4xx_hal_tim_ex.c ****   switch (Channel)
 2085              		.loc 1 987 3
 2086 000a 3B68     		ldr	r3, [r7]
 2087 000c 042B     		cmp	r3, #4
 2088 000e 0ED0     		beq	.L93
 2089 0010 3B68     		ldr	r3, [r7]
 2090 0012 082B     		cmp	r3, #8
 2091 0014 14D0     		beq	.L94
 2092 0016 3B68     		ldr	r3, [r7]
 2093 0018 002B     		cmp	r3, #0
 2094 001a 1AD1     		bne	.L99
 988:Drivers/STM32F4xx_HAL_Driver/Src/stm32f4xx_hal_tim_ex.c ****   {
 989:Drivers/STM32F4xx_HAL_Driver/Src/stm32f4xx_hal_tim_ex.c ****     case TIM_CHANNEL_1:
 990:Drivers/STM32F4xx_HAL_Driver/Src/stm32f4xx_hal_tim_ex.c ****     {
 991:Drivers/STM32F4xx_HAL_Driver/Src/stm32f4xx_hal_tim_ex.c ****       /* Enable the TIM Capture/Compare 1 interrupt */
 992:Drivers/STM32F4xx_HAL_Driver/Src/stm32f4xx_hal_tim_ex.c ****       __HAL_TIM_ENABLE_IT(htim, TIM_IT_CC1);
 2095              		.loc 1 992 7
 2096 001c 7B68     		ldr	r3, [r7, #4]
 2097 001e 1B68     		ldr	r3, [r3]
 2098 0020 DA68     		ldr	r2, [r3, #12]
 2099 0022 7B68     		ldr	r3, [r7, #4]
 2100 0024 1B68     		ldr	r3, [r3]
 2101 0026 42F00202 		orr	r2, r2, #2
 2102 002a DA60     		str	r2, [r3, #12]
 993:Drivers/STM32F4xx_HAL_Driver/Src/stm32f4xx_hal_tim_ex.c ****       break;
 2103              		.loc 1 993 7
 2104 002c 12E0     		b	.L96
 2105              	.L93:
 994:Drivers/STM32F4xx_HAL_Driver/Src/stm32f4xx_hal_tim_ex.c ****     }
 995:Drivers/STM32F4xx_HAL_Driver/Src/stm32f4xx_hal_tim_ex.c **** 
 996:Drivers/STM32F4xx_HAL_Driver/Src/stm32f4xx_hal_tim_ex.c ****     case TIM_CHANNEL_2:
 997:Drivers/STM32F4xx_HAL_Driver/Src/stm32f4xx_hal_tim_ex.c ****     {
 998:Drivers/STM32F4xx_HAL_Driver/Src/stm32f4xx_hal_tim_ex.c ****       /* Enable the TIM Capture/Compare 2 interrupt */
 999:Drivers/STM32F4xx_HAL_Driver/Src/stm32f4xx_hal_tim_ex.c ****       __HAL_TIM_ENABLE_IT(htim, TIM_IT_CC2);
 2106              		.loc 1 999 7
 2107 002e 7B68     		ldr	r3, [r7, #4]
 2108 0030 1B68     		ldr	r3, [r3]
 2109 0032 DA68     		ldr	r2, [r3, #12]
 2110 0034 7B68     		ldr	r3, [r7, #4]
 2111 0036 1B68     		ldr	r3, [r3]
 2112 0038 42F00402 		orr	r2, r2, #4
 2113 003c DA60     		str	r2, [r3, #12]
1000:Drivers/STM32F4xx_HAL_Driver/Src/stm32f4xx_hal_tim_ex.c ****       break;
 2114              		.loc 1 1000 7
 2115 003e 09E0     		b	.L96
ARM GAS  /tmp/ccilmNhL.s 			page 55


 2116              	.L94:
1001:Drivers/STM32F4xx_HAL_Driver/Src/stm32f4xx_hal_tim_ex.c ****     }
1002:Drivers/STM32F4xx_HAL_Driver/Src/stm32f4xx_hal_tim_ex.c **** 
1003:Drivers/STM32F4xx_HAL_Driver/Src/stm32f4xx_hal_tim_ex.c ****     case TIM_CHANNEL_3:
1004:Drivers/STM32F4xx_HAL_Driver/Src/stm32f4xx_hal_tim_ex.c ****     {
1005:Drivers/STM32F4xx_HAL_Driver/Src/stm32f4xx_hal_tim_ex.c ****       /* Enable the TIM Capture/Compare 3 interrupt */
1006:Drivers/STM32F4xx_HAL_Driver/Src/stm32f4xx_hal_tim_ex.c ****       __HAL_TIM_ENABLE_IT(htim, TIM_IT_CC3);
 2117              		.loc 1 1006 7
 2118 0040 7B68     		ldr	r3, [r7, #4]
 2119 0042 1B68     		ldr	r3, [r3]
 2120 0044 DA68     		ldr	r2, [r3, #12]
 2121 0046 7B68     		ldr	r3, [r7, #4]
 2122 0048 1B68     		ldr	r3, [r3]
 2123 004a 42F00802 		orr	r2, r2, #8
 2124 004e DA60     		str	r2, [r3, #12]
1007:Drivers/STM32F4xx_HAL_Driver/Src/stm32f4xx_hal_tim_ex.c ****       break;
 2125              		.loc 1 1007 7
 2126 0050 00E0     		b	.L96
 2127              	.L99:
1008:Drivers/STM32F4xx_HAL_Driver/Src/stm32f4xx_hal_tim_ex.c ****     }
1009:Drivers/STM32F4xx_HAL_Driver/Src/stm32f4xx_hal_tim_ex.c **** 
1010:Drivers/STM32F4xx_HAL_Driver/Src/stm32f4xx_hal_tim_ex.c ****     default:
1011:Drivers/STM32F4xx_HAL_Driver/Src/stm32f4xx_hal_tim_ex.c ****       break;
 2128              		.loc 1 1011 7
 2129 0052 00BF     		nop
 2130              	.L96:
1012:Drivers/STM32F4xx_HAL_Driver/Src/stm32f4xx_hal_tim_ex.c ****   }
1013:Drivers/STM32F4xx_HAL_Driver/Src/stm32f4xx_hal_tim_ex.c **** 
1014:Drivers/STM32F4xx_HAL_Driver/Src/stm32f4xx_hal_tim_ex.c ****   /* Enable the TIM Break interrupt */
1015:Drivers/STM32F4xx_HAL_Driver/Src/stm32f4xx_hal_tim_ex.c ****   __HAL_TIM_ENABLE_IT(htim, TIM_IT_BREAK);
 2131              		.loc 1 1015 3
 2132 0054 7B68     		ldr	r3, [r7, #4]
 2133 0056 1B68     		ldr	r3, [r3]
 2134 0058 DA68     		ldr	r2, [r3, #12]
 2135 005a 7B68     		ldr	r3, [r7, #4]
 2136 005c 1B68     		ldr	r3, [r3]
 2137 005e 42F08002 		orr	r2, r2, #128
 2138 0062 DA60     		str	r2, [r3, #12]
1016:Drivers/STM32F4xx_HAL_Driver/Src/stm32f4xx_hal_tim_ex.c **** 
1017:Drivers/STM32F4xx_HAL_Driver/Src/stm32f4xx_hal_tim_ex.c ****   /* Enable the complementary PWM output  */
1018:Drivers/STM32F4xx_HAL_Driver/Src/stm32f4xx_hal_tim_ex.c ****   TIM_CCxNChannelCmd(htim->Instance, Channel, TIM_CCxN_ENABLE);
 2139              		.loc 1 1018 3
 2140 0064 7B68     		ldr	r3, [r7, #4]
 2141 0066 1B68     		ldr	r3, [r3]
 2142 0068 0422     		movs	r2, #4
 2143 006a 3968     		ldr	r1, [r7]
 2144 006c 1846     		mov	r0, r3
 2145 006e FFF7FEFF 		bl	TIM_CCxNChannelCmd
1019:Drivers/STM32F4xx_HAL_Driver/Src/stm32f4xx_hal_tim_ex.c **** 
1020:Drivers/STM32F4xx_HAL_Driver/Src/stm32f4xx_hal_tim_ex.c ****   /* Enable the Main Output */
1021:Drivers/STM32F4xx_HAL_Driver/Src/stm32f4xx_hal_tim_ex.c ****   __HAL_TIM_MOE_ENABLE(htim);
 2146              		.loc 1 1021 3
 2147 0072 7B68     		ldr	r3, [r7, #4]
 2148 0074 1B68     		ldr	r3, [r3]
 2149 0076 5A6C     		ldr	r2, [r3, #68]
 2150 0078 7B68     		ldr	r3, [r7, #4]
 2151 007a 1B68     		ldr	r3, [r3]
ARM GAS  /tmp/ccilmNhL.s 			page 56


 2152 007c 42F40042 		orr	r2, r2, #32768
 2153 0080 5A64     		str	r2, [r3, #68]
1022:Drivers/STM32F4xx_HAL_Driver/Src/stm32f4xx_hal_tim_ex.c **** 
1023:Drivers/STM32F4xx_HAL_Driver/Src/stm32f4xx_hal_tim_ex.c ****   /* Enable the Peripheral, except in trigger mode where enable is automatically done with trigger 
1024:Drivers/STM32F4xx_HAL_Driver/Src/stm32f4xx_hal_tim_ex.c ****   tmpsmcr = htim->Instance->SMCR & TIM_SMCR_SMS;
 2154              		.loc 1 1024 17
 2155 0082 7B68     		ldr	r3, [r7, #4]
 2156 0084 1B68     		ldr	r3, [r3]
 2157              		.loc 1 1024 27
 2158 0086 9B68     		ldr	r3, [r3, #8]
 2159              		.loc 1 1024 11
 2160 0088 03F00703 		and	r3, r3, #7
 2161 008c FB60     		str	r3, [r7, #12]
1025:Drivers/STM32F4xx_HAL_Driver/Src/stm32f4xx_hal_tim_ex.c ****   if (!IS_TIM_SLAVEMODE_TRIGGER_ENABLED(tmpsmcr))
 2162              		.loc 1 1025 6
 2163 008e FB68     		ldr	r3, [r7, #12]
 2164 0090 062B     		cmp	r3, #6
 2165 0092 07D0     		beq	.L97
1026:Drivers/STM32F4xx_HAL_Driver/Src/stm32f4xx_hal_tim_ex.c ****   {
1027:Drivers/STM32F4xx_HAL_Driver/Src/stm32f4xx_hal_tim_ex.c ****     __HAL_TIM_ENABLE(htim);
 2166              		.loc 1 1027 5
 2167 0094 7B68     		ldr	r3, [r7, #4]
 2168 0096 1B68     		ldr	r3, [r3]
 2169 0098 1A68     		ldr	r2, [r3]
 2170 009a 7B68     		ldr	r3, [r7, #4]
 2171 009c 1B68     		ldr	r3, [r3]
 2172 009e 42F00102 		orr	r2, r2, #1
 2173 00a2 1A60     		str	r2, [r3]
 2174              	.L97:
1028:Drivers/STM32F4xx_HAL_Driver/Src/stm32f4xx_hal_tim_ex.c ****   }
1029:Drivers/STM32F4xx_HAL_Driver/Src/stm32f4xx_hal_tim_ex.c **** 
1030:Drivers/STM32F4xx_HAL_Driver/Src/stm32f4xx_hal_tim_ex.c ****   /* Return function status */
1031:Drivers/STM32F4xx_HAL_Driver/Src/stm32f4xx_hal_tim_ex.c ****   return HAL_OK;
 2175              		.loc 1 1031 10
 2176 00a4 0023     		movs	r3, #0
1032:Drivers/STM32F4xx_HAL_Driver/Src/stm32f4xx_hal_tim_ex.c **** }
 2177              		.loc 1 1032 1
 2178 00a6 1846     		mov	r0, r3
 2179 00a8 1037     		adds	r7, r7, #16
 2180              	.LCFI95:
 2181              		.cfi_def_cfa_offset 8
 2182 00aa BD46     		mov	sp, r7
 2183              	.LCFI96:
 2184              		.cfi_def_cfa_register 13
 2185              		@ sp needed
 2186 00ac 80BD     		pop	{r7, pc}
 2187              		.cfi_endproc
 2188              	.LFE148:
 2190              		.section	.text.HAL_TIMEx_PWMN_Stop_IT,"ax",%progbits
 2191              		.align	1
 2192              		.global	HAL_TIMEx_PWMN_Stop_IT
 2193              		.syntax unified
 2194              		.thumb
 2195              		.thumb_func
 2196              		.fpu fpv4-sp-d16
 2198              	HAL_TIMEx_PWMN_Stop_IT:
 2199              	.LFB149:
ARM GAS  /tmp/ccilmNhL.s 			page 57


1033:Drivers/STM32F4xx_HAL_Driver/Src/stm32f4xx_hal_tim_ex.c **** 
1034:Drivers/STM32F4xx_HAL_Driver/Src/stm32f4xx_hal_tim_ex.c **** /**
1035:Drivers/STM32F4xx_HAL_Driver/Src/stm32f4xx_hal_tim_ex.c ****   * @brief  Stops the PWM signal generation in interrupt mode on the
1036:Drivers/STM32F4xx_HAL_Driver/Src/stm32f4xx_hal_tim_ex.c ****   *         complementary output.
1037:Drivers/STM32F4xx_HAL_Driver/Src/stm32f4xx_hal_tim_ex.c ****   * @param  htim TIM handle
1038:Drivers/STM32F4xx_HAL_Driver/Src/stm32f4xx_hal_tim_ex.c ****   * @param  Channel TIM Channel to be disabled
1039:Drivers/STM32F4xx_HAL_Driver/Src/stm32f4xx_hal_tim_ex.c ****   *          This parameter can be one of the following values:
1040:Drivers/STM32F4xx_HAL_Driver/Src/stm32f4xx_hal_tim_ex.c ****   *            @arg TIM_CHANNEL_1: TIM Channel 1 selected
1041:Drivers/STM32F4xx_HAL_Driver/Src/stm32f4xx_hal_tim_ex.c ****   *            @arg TIM_CHANNEL_2: TIM Channel 2 selected
1042:Drivers/STM32F4xx_HAL_Driver/Src/stm32f4xx_hal_tim_ex.c ****   *            @arg TIM_CHANNEL_3: TIM Channel 3 selected
1043:Drivers/STM32F4xx_HAL_Driver/Src/stm32f4xx_hal_tim_ex.c ****   * @retval HAL status
1044:Drivers/STM32F4xx_HAL_Driver/Src/stm32f4xx_hal_tim_ex.c ****   */
1045:Drivers/STM32F4xx_HAL_Driver/Src/stm32f4xx_hal_tim_ex.c **** HAL_StatusTypeDef HAL_TIMEx_PWMN_Stop_IT(TIM_HandleTypeDef *htim, uint32_t Channel)
1046:Drivers/STM32F4xx_HAL_Driver/Src/stm32f4xx_hal_tim_ex.c **** {
 2200              		.loc 1 1046 1
 2201              		.cfi_startproc
 2202              		@ args = 0, pretend = 0, frame = 16
 2203              		@ frame_needed = 1, uses_anonymous_args = 0
 2204 0000 80B5     		push	{r7, lr}
 2205              	.LCFI97:
 2206              		.cfi_def_cfa_offset 8
 2207              		.cfi_offset 7, -8
 2208              		.cfi_offset 14, -4
 2209 0002 84B0     		sub	sp, sp, #16
 2210              	.LCFI98:
 2211              		.cfi_def_cfa_offset 24
 2212 0004 00AF     		add	r7, sp, #0
 2213              	.LCFI99:
 2214              		.cfi_def_cfa_register 7
 2215 0006 7860     		str	r0, [r7, #4]
 2216 0008 3960     		str	r1, [r7]
1047:Drivers/STM32F4xx_HAL_Driver/Src/stm32f4xx_hal_tim_ex.c ****   uint32_t tmpccer;
1048:Drivers/STM32F4xx_HAL_Driver/Src/stm32f4xx_hal_tim_ex.c **** 
1049:Drivers/STM32F4xx_HAL_Driver/Src/stm32f4xx_hal_tim_ex.c ****   /* Check the parameters */
1050:Drivers/STM32F4xx_HAL_Driver/Src/stm32f4xx_hal_tim_ex.c ****   assert_param(IS_TIM_CCXN_INSTANCE(htim->Instance, Channel));
1051:Drivers/STM32F4xx_HAL_Driver/Src/stm32f4xx_hal_tim_ex.c **** 
1052:Drivers/STM32F4xx_HAL_Driver/Src/stm32f4xx_hal_tim_ex.c ****   switch (Channel)
 2217              		.loc 1 1052 3
 2218 000a 3B68     		ldr	r3, [r7]
 2219 000c 042B     		cmp	r3, #4
 2220 000e 0ED0     		beq	.L101
 2221 0010 3B68     		ldr	r3, [r7]
 2222 0012 082B     		cmp	r3, #8
 2223 0014 14D0     		beq	.L102
 2224 0016 3B68     		ldr	r3, [r7]
 2225 0018 002B     		cmp	r3, #0
 2226 001a 1AD1     		bne	.L109
1053:Drivers/STM32F4xx_HAL_Driver/Src/stm32f4xx_hal_tim_ex.c ****   {
1054:Drivers/STM32F4xx_HAL_Driver/Src/stm32f4xx_hal_tim_ex.c ****     case TIM_CHANNEL_1:
1055:Drivers/STM32F4xx_HAL_Driver/Src/stm32f4xx_hal_tim_ex.c ****     {
1056:Drivers/STM32F4xx_HAL_Driver/Src/stm32f4xx_hal_tim_ex.c ****       /* Disable the TIM Capture/Compare 1 interrupt */
1057:Drivers/STM32F4xx_HAL_Driver/Src/stm32f4xx_hal_tim_ex.c ****       __HAL_TIM_DISABLE_IT(htim, TIM_IT_CC1);
 2227              		.loc 1 1057 7
 2228 001c 7B68     		ldr	r3, [r7, #4]
 2229 001e 1B68     		ldr	r3, [r3]
 2230 0020 DA68     		ldr	r2, [r3, #12]
 2231 0022 7B68     		ldr	r3, [r7, #4]
ARM GAS  /tmp/ccilmNhL.s 			page 58


 2232 0024 1B68     		ldr	r3, [r3]
 2233 0026 22F00202 		bic	r2, r2, #2
 2234 002a DA60     		str	r2, [r3, #12]
1058:Drivers/STM32F4xx_HAL_Driver/Src/stm32f4xx_hal_tim_ex.c ****       break;
 2235              		.loc 1 1058 7
 2236 002c 12E0     		b	.L104
 2237              	.L101:
1059:Drivers/STM32F4xx_HAL_Driver/Src/stm32f4xx_hal_tim_ex.c ****     }
1060:Drivers/STM32F4xx_HAL_Driver/Src/stm32f4xx_hal_tim_ex.c **** 
1061:Drivers/STM32F4xx_HAL_Driver/Src/stm32f4xx_hal_tim_ex.c ****     case TIM_CHANNEL_2:
1062:Drivers/STM32F4xx_HAL_Driver/Src/stm32f4xx_hal_tim_ex.c ****     {
1063:Drivers/STM32F4xx_HAL_Driver/Src/stm32f4xx_hal_tim_ex.c ****       /* Disable the TIM Capture/Compare 2 interrupt */
1064:Drivers/STM32F4xx_HAL_Driver/Src/stm32f4xx_hal_tim_ex.c ****       __HAL_TIM_DISABLE_IT(htim, TIM_IT_CC2);
 2238              		.loc 1 1064 7
 2239 002e 7B68     		ldr	r3, [r7, #4]
 2240 0030 1B68     		ldr	r3, [r3]
 2241 0032 DA68     		ldr	r2, [r3, #12]
 2242 0034 7B68     		ldr	r3, [r7, #4]
 2243 0036 1B68     		ldr	r3, [r3]
 2244 0038 22F00402 		bic	r2, r2, #4
 2245 003c DA60     		str	r2, [r3, #12]
1065:Drivers/STM32F4xx_HAL_Driver/Src/stm32f4xx_hal_tim_ex.c ****       break;
 2246              		.loc 1 1065 7
 2247 003e 09E0     		b	.L104
 2248              	.L102:
1066:Drivers/STM32F4xx_HAL_Driver/Src/stm32f4xx_hal_tim_ex.c ****     }
1067:Drivers/STM32F4xx_HAL_Driver/Src/stm32f4xx_hal_tim_ex.c **** 
1068:Drivers/STM32F4xx_HAL_Driver/Src/stm32f4xx_hal_tim_ex.c ****     case TIM_CHANNEL_3:
1069:Drivers/STM32F4xx_HAL_Driver/Src/stm32f4xx_hal_tim_ex.c ****     {
1070:Drivers/STM32F4xx_HAL_Driver/Src/stm32f4xx_hal_tim_ex.c ****       /* Disable the TIM Capture/Compare 3 interrupt */
1071:Drivers/STM32F4xx_HAL_Driver/Src/stm32f4xx_hal_tim_ex.c ****       __HAL_TIM_DISABLE_IT(htim, TIM_IT_CC3);
 2249              		.loc 1 1071 7
 2250 0040 7B68     		ldr	r3, [r7, #4]
 2251 0042 1B68     		ldr	r3, [r3]
 2252 0044 DA68     		ldr	r2, [r3, #12]
 2253 0046 7B68     		ldr	r3, [r7, #4]
 2254 0048 1B68     		ldr	r3, [r3]
 2255 004a 22F00802 		bic	r2, r2, #8
 2256 004e DA60     		str	r2, [r3, #12]
1072:Drivers/STM32F4xx_HAL_Driver/Src/stm32f4xx_hal_tim_ex.c ****       break;
 2257              		.loc 1 1072 7
 2258 0050 00E0     		b	.L104
 2259              	.L109:
1073:Drivers/STM32F4xx_HAL_Driver/Src/stm32f4xx_hal_tim_ex.c ****     }
1074:Drivers/STM32F4xx_HAL_Driver/Src/stm32f4xx_hal_tim_ex.c **** 
1075:Drivers/STM32F4xx_HAL_Driver/Src/stm32f4xx_hal_tim_ex.c ****     default:
1076:Drivers/STM32F4xx_HAL_Driver/Src/stm32f4xx_hal_tim_ex.c ****       break;
 2260              		.loc 1 1076 7
 2261 0052 00BF     		nop
 2262              	.L104:
1077:Drivers/STM32F4xx_HAL_Driver/Src/stm32f4xx_hal_tim_ex.c ****   }
1078:Drivers/STM32F4xx_HAL_Driver/Src/stm32f4xx_hal_tim_ex.c **** 
1079:Drivers/STM32F4xx_HAL_Driver/Src/stm32f4xx_hal_tim_ex.c ****   /* Disable the complementary PWM output  */
1080:Drivers/STM32F4xx_HAL_Driver/Src/stm32f4xx_hal_tim_ex.c ****   TIM_CCxNChannelCmd(htim->Instance, Channel, TIM_CCxN_DISABLE);
 2263              		.loc 1 1080 3
 2264 0054 7B68     		ldr	r3, [r7, #4]
 2265 0056 1B68     		ldr	r3, [r3]
ARM GAS  /tmp/ccilmNhL.s 			page 59


 2266 0058 0022     		movs	r2, #0
 2267 005a 3968     		ldr	r1, [r7]
 2268 005c 1846     		mov	r0, r3
 2269 005e FFF7FEFF 		bl	TIM_CCxNChannelCmd
1081:Drivers/STM32F4xx_HAL_Driver/Src/stm32f4xx_hal_tim_ex.c **** 
1082:Drivers/STM32F4xx_HAL_Driver/Src/stm32f4xx_hal_tim_ex.c ****   /* Disable the TIM Break interrupt (only if no more channel is active) */
1083:Drivers/STM32F4xx_HAL_Driver/Src/stm32f4xx_hal_tim_ex.c ****   tmpccer = htim->Instance->CCER;
 2270              		.loc 1 1083 17
 2271 0062 7B68     		ldr	r3, [r7, #4]
 2272 0064 1B68     		ldr	r3, [r3]
 2273              		.loc 1 1083 11
 2274 0066 1B6A     		ldr	r3, [r3, #32]
 2275 0068 FB60     		str	r3, [r7, #12]
1084:Drivers/STM32F4xx_HAL_Driver/Src/stm32f4xx_hal_tim_ex.c ****   if ((tmpccer & (TIM_CCER_CC1NE | TIM_CCER_CC2NE | TIM_CCER_CC3NE)) == (uint32_t)RESET)
 2276              		.loc 1 1084 16
 2277 006a FA68     		ldr	r2, [r7, #12]
 2278 006c 40F24443 		movw	r3, #1092
 2279 0070 1340     		ands	r3, r3, r2
 2280              		.loc 1 1084 6
 2281 0072 002B     		cmp	r3, #0
 2282 0074 07D1     		bne	.L105
1085:Drivers/STM32F4xx_HAL_Driver/Src/stm32f4xx_hal_tim_ex.c ****   {
1086:Drivers/STM32F4xx_HAL_Driver/Src/stm32f4xx_hal_tim_ex.c ****     __HAL_TIM_DISABLE_IT(htim, TIM_IT_BREAK);
 2283              		.loc 1 1086 5
 2284 0076 7B68     		ldr	r3, [r7, #4]
 2285 0078 1B68     		ldr	r3, [r3]
 2286 007a DA68     		ldr	r2, [r3, #12]
 2287 007c 7B68     		ldr	r3, [r7, #4]
 2288 007e 1B68     		ldr	r3, [r3]
 2289 0080 22F08002 		bic	r2, r2, #128
 2290 0084 DA60     		str	r2, [r3, #12]
 2291              	.L105:
1087:Drivers/STM32F4xx_HAL_Driver/Src/stm32f4xx_hal_tim_ex.c ****   }
1088:Drivers/STM32F4xx_HAL_Driver/Src/stm32f4xx_hal_tim_ex.c **** 
1089:Drivers/STM32F4xx_HAL_Driver/Src/stm32f4xx_hal_tim_ex.c ****   /* Disable the Main Output */
1090:Drivers/STM32F4xx_HAL_Driver/Src/stm32f4xx_hal_tim_ex.c ****   __HAL_TIM_MOE_DISABLE(htim);
 2292              		.loc 1 1090 3
 2293 0086 7B68     		ldr	r3, [r7, #4]
 2294 0088 1B68     		ldr	r3, [r3]
 2295 008a 1A6A     		ldr	r2, [r3, #32]
 2296 008c 41F21113 		movw	r3, #4369
 2297 0090 1340     		ands	r3, r3, r2
 2298 0092 002B     		cmp	r3, #0
 2299 0094 0FD1     		bne	.L106
 2300              		.loc 1 1090 3 is_stmt 0 discriminator 1
 2301 0096 7B68     		ldr	r3, [r7, #4]
 2302 0098 1B68     		ldr	r3, [r3]
 2303 009a 1A6A     		ldr	r2, [r3, #32]
 2304 009c 40F24443 		movw	r3, #1092
 2305 00a0 1340     		ands	r3, r3, r2
 2306 00a2 002B     		cmp	r3, #0
 2307 00a4 07D1     		bne	.L106
 2308              		.loc 1 1090 3 discriminator 2
 2309 00a6 7B68     		ldr	r3, [r7, #4]
 2310 00a8 1B68     		ldr	r3, [r3]
 2311 00aa 5A6C     		ldr	r2, [r3, #68]
 2312 00ac 7B68     		ldr	r3, [r7, #4]
ARM GAS  /tmp/ccilmNhL.s 			page 60


 2313 00ae 1B68     		ldr	r3, [r3]
 2314 00b0 22F40042 		bic	r2, r2, #32768
 2315 00b4 5A64     		str	r2, [r3, #68]
 2316              	.L106:
1091:Drivers/STM32F4xx_HAL_Driver/Src/stm32f4xx_hal_tim_ex.c **** 
1092:Drivers/STM32F4xx_HAL_Driver/Src/stm32f4xx_hal_tim_ex.c ****   /* Disable the Peripheral */
1093:Drivers/STM32F4xx_HAL_Driver/Src/stm32f4xx_hal_tim_ex.c ****   __HAL_TIM_DISABLE(htim);
 2317              		.loc 1 1093 3 is_stmt 1
 2318 00b6 7B68     		ldr	r3, [r7, #4]
 2319 00b8 1B68     		ldr	r3, [r3]
 2320 00ba 1A6A     		ldr	r2, [r3, #32]
 2321 00bc 41F21113 		movw	r3, #4369
 2322 00c0 1340     		ands	r3, r3, r2
 2323 00c2 002B     		cmp	r3, #0
 2324 00c4 0FD1     		bne	.L107
 2325              		.loc 1 1093 3 is_stmt 0 discriminator 1
 2326 00c6 7B68     		ldr	r3, [r7, #4]
 2327 00c8 1B68     		ldr	r3, [r3]
 2328 00ca 1A6A     		ldr	r2, [r3, #32]
 2329 00cc 40F24443 		movw	r3, #1092
 2330 00d0 1340     		ands	r3, r3, r2
 2331 00d2 002B     		cmp	r3, #0
 2332 00d4 07D1     		bne	.L107
 2333              		.loc 1 1093 3 discriminator 2
 2334 00d6 7B68     		ldr	r3, [r7, #4]
 2335 00d8 1B68     		ldr	r3, [r3]
 2336 00da 1A68     		ldr	r2, [r3]
 2337 00dc 7B68     		ldr	r3, [r7, #4]
 2338 00de 1B68     		ldr	r3, [r3]
 2339 00e0 22F00102 		bic	r2, r2, #1
 2340 00e4 1A60     		str	r2, [r3]
 2341              	.L107:
1094:Drivers/STM32F4xx_HAL_Driver/Src/stm32f4xx_hal_tim_ex.c **** 
1095:Drivers/STM32F4xx_HAL_Driver/Src/stm32f4xx_hal_tim_ex.c ****   /* Return function status */
1096:Drivers/STM32F4xx_HAL_Driver/Src/stm32f4xx_hal_tim_ex.c ****   return HAL_OK;
 2342              		.loc 1 1096 10 is_stmt 1
 2343 00e6 0023     		movs	r3, #0
1097:Drivers/STM32F4xx_HAL_Driver/Src/stm32f4xx_hal_tim_ex.c **** }
 2344              		.loc 1 1097 1
 2345 00e8 1846     		mov	r0, r3
 2346 00ea 1037     		adds	r7, r7, #16
 2347              	.LCFI100:
 2348              		.cfi_def_cfa_offset 8
 2349 00ec BD46     		mov	sp, r7
 2350              	.LCFI101:
 2351              		.cfi_def_cfa_register 13
 2352              		@ sp needed
 2353 00ee 80BD     		pop	{r7, pc}
 2354              		.cfi_endproc
 2355              	.LFE149:
 2357              		.section	.text.HAL_TIMEx_PWMN_Start_DMA,"ax",%progbits
 2358              		.align	1
 2359              		.global	HAL_TIMEx_PWMN_Start_DMA
 2360              		.syntax unified
 2361              		.thumb
 2362              		.thumb_func
 2363              		.fpu fpv4-sp-d16
ARM GAS  /tmp/ccilmNhL.s 			page 61


 2365              	HAL_TIMEx_PWMN_Start_DMA:
 2366              	.LFB150:
1098:Drivers/STM32F4xx_HAL_Driver/Src/stm32f4xx_hal_tim_ex.c **** 
1099:Drivers/STM32F4xx_HAL_Driver/Src/stm32f4xx_hal_tim_ex.c **** /**
1100:Drivers/STM32F4xx_HAL_Driver/Src/stm32f4xx_hal_tim_ex.c ****   * @brief  Starts the TIM PWM signal generation in DMA mode on the
1101:Drivers/STM32F4xx_HAL_Driver/Src/stm32f4xx_hal_tim_ex.c ****   *         complementary output
1102:Drivers/STM32F4xx_HAL_Driver/Src/stm32f4xx_hal_tim_ex.c ****   * @param  htim TIM handle
1103:Drivers/STM32F4xx_HAL_Driver/Src/stm32f4xx_hal_tim_ex.c ****   * @param  Channel TIM Channel to be enabled
1104:Drivers/STM32F4xx_HAL_Driver/Src/stm32f4xx_hal_tim_ex.c ****   *          This parameter can be one of the following values:
1105:Drivers/STM32F4xx_HAL_Driver/Src/stm32f4xx_hal_tim_ex.c ****   *            @arg TIM_CHANNEL_1: TIM Channel 1 selected
1106:Drivers/STM32F4xx_HAL_Driver/Src/stm32f4xx_hal_tim_ex.c ****   *            @arg TIM_CHANNEL_2: TIM Channel 2 selected
1107:Drivers/STM32F4xx_HAL_Driver/Src/stm32f4xx_hal_tim_ex.c ****   *            @arg TIM_CHANNEL_3: TIM Channel 3 selected
1108:Drivers/STM32F4xx_HAL_Driver/Src/stm32f4xx_hal_tim_ex.c ****   * @param  pData The source Buffer address.
1109:Drivers/STM32F4xx_HAL_Driver/Src/stm32f4xx_hal_tim_ex.c ****   * @param  Length The length of data to be transferred from memory to TIM peripheral
1110:Drivers/STM32F4xx_HAL_Driver/Src/stm32f4xx_hal_tim_ex.c ****   * @retval HAL status
1111:Drivers/STM32F4xx_HAL_Driver/Src/stm32f4xx_hal_tim_ex.c ****   */
1112:Drivers/STM32F4xx_HAL_Driver/Src/stm32f4xx_hal_tim_ex.c **** HAL_StatusTypeDef HAL_TIMEx_PWMN_Start_DMA(TIM_HandleTypeDef *htim, uint32_t Channel, uint32_t *pDa
1113:Drivers/STM32F4xx_HAL_Driver/Src/stm32f4xx_hal_tim_ex.c **** {
 2367              		.loc 1 1113 1
 2368              		.cfi_startproc
 2369              		@ args = 0, pretend = 0, frame = 24
 2370              		@ frame_needed = 1, uses_anonymous_args = 0
 2371 0000 80B5     		push	{r7, lr}
 2372              	.LCFI102:
 2373              		.cfi_def_cfa_offset 8
 2374              		.cfi_offset 7, -8
 2375              		.cfi_offset 14, -4
 2376 0002 86B0     		sub	sp, sp, #24
 2377              	.LCFI103:
 2378              		.cfi_def_cfa_offset 32
 2379 0004 00AF     		add	r7, sp, #0
 2380              	.LCFI104:
 2381              		.cfi_def_cfa_register 7
 2382 0006 F860     		str	r0, [r7, #12]
 2383 0008 B960     		str	r1, [r7, #8]
 2384 000a 7A60     		str	r2, [r7, #4]
 2385 000c 7B80     		strh	r3, [r7, #2]	@ movhi
1114:Drivers/STM32F4xx_HAL_Driver/Src/stm32f4xx_hal_tim_ex.c ****   uint32_t tmpsmcr;
1115:Drivers/STM32F4xx_HAL_Driver/Src/stm32f4xx_hal_tim_ex.c **** 
1116:Drivers/STM32F4xx_HAL_Driver/Src/stm32f4xx_hal_tim_ex.c ****   /* Check the parameters */
1117:Drivers/STM32F4xx_HAL_Driver/Src/stm32f4xx_hal_tim_ex.c ****   assert_param(IS_TIM_CCXN_INSTANCE(htim->Instance, Channel));
1118:Drivers/STM32F4xx_HAL_Driver/Src/stm32f4xx_hal_tim_ex.c **** 
1119:Drivers/STM32F4xx_HAL_Driver/Src/stm32f4xx_hal_tim_ex.c ****   if (htim->State == HAL_TIM_STATE_BUSY)
 2386              		.loc 1 1119 11
 2387 000e FB68     		ldr	r3, [r7, #12]
 2388 0010 93F83D30 		ldrb	r3, [r3, #61]
 2389 0014 DBB2     		uxtb	r3, r3
 2390              		.loc 1 1119 6
 2391 0016 022B     		cmp	r3, #2
 2392 0018 01D1     		bne	.L111
1120:Drivers/STM32F4xx_HAL_Driver/Src/stm32f4xx_hal_tim_ex.c ****   {
1121:Drivers/STM32F4xx_HAL_Driver/Src/stm32f4xx_hal_tim_ex.c ****     return HAL_BUSY;
 2393              		.loc 1 1121 12
 2394 001a 0223     		movs	r3, #2
 2395 001c A8E0     		b	.L112
 2396              	.L111:
1122:Drivers/STM32F4xx_HAL_Driver/Src/stm32f4xx_hal_tim_ex.c ****   }
ARM GAS  /tmp/ccilmNhL.s 			page 62


1123:Drivers/STM32F4xx_HAL_Driver/Src/stm32f4xx_hal_tim_ex.c ****   else if (htim->State == HAL_TIM_STATE_READY)
 2397              		.loc 1 1123 16
 2398 001e FB68     		ldr	r3, [r7, #12]
 2399 0020 93F83D30 		ldrb	r3, [r3, #61]
 2400 0024 DBB2     		uxtb	r3, r3
 2401              		.loc 1 1123 11
 2402 0026 012B     		cmp	r3, #1
 2403 0028 0BD1     		bne	.L113
1124:Drivers/STM32F4xx_HAL_Driver/Src/stm32f4xx_hal_tim_ex.c ****   {
1125:Drivers/STM32F4xx_HAL_Driver/Src/stm32f4xx_hal_tim_ex.c ****     if (((uint32_t)pData == 0U) && (Length > 0U))
 2404              		.loc 1 1125 8
 2405 002a 7B68     		ldr	r3, [r7, #4]
 2406 002c 002B     		cmp	r3, #0
 2407 002e 04D1     		bne	.L114
 2408              		.loc 1 1125 33 discriminator 1
 2409 0030 7B88     		ldrh	r3, [r7, #2]
 2410 0032 002B     		cmp	r3, #0
 2411 0034 01D0     		beq	.L114
1126:Drivers/STM32F4xx_HAL_Driver/Src/stm32f4xx_hal_tim_ex.c ****     {
1127:Drivers/STM32F4xx_HAL_Driver/Src/stm32f4xx_hal_tim_ex.c ****       return HAL_ERROR;
 2412              		.loc 1 1127 14
 2413 0036 0123     		movs	r3, #1
 2414 0038 9AE0     		b	.L112
 2415              	.L114:
1128:Drivers/STM32F4xx_HAL_Driver/Src/stm32f4xx_hal_tim_ex.c ****     }
1129:Drivers/STM32F4xx_HAL_Driver/Src/stm32f4xx_hal_tim_ex.c ****     else
1130:Drivers/STM32F4xx_HAL_Driver/Src/stm32f4xx_hal_tim_ex.c ****     {
1131:Drivers/STM32F4xx_HAL_Driver/Src/stm32f4xx_hal_tim_ex.c ****       htim->State = HAL_TIM_STATE_BUSY;
 2416              		.loc 1 1131 19
 2417 003a FB68     		ldr	r3, [r7, #12]
 2418 003c 0222     		movs	r2, #2
 2419 003e 83F83D20 		strb	r2, [r3, #61]
 2420              	.L113:
1132:Drivers/STM32F4xx_HAL_Driver/Src/stm32f4xx_hal_tim_ex.c ****     }
1133:Drivers/STM32F4xx_HAL_Driver/Src/stm32f4xx_hal_tim_ex.c ****   }
1134:Drivers/STM32F4xx_HAL_Driver/Src/stm32f4xx_hal_tim_ex.c ****   else
1135:Drivers/STM32F4xx_HAL_Driver/Src/stm32f4xx_hal_tim_ex.c ****   {
1136:Drivers/STM32F4xx_HAL_Driver/Src/stm32f4xx_hal_tim_ex.c ****     /* nothing to do */
1137:Drivers/STM32F4xx_HAL_Driver/Src/stm32f4xx_hal_tim_ex.c ****   }
1138:Drivers/STM32F4xx_HAL_Driver/Src/stm32f4xx_hal_tim_ex.c ****   switch (Channel)
 2421              		.loc 1 1138 3
 2422 0042 BB68     		ldr	r3, [r7, #8]
 2423 0044 042B     		cmp	r3, #4
 2424 0046 29D0     		beq	.L115
 2425 0048 BB68     		ldr	r3, [r7, #8]
 2426 004a 082B     		cmp	r3, #8
 2427 004c 4AD0     		beq	.L116
 2428 004e BB68     		ldr	r3, [r7, #8]
 2429 0050 002B     		cmp	r3, #0
 2430 0052 6BD1     		bne	.L123
1139:Drivers/STM32F4xx_HAL_Driver/Src/stm32f4xx_hal_tim_ex.c ****   {
1140:Drivers/STM32F4xx_HAL_Driver/Src/stm32f4xx_hal_tim_ex.c ****     case TIM_CHANNEL_1:
1141:Drivers/STM32F4xx_HAL_Driver/Src/stm32f4xx_hal_tim_ex.c ****     {
1142:Drivers/STM32F4xx_HAL_Driver/Src/stm32f4xx_hal_tim_ex.c ****       /* Set the DMA compare callbacks */
1143:Drivers/STM32F4xx_HAL_Driver/Src/stm32f4xx_hal_tim_ex.c ****       htim->hdma[TIM_DMA_ID_CC1]->XferCpltCallback = TIM_DMADelayPulseCplt;
 2431              		.loc 1 1143 17
 2432 0054 FB68     		ldr	r3, [r7, #12]
ARM GAS  /tmp/ccilmNhL.s 			page 63


 2433 0056 5B6A     		ldr	r3, [r3, #36]
 2434              		.loc 1 1143 52
 2435 0058 474A     		ldr	r2, .L124
 2436 005a DA63     		str	r2, [r3, #60]
1144:Drivers/STM32F4xx_HAL_Driver/Src/stm32f4xx_hal_tim_ex.c ****       htim->hdma[TIM_DMA_ID_CC1]->XferHalfCpltCallback = TIM_DMADelayPulseHalfCplt;
 2437              		.loc 1 1144 17
 2438 005c FB68     		ldr	r3, [r7, #12]
 2439 005e 5B6A     		ldr	r3, [r3, #36]
 2440              		.loc 1 1144 56
 2441 0060 464A     		ldr	r2, .L124+4
 2442 0062 1A64     		str	r2, [r3, #64]
1145:Drivers/STM32F4xx_HAL_Driver/Src/stm32f4xx_hal_tim_ex.c **** 
1146:Drivers/STM32F4xx_HAL_Driver/Src/stm32f4xx_hal_tim_ex.c ****       /* Set the DMA error callback */
1147:Drivers/STM32F4xx_HAL_Driver/Src/stm32f4xx_hal_tim_ex.c ****       htim->hdma[TIM_DMA_ID_CC1]->XferErrorCallback = TIM_DMAError ;
 2443              		.loc 1 1147 17
 2444 0064 FB68     		ldr	r3, [r7, #12]
 2445 0066 5B6A     		ldr	r3, [r3, #36]
 2446              		.loc 1 1147 53
 2447 0068 454A     		ldr	r2, .L124+8
 2448 006a DA64     		str	r2, [r3, #76]
1148:Drivers/STM32F4xx_HAL_Driver/Src/stm32f4xx_hal_tim_ex.c **** 
1149:Drivers/STM32F4xx_HAL_Driver/Src/stm32f4xx_hal_tim_ex.c ****       /* Enable the DMA stream */
1150:Drivers/STM32F4xx_HAL_Driver/Src/stm32f4xx_hal_tim_ex.c ****       if (HAL_DMA_Start_IT(htim->hdma[TIM_DMA_ID_CC1], (uint32_t)pData, (uint32_t)&htim->Instance->
 2449              		.loc 1 1150 11
 2450 006c FB68     		ldr	r3, [r7, #12]
 2451 006e 586A     		ldr	r0, [r3, #36]
 2452 0070 7968     		ldr	r1, [r7, #4]
 2453              		.loc 1 1150 88
 2454 0072 FB68     		ldr	r3, [r7, #12]
 2455 0074 1B68     		ldr	r3, [r3]
 2456              		.loc 1 1150 83
 2457 0076 3433     		adds	r3, r3, #52
 2458              		.loc 1 1150 11
 2459 0078 1A46     		mov	r2, r3
 2460 007a 7B88     		ldrh	r3, [r7, #2]
 2461 007c FFF7FEFF 		bl	HAL_DMA_Start_IT
 2462 0080 0346     		mov	r3, r0
 2463              		.loc 1 1150 10
 2464 0082 002B     		cmp	r3, #0
 2465 0084 01D0     		beq	.L118
1151:Drivers/STM32F4xx_HAL_Driver/Src/stm32f4xx_hal_tim_ex.c ****       {
1152:Drivers/STM32F4xx_HAL_Driver/Src/stm32f4xx_hal_tim_ex.c ****         return HAL_ERROR;
 2466              		.loc 1 1152 16
 2467 0086 0123     		movs	r3, #1
 2468 0088 72E0     		b	.L112
 2469              	.L118:
1153:Drivers/STM32F4xx_HAL_Driver/Src/stm32f4xx_hal_tim_ex.c ****       }
1154:Drivers/STM32F4xx_HAL_Driver/Src/stm32f4xx_hal_tim_ex.c ****       /* Enable the TIM Capture/Compare 1 DMA request */
1155:Drivers/STM32F4xx_HAL_Driver/Src/stm32f4xx_hal_tim_ex.c ****       __HAL_TIM_ENABLE_DMA(htim, TIM_DMA_CC1);
 2470              		.loc 1 1155 7
 2471 008a FB68     		ldr	r3, [r7, #12]
 2472 008c 1B68     		ldr	r3, [r3]
 2473 008e DA68     		ldr	r2, [r3, #12]
 2474 0090 FB68     		ldr	r3, [r7, #12]
 2475 0092 1B68     		ldr	r3, [r3]
 2476 0094 42F40072 		orr	r2, r2, #512
 2477 0098 DA60     		str	r2, [r3, #12]
ARM GAS  /tmp/ccilmNhL.s 			page 64


1156:Drivers/STM32F4xx_HAL_Driver/Src/stm32f4xx_hal_tim_ex.c ****       break;
 2478              		.loc 1 1156 7
 2479 009a 48E0     		b	.L119
 2480              	.L115:
1157:Drivers/STM32F4xx_HAL_Driver/Src/stm32f4xx_hal_tim_ex.c ****     }
1158:Drivers/STM32F4xx_HAL_Driver/Src/stm32f4xx_hal_tim_ex.c **** 
1159:Drivers/STM32F4xx_HAL_Driver/Src/stm32f4xx_hal_tim_ex.c ****     case TIM_CHANNEL_2:
1160:Drivers/STM32F4xx_HAL_Driver/Src/stm32f4xx_hal_tim_ex.c ****     {
1161:Drivers/STM32F4xx_HAL_Driver/Src/stm32f4xx_hal_tim_ex.c ****       /* Set the DMA compare callbacks */
1162:Drivers/STM32F4xx_HAL_Driver/Src/stm32f4xx_hal_tim_ex.c ****       htim->hdma[TIM_DMA_ID_CC2]->XferCpltCallback = TIM_DMADelayPulseCplt;
 2481              		.loc 1 1162 17
 2482 009c FB68     		ldr	r3, [r7, #12]
 2483 009e 9B6A     		ldr	r3, [r3, #40]
 2484              		.loc 1 1162 52
 2485 00a0 354A     		ldr	r2, .L124
 2486 00a2 DA63     		str	r2, [r3, #60]
1163:Drivers/STM32F4xx_HAL_Driver/Src/stm32f4xx_hal_tim_ex.c ****       htim->hdma[TIM_DMA_ID_CC2]->XferHalfCpltCallback = TIM_DMADelayPulseHalfCplt;
 2487              		.loc 1 1163 17
 2488 00a4 FB68     		ldr	r3, [r7, #12]
 2489 00a6 9B6A     		ldr	r3, [r3, #40]
 2490              		.loc 1 1163 56
 2491 00a8 344A     		ldr	r2, .L124+4
 2492 00aa 1A64     		str	r2, [r3, #64]
1164:Drivers/STM32F4xx_HAL_Driver/Src/stm32f4xx_hal_tim_ex.c **** 
1165:Drivers/STM32F4xx_HAL_Driver/Src/stm32f4xx_hal_tim_ex.c ****       /* Set the DMA error callback */
1166:Drivers/STM32F4xx_HAL_Driver/Src/stm32f4xx_hal_tim_ex.c ****       htim->hdma[TIM_DMA_ID_CC2]->XferErrorCallback = TIM_DMAError ;
 2493              		.loc 1 1166 17
 2494 00ac FB68     		ldr	r3, [r7, #12]
 2495 00ae 9B6A     		ldr	r3, [r3, #40]
 2496              		.loc 1 1166 53
 2497 00b0 334A     		ldr	r2, .L124+8
 2498 00b2 DA64     		str	r2, [r3, #76]
1167:Drivers/STM32F4xx_HAL_Driver/Src/stm32f4xx_hal_tim_ex.c **** 
1168:Drivers/STM32F4xx_HAL_Driver/Src/stm32f4xx_hal_tim_ex.c ****       /* Enable the DMA stream */
1169:Drivers/STM32F4xx_HAL_Driver/Src/stm32f4xx_hal_tim_ex.c ****       if (HAL_DMA_Start_IT(htim->hdma[TIM_DMA_ID_CC2], (uint32_t)pData, (uint32_t)&htim->Instance->
 2499              		.loc 1 1169 11
 2500 00b4 FB68     		ldr	r3, [r7, #12]
 2501 00b6 986A     		ldr	r0, [r3, #40]
 2502 00b8 7968     		ldr	r1, [r7, #4]
 2503              		.loc 1 1169 88
 2504 00ba FB68     		ldr	r3, [r7, #12]
 2505 00bc 1B68     		ldr	r3, [r3]
 2506              		.loc 1 1169 83
 2507 00be 3833     		adds	r3, r3, #56
 2508              		.loc 1 1169 11
 2509 00c0 1A46     		mov	r2, r3
 2510 00c2 7B88     		ldrh	r3, [r7, #2]
 2511 00c4 FFF7FEFF 		bl	HAL_DMA_Start_IT
 2512 00c8 0346     		mov	r3, r0
 2513              		.loc 1 1169 10
 2514 00ca 002B     		cmp	r3, #0
 2515 00cc 01D0     		beq	.L120
1170:Drivers/STM32F4xx_HAL_Driver/Src/stm32f4xx_hal_tim_ex.c ****       {
1171:Drivers/STM32F4xx_HAL_Driver/Src/stm32f4xx_hal_tim_ex.c ****         return HAL_ERROR;
 2516              		.loc 1 1171 16
 2517 00ce 0123     		movs	r3, #1
 2518 00d0 4EE0     		b	.L112
ARM GAS  /tmp/ccilmNhL.s 			page 65


 2519              	.L120:
1172:Drivers/STM32F4xx_HAL_Driver/Src/stm32f4xx_hal_tim_ex.c ****       }
1173:Drivers/STM32F4xx_HAL_Driver/Src/stm32f4xx_hal_tim_ex.c ****       /* Enable the TIM Capture/Compare 2 DMA request */
1174:Drivers/STM32F4xx_HAL_Driver/Src/stm32f4xx_hal_tim_ex.c ****       __HAL_TIM_ENABLE_DMA(htim, TIM_DMA_CC2);
 2520              		.loc 1 1174 7
 2521 00d2 FB68     		ldr	r3, [r7, #12]
 2522 00d4 1B68     		ldr	r3, [r3]
 2523 00d6 DA68     		ldr	r2, [r3, #12]
 2524 00d8 FB68     		ldr	r3, [r7, #12]
 2525 00da 1B68     		ldr	r3, [r3]
 2526 00dc 42F48062 		orr	r2, r2, #1024
 2527 00e0 DA60     		str	r2, [r3, #12]
1175:Drivers/STM32F4xx_HAL_Driver/Src/stm32f4xx_hal_tim_ex.c ****       break;
 2528              		.loc 1 1175 7
 2529 00e2 24E0     		b	.L119
 2530              	.L116:
1176:Drivers/STM32F4xx_HAL_Driver/Src/stm32f4xx_hal_tim_ex.c ****     }
1177:Drivers/STM32F4xx_HAL_Driver/Src/stm32f4xx_hal_tim_ex.c **** 
1178:Drivers/STM32F4xx_HAL_Driver/Src/stm32f4xx_hal_tim_ex.c ****     case TIM_CHANNEL_3:
1179:Drivers/STM32F4xx_HAL_Driver/Src/stm32f4xx_hal_tim_ex.c ****     {
1180:Drivers/STM32F4xx_HAL_Driver/Src/stm32f4xx_hal_tim_ex.c ****       /* Set the DMA compare callbacks */
1181:Drivers/STM32F4xx_HAL_Driver/Src/stm32f4xx_hal_tim_ex.c ****       htim->hdma[TIM_DMA_ID_CC3]->XferCpltCallback = TIM_DMADelayPulseCplt;
 2531              		.loc 1 1181 17
 2532 00e4 FB68     		ldr	r3, [r7, #12]
 2533 00e6 DB6A     		ldr	r3, [r3, #44]
 2534              		.loc 1 1181 52
 2535 00e8 234A     		ldr	r2, .L124
 2536 00ea DA63     		str	r2, [r3, #60]
1182:Drivers/STM32F4xx_HAL_Driver/Src/stm32f4xx_hal_tim_ex.c ****       htim->hdma[TIM_DMA_ID_CC3]->XferHalfCpltCallback = TIM_DMADelayPulseHalfCplt;
 2537              		.loc 1 1182 17
 2538 00ec FB68     		ldr	r3, [r7, #12]
 2539 00ee DB6A     		ldr	r3, [r3, #44]
 2540              		.loc 1 1182 56
 2541 00f0 224A     		ldr	r2, .L124+4
 2542 00f2 1A64     		str	r2, [r3, #64]
1183:Drivers/STM32F4xx_HAL_Driver/Src/stm32f4xx_hal_tim_ex.c **** 
1184:Drivers/STM32F4xx_HAL_Driver/Src/stm32f4xx_hal_tim_ex.c ****       /* Set the DMA error callback */
1185:Drivers/STM32F4xx_HAL_Driver/Src/stm32f4xx_hal_tim_ex.c ****       htim->hdma[TIM_DMA_ID_CC3]->XferErrorCallback = TIM_DMAError ;
 2543              		.loc 1 1185 17
 2544 00f4 FB68     		ldr	r3, [r7, #12]
 2545 00f6 DB6A     		ldr	r3, [r3, #44]
 2546              		.loc 1 1185 53
 2547 00f8 214A     		ldr	r2, .L124+8
 2548 00fa DA64     		str	r2, [r3, #76]
1186:Drivers/STM32F4xx_HAL_Driver/Src/stm32f4xx_hal_tim_ex.c **** 
1187:Drivers/STM32F4xx_HAL_Driver/Src/stm32f4xx_hal_tim_ex.c ****       /* Enable the DMA stream */
1188:Drivers/STM32F4xx_HAL_Driver/Src/stm32f4xx_hal_tim_ex.c ****       if (HAL_DMA_Start_IT(htim->hdma[TIM_DMA_ID_CC3], (uint32_t)pData, (uint32_t)&htim->Instance->
 2549              		.loc 1 1188 11
 2550 00fc FB68     		ldr	r3, [r7, #12]
 2551 00fe D86A     		ldr	r0, [r3, #44]
 2552 0100 7968     		ldr	r1, [r7, #4]
 2553              		.loc 1 1188 88
 2554 0102 FB68     		ldr	r3, [r7, #12]
 2555 0104 1B68     		ldr	r3, [r3]
 2556              		.loc 1 1188 83
 2557 0106 3C33     		adds	r3, r3, #60
 2558              		.loc 1 1188 11
ARM GAS  /tmp/ccilmNhL.s 			page 66


 2559 0108 1A46     		mov	r2, r3
 2560 010a 7B88     		ldrh	r3, [r7, #2]
 2561 010c FFF7FEFF 		bl	HAL_DMA_Start_IT
 2562 0110 0346     		mov	r3, r0
 2563              		.loc 1 1188 10
 2564 0112 002B     		cmp	r3, #0
 2565 0114 01D0     		beq	.L121
1189:Drivers/STM32F4xx_HAL_Driver/Src/stm32f4xx_hal_tim_ex.c ****       {
1190:Drivers/STM32F4xx_HAL_Driver/Src/stm32f4xx_hal_tim_ex.c ****         return HAL_ERROR;
 2566              		.loc 1 1190 16
 2567 0116 0123     		movs	r3, #1
 2568 0118 2AE0     		b	.L112
 2569              	.L121:
1191:Drivers/STM32F4xx_HAL_Driver/Src/stm32f4xx_hal_tim_ex.c ****       }
1192:Drivers/STM32F4xx_HAL_Driver/Src/stm32f4xx_hal_tim_ex.c ****       /* Enable the TIM Capture/Compare 3 DMA request */
1193:Drivers/STM32F4xx_HAL_Driver/Src/stm32f4xx_hal_tim_ex.c ****       __HAL_TIM_ENABLE_DMA(htim, TIM_DMA_CC3);
 2570              		.loc 1 1193 7
 2571 011a FB68     		ldr	r3, [r7, #12]
 2572 011c 1B68     		ldr	r3, [r3]
 2573 011e DA68     		ldr	r2, [r3, #12]
 2574 0120 FB68     		ldr	r3, [r7, #12]
 2575 0122 1B68     		ldr	r3, [r3]
 2576 0124 42F40062 		orr	r2, r2, #2048
 2577 0128 DA60     		str	r2, [r3, #12]
1194:Drivers/STM32F4xx_HAL_Driver/Src/stm32f4xx_hal_tim_ex.c ****       break;
 2578              		.loc 1 1194 7
 2579 012a 00E0     		b	.L119
 2580              	.L123:
1195:Drivers/STM32F4xx_HAL_Driver/Src/stm32f4xx_hal_tim_ex.c ****     }
1196:Drivers/STM32F4xx_HAL_Driver/Src/stm32f4xx_hal_tim_ex.c **** 
1197:Drivers/STM32F4xx_HAL_Driver/Src/stm32f4xx_hal_tim_ex.c ****     default:
1198:Drivers/STM32F4xx_HAL_Driver/Src/stm32f4xx_hal_tim_ex.c ****       break;
 2581              		.loc 1 1198 7
 2582 012c 00BF     		nop
 2583              	.L119:
1199:Drivers/STM32F4xx_HAL_Driver/Src/stm32f4xx_hal_tim_ex.c ****   }
1200:Drivers/STM32F4xx_HAL_Driver/Src/stm32f4xx_hal_tim_ex.c **** 
1201:Drivers/STM32F4xx_HAL_Driver/Src/stm32f4xx_hal_tim_ex.c ****   /* Enable the complementary PWM output  */
1202:Drivers/STM32F4xx_HAL_Driver/Src/stm32f4xx_hal_tim_ex.c ****   TIM_CCxNChannelCmd(htim->Instance, Channel, TIM_CCxN_ENABLE);
 2584              		.loc 1 1202 3
 2585 012e FB68     		ldr	r3, [r7, #12]
 2586 0130 1B68     		ldr	r3, [r3]
 2587 0132 0422     		movs	r2, #4
 2588 0134 B968     		ldr	r1, [r7, #8]
 2589 0136 1846     		mov	r0, r3
 2590 0138 FFF7FEFF 		bl	TIM_CCxNChannelCmd
1203:Drivers/STM32F4xx_HAL_Driver/Src/stm32f4xx_hal_tim_ex.c **** 
1204:Drivers/STM32F4xx_HAL_Driver/Src/stm32f4xx_hal_tim_ex.c ****   /* Enable the Main Output */
1205:Drivers/STM32F4xx_HAL_Driver/Src/stm32f4xx_hal_tim_ex.c ****   __HAL_TIM_MOE_ENABLE(htim);
 2591              		.loc 1 1205 3
 2592 013c FB68     		ldr	r3, [r7, #12]
 2593 013e 1B68     		ldr	r3, [r3]
 2594 0140 5A6C     		ldr	r2, [r3, #68]
 2595 0142 FB68     		ldr	r3, [r7, #12]
 2596 0144 1B68     		ldr	r3, [r3]
 2597 0146 42F40042 		orr	r2, r2, #32768
 2598 014a 5A64     		str	r2, [r3, #68]
ARM GAS  /tmp/ccilmNhL.s 			page 67


1206:Drivers/STM32F4xx_HAL_Driver/Src/stm32f4xx_hal_tim_ex.c **** 
1207:Drivers/STM32F4xx_HAL_Driver/Src/stm32f4xx_hal_tim_ex.c ****   /* Enable the Peripheral, except in trigger mode where enable is automatically done with trigger 
1208:Drivers/STM32F4xx_HAL_Driver/Src/stm32f4xx_hal_tim_ex.c ****   tmpsmcr = htim->Instance->SMCR & TIM_SMCR_SMS;
 2599              		.loc 1 1208 17
 2600 014c FB68     		ldr	r3, [r7, #12]
 2601 014e 1B68     		ldr	r3, [r3]
 2602              		.loc 1 1208 27
 2603 0150 9B68     		ldr	r3, [r3, #8]
 2604              		.loc 1 1208 11
 2605 0152 03F00703 		and	r3, r3, #7
 2606 0156 7B61     		str	r3, [r7, #20]
1209:Drivers/STM32F4xx_HAL_Driver/Src/stm32f4xx_hal_tim_ex.c ****   if (!IS_TIM_SLAVEMODE_TRIGGER_ENABLED(tmpsmcr))
 2607              		.loc 1 1209 6
 2608 0158 7B69     		ldr	r3, [r7, #20]
 2609 015a 062B     		cmp	r3, #6
 2610 015c 07D0     		beq	.L122
1210:Drivers/STM32F4xx_HAL_Driver/Src/stm32f4xx_hal_tim_ex.c ****   {
1211:Drivers/STM32F4xx_HAL_Driver/Src/stm32f4xx_hal_tim_ex.c ****     __HAL_TIM_ENABLE(htim);
 2611              		.loc 1 1211 5
 2612 015e FB68     		ldr	r3, [r7, #12]
 2613 0160 1B68     		ldr	r3, [r3]
 2614 0162 1A68     		ldr	r2, [r3]
 2615 0164 FB68     		ldr	r3, [r7, #12]
 2616 0166 1B68     		ldr	r3, [r3]
 2617 0168 42F00102 		orr	r2, r2, #1
 2618 016c 1A60     		str	r2, [r3]
 2619              	.L122:
1212:Drivers/STM32F4xx_HAL_Driver/Src/stm32f4xx_hal_tim_ex.c ****   }
1213:Drivers/STM32F4xx_HAL_Driver/Src/stm32f4xx_hal_tim_ex.c **** 
1214:Drivers/STM32F4xx_HAL_Driver/Src/stm32f4xx_hal_tim_ex.c ****   /* Return function status */
1215:Drivers/STM32F4xx_HAL_Driver/Src/stm32f4xx_hal_tim_ex.c ****   return HAL_OK;
 2620              		.loc 1 1215 10
 2621 016e 0023     		movs	r3, #0
 2622              	.L112:
1216:Drivers/STM32F4xx_HAL_Driver/Src/stm32f4xx_hal_tim_ex.c **** }
 2623              		.loc 1 1216 1
 2624 0170 1846     		mov	r0, r3
 2625 0172 1837     		adds	r7, r7, #24
 2626              	.LCFI105:
 2627              		.cfi_def_cfa_offset 8
 2628 0174 BD46     		mov	sp, r7
 2629              	.LCFI106:
 2630              		.cfi_def_cfa_register 13
 2631              		@ sp needed
 2632 0176 80BD     		pop	{r7, pc}
 2633              	.L125:
 2634              		.align	2
 2635              	.L124:
 2636 0178 00000000 		.word	TIM_DMADelayPulseCplt
 2637 017c 00000000 		.word	TIM_DMADelayPulseHalfCplt
 2638 0180 00000000 		.word	TIM_DMAError
 2639              		.cfi_endproc
 2640              	.LFE150:
 2642              		.section	.text.HAL_TIMEx_PWMN_Stop_DMA,"ax",%progbits
 2643              		.align	1
 2644              		.global	HAL_TIMEx_PWMN_Stop_DMA
 2645              		.syntax unified
ARM GAS  /tmp/ccilmNhL.s 			page 68


 2646              		.thumb
 2647              		.thumb_func
 2648              		.fpu fpv4-sp-d16
 2650              	HAL_TIMEx_PWMN_Stop_DMA:
 2651              	.LFB151:
1217:Drivers/STM32F4xx_HAL_Driver/Src/stm32f4xx_hal_tim_ex.c **** 
1218:Drivers/STM32F4xx_HAL_Driver/Src/stm32f4xx_hal_tim_ex.c **** /**
1219:Drivers/STM32F4xx_HAL_Driver/Src/stm32f4xx_hal_tim_ex.c ****   * @brief  Stops the TIM PWM signal generation in DMA mode on the complementary
1220:Drivers/STM32F4xx_HAL_Driver/Src/stm32f4xx_hal_tim_ex.c ****   *         output
1221:Drivers/STM32F4xx_HAL_Driver/Src/stm32f4xx_hal_tim_ex.c ****   * @param  htim TIM handle
1222:Drivers/STM32F4xx_HAL_Driver/Src/stm32f4xx_hal_tim_ex.c ****   * @param  Channel TIM Channel to be disabled
1223:Drivers/STM32F4xx_HAL_Driver/Src/stm32f4xx_hal_tim_ex.c ****   *          This parameter can be one of the following values:
1224:Drivers/STM32F4xx_HAL_Driver/Src/stm32f4xx_hal_tim_ex.c ****   *            @arg TIM_CHANNEL_1: TIM Channel 1 selected
1225:Drivers/STM32F4xx_HAL_Driver/Src/stm32f4xx_hal_tim_ex.c ****   *            @arg TIM_CHANNEL_2: TIM Channel 2 selected
1226:Drivers/STM32F4xx_HAL_Driver/Src/stm32f4xx_hal_tim_ex.c ****   *            @arg TIM_CHANNEL_3: TIM Channel 3 selected
1227:Drivers/STM32F4xx_HAL_Driver/Src/stm32f4xx_hal_tim_ex.c ****   * @retval HAL status
1228:Drivers/STM32F4xx_HAL_Driver/Src/stm32f4xx_hal_tim_ex.c ****   */
1229:Drivers/STM32F4xx_HAL_Driver/Src/stm32f4xx_hal_tim_ex.c **** HAL_StatusTypeDef HAL_TIMEx_PWMN_Stop_DMA(TIM_HandleTypeDef *htim, uint32_t Channel)
1230:Drivers/STM32F4xx_HAL_Driver/Src/stm32f4xx_hal_tim_ex.c **** {
 2652              		.loc 1 1230 1
 2653              		.cfi_startproc
 2654              		@ args = 0, pretend = 0, frame = 8
 2655              		@ frame_needed = 1, uses_anonymous_args = 0
 2656 0000 80B5     		push	{r7, lr}
 2657              	.LCFI107:
 2658              		.cfi_def_cfa_offset 8
 2659              		.cfi_offset 7, -8
 2660              		.cfi_offset 14, -4
 2661 0002 82B0     		sub	sp, sp, #8
 2662              	.LCFI108:
 2663              		.cfi_def_cfa_offset 16
 2664 0004 00AF     		add	r7, sp, #0
 2665              	.LCFI109:
 2666              		.cfi_def_cfa_register 7
 2667 0006 7860     		str	r0, [r7, #4]
 2668 0008 3960     		str	r1, [r7]
1231:Drivers/STM32F4xx_HAL_Driver/Src/stm32f4xx_hal_tim_ex.c ****   /* Check the parameters */
1232:Drivers/STM32F4xx_HAL_Driver/Src/stm32f4xx_hal_tim_ex.c ****   assert_param(IS_TIM_CCXN_INSTANCE(htim->Instance, Channel));
1233:Drivers/STM32F4xx_HAL_Driver/Src/stm32f4xx_hal_tim_ex.c **** 
1234:Drivers/STM32F4xx_HAL_Driver/Src/stm32f4xx_hal_tim_ex.c ****   switch (Channel)
 2669              		.loc 1 1234 3
 2670 000a 3B68     		ldr	r3, [r7]
 2671 000c 042B     		cmp	r3, #4
 2672 000e 13D0     		beq	.L127
 2673 0010 3B68     		ldr	r3, [r7]
 2674 0012 082B     		cmp	r3, #8
 2675 0014 1ED0     		beq	.L128
 2676 0016 3B68     		ldr	r3, [r7]
 2677 0018 002B     		cmp	r3, #0
 2678 001a 29D1     		bne	.L134
1235:Drivers/STM32F4xx_HAL_Driver/Src/stm32f4xx_hal_tim_ex.c ****   {
1236:Drivers/STM32F4xx_HAL_Driver/Src/stm32f4xx_hal_tim_ex.c ****     case TIM_CHANNEL_1:
1237:Drivers/STM32F4xx_HAL_Driver/Src/stm32f4xx_hal_tim_ex.c ****     {
1238:Drivers/STM32F4xx_HAL_Driver/Src/stm32f4xx_hal_tim_ex.c ****       /* Disable the TIM Capture/Compare 1 DMA request */
1239:Drivers/STM32F4xx_HAL_Driver/Src/stm32f4xx_hal_tim_ex.c ****       __HAL_TIM_DISABLE_DMA(htim, TIM_DMA_CC1);
 2679              		.loc 1 1239 7
 2680 001c 7B68     		ldr	r3, [r7, #4]
ARM GAS  /tmp/ccilmNhL.s 			page 69


 2681 001e 1B68     		ldr	r3, [r3]
 2682 0020 DA68     		ldr	r2, [r3, #12]
 2683 0022 7B68     		ldr	r3, [r7, #4]
 2684 0024 1B68     		ldr	r3, [r3]
 2685 0026 22F40072 		bic	r2, r2, #512
 2686 002a DA60     		str	r2, [r3, #12]
1240:Drivers/STM32F4xx_HAL_Driver/Src/stm32f4xx_hal_tim_ex.c ****       (void)HAL_DMA_Abort_IT(htim->hdma[TIM_DMA_ID_CC1]);
 2687              		.loc 1 1240 13
 2688 002c 7B68     		ldr	r3, [r7, #4]
 2689 002e 5B6A     		ldr	r3, [r3, #36]
 2690 0030 1846     		mov	r0, r3
 2691 0032 FFF7FEFF 		bl	HAL_DMA_Abort_IT
1241:Drivers/STM32F4xx_HAL_Driver/Src/stm32f4xx_hal_tim_ex.c ****       break;
 2692              		.loc 1 1241 7
 2693 0036 1CE0     		b	.L130
 2694              	.L127:
1242:Drivers/STM32F4xx_HAL_Driver/Src/stm32f4xx_hal_tim_ex.c ****     }
1243:Drivers/STM32F4xx_HAL_Driver/Src/stm32f4xx_hal_tim_ex.c **** 
1244:Drivers/STM32F4xx_HAL_Driver/Src/stm32f4xx_hal_tim_ex.c ****     case TIM_CHANNEL_2:
1245:Drivers/STM32F4xx_HAL_Driver/Src/stm32f4xx_hal_tim_ex.c ****     {
1246:Drivers/STM32F4xx_HAL_Driver/Src/stm32f4xx_hal_tim_ex.c ****       /* Disable the TIM Capture/Compare 2 DMA request */
1247:Drivers/STM32F4xx_HAL_Driver/Src/stm32f4xx_hal_tim_ex.c ****       __HAL_TIM_DISABLE_DMA(htim, TIM_DMA_CC2);
 2695              		.loc 1 1247 7
 2696 0038 7B68     		ldr	r3, [r7, #4]
 2697 003a 1B68     		ldr	r3, [r3]
 2698 003c DA68     		ldr	r2, [r3, #12]
 2699 003e 7B68     		ldr	r3, [r7, #4]
 2700 0040 1B68     		ldr	r3, [r3]
 2701 0042 22F48062 		bic	r2, r2, #1024
 2702 0046 DA60     		str	r2, [r3, #12]
1248:Drivers/STM32F4xx_HAL_Driver/Src/stm32f4xx_hal_tim_ex.c ****       (void)HAL_DMA_Abort_IT(htim->hdma[TIM_DMA_ID_CC2]);
 2703              		.loc 1 1248 13
 2704 0048 7B68     		ldr	r3, [r7, #4]
 2705 004a 9B6A     		ldr	r3, [r3, #40]
 2706 004c 1846     		mov	r0, r3
 2707 004e FFF7FEFF 		bl	HAL_DMA_Abort_IT
1249:Drivers/STM32F4xx_HAL_Driver/Src/stm32f4xx_hal_tim_ex.c ****       break;
 2708              		.loc 1 1249 7
 2709 0052 0EE0     		b	.L130
 2710              	.L128:
1250:Drivers/STM32F4xx_HAL_Driver/Src/stm32f4xx_hal_tim_ex.c ****     }
1251:Drivers/STM32F4xx_HAL_Driver/Src/stm32f4xx_hal_tim_ex.c **** 
1252:Drivers/STM32F4xx_HAL_Driver/Src/stm32f4xx_hal_tim_ex.c ****     case TIM_CHANNEL_3:
1253:Drivers/STM32F4xx_HAL_Driver/Src/stm32f4xx_hal_tim_ex.c ****     {
1254:Drivers/STM32F4xx_HAL_Driver/Src/stm32f4xx_hal_tim_ex.c ****       /* Disable the TIM Capture/Compare 3 DMA request */
1255:Drivers/STM32F4xx_HAL_Driver/Src/stm32f4xx_hal_tim_ex.c ****       __HAL_TIM_DISABLE_DMA(htim, TIM_DMA_CC3);
 2711              		.loc 1 1255 7
 2712 0054 7B68     		ldr	r3, [r7, #4]
 2713 0056 1B68     		ldr	r3, [r3]
 2714 0058 DA68     		ldr	r2, [r3, #12]
 2715 005a 7B68     		ldr	r3, [r7, #4]
 2716 005c 1B68     		ldr	r3, [r3]
 2717 005e 22F40062 		bic	r2, r2, #2048
 2718 0062 DA60     		str	r2, [r3, #12]
1256:Drivers/STM32F4xx_HAL_Driver/Src/stm32f4xx_hal_tim_ex.c ****       (void)HAL_DMA_Abort_IT(htim->hdma[TIM_DMA_ID_CC3]);
 2719              		.loc 1 1256 13
 2720 0064 7B68     		ldr	r3, [r7, #4]
ARM GAS  /tmp/ccilmNhL.s 			page 70


 2721 0066 DB6A     		ldr	r3, [r3, #44]
 2722 0068 1846     		mov	r0, r3
 2723 006a FFF7FEFF 		bl	HAL_DMA_Abort_IT
1257:Drivers/STM32F4xx_HAL_Driver/Src/stm32f4xx_hal_tim_ex.c ****       break;
 2724              		.loc 1 1257 7
 2725 006e 00E0     		b	.L130
 2726              	.L134:
1258:Drivers/STM32F4xx_HAL_Driver/Src/stm32f4xx_hal_tim_ex.c ****     }
1259:Drivers/STM32F4xx_HAL_Driver/Src/stm32f4xx_hal_tim_ex.c **** 
1260:Drivers/STM32F4xx_HAL_Driver/Src/stm32f4xx_hal_tim_ex.c ****     default:
1261:Drivers/STM32F4xx_HAL_Driver/Src/stm32f4xx_hal_tim_ex.c ****       break;
 2727              		.loc 1 1261 7
 2728 0070 00BF     		nop
 2729              	.L130:
1262:Drivers/STM32F4xx_HAL_Driver/Src/stm32f4xx_hal_tim_ex.c ****   }
1263:Drivers/STM32F4xx_HAL_Driver/Src/stm32f4xx_hal_tim_ex.c **** 
1264:Drivers/STM32F4xx_HAL_Driver/Src/stm32f4xx_hal_tim_ex.c ****   /* Disable the complementary PWM output */
1265:Drivers/STM32F4xx_HAL_Driver/Src/stm32f4xx_hal_tim_ex.c ****   TIM_CCxNChannelCmd(htim->Instance, Channel, TIM_CCxN_DISABLE);
 2730              		.loc 1 1265 3
 2731 0072 7B68     		ldr	r3, [r7, #4]
 2732 0074 1B68     		ldr	r3, [r3]
 2733 0076 0022     		movs	r2, #0
 2734 0078 3968     		ldr	r1, [r7]
 2735 007a 1846     		mov	r0, r3
 2736 007c FFF7FEFF 		bl	TIM_CCxNChannelCmd
1266:Drivers/STM32F4xx_HAL_Driver/Src/stm32f4xx_hal_tim_ex.c **** 
1267:Drivers/STM32F4xx_HAL_Driver/Src/stm32f4xx_hal_tim_ex.c ****   /* Disable the Main Output */
1268:Drivers/STM32F4xx_HAL_Driver/Src/stm32f4xx_hal_tim_ex.c ****   __HAL_TIM_MOE_DISABLE(htim);
 2737              		.loc 1 1268 3
 2738 0080 7B68     		ldr	r3, [r7, #4]
 2739 0082 1B68     		ldr	r3, [r3]
 2740 0084 1A6A     		ldr	r2, [r3, #32]
 2741 0086 41F21113 		movw	r3, #4369
 2742 008a 1340     		ands	r3, r3, r2
 2743 008c 002B     		cmp	r3, #0
 2744 008e 0FD1     		bne	.L131
 2745              		.loc 1 1268 3 is_stmt 0 discriminator 1
 2746 0090 7B68     		ldr	r3, [r7, #4]
 2747 0092 1B68     		ldr	r3, [r3]
 2748 0094 1A6A     		ldr	r2, [r3, #32]
 2749 0096 40F24443 		movw	r3, #1092
 2750 009a 1340     		ands	r3, r3, r2
 2751 009c 002B     		cmp	r3, #0
 2752 009e 07D1     		bne	.L131
 2753              		.loc 1 1268 3 discriminator 2
 2754 00a0 7B68     		ldr	r3, [r7, #4]
 2755 00a2 1B68     		ldr	r3, [r3]
 2756 00a4 5A6C     		ldr	r2, [r3, #68]
 2757 00a6 7B68     		ldr	r3, [r7, #4]
 2758 00a8 1B68     		ldr	r3, [r3]
 2759 00aa 22F40042 		bic	r2, r2, #32768
 2760 00ae 5A64     		str	r2, [r3, #68]
 2761              	.L131:
1269:Drivers/STM32F4xx_HAL_Driver/Src/stm32f4xx_hal_tim_ex.c **** 
1270:Drivers/STM32F4xx_HAL_Driver/Src/stm32f4xx_hal_tim_ex.c ****   /* Disable the Peripheral */
1271:Drivers/STM32F4xx_HAL_Driver/Src/stm32f4xx_hal_tim_ex.c ****   __HAL_TIM_DISABLE(htim);
 2762              		.loc 1 1271 3 is_stmt 1
ARM GAS  /tmp/ccilmNhL.s 			page 71


 2763 00b0 7B68     		ldr	r3, [r7, #4]
 2764 00b2 1B68     		ldr	r3, [r3]
 2765 00b4 1A6A     		ldr	r2, [r3, #32]
 2766 00b6 41F21113 		movw	r3, #4369
 2767 00ba 1340     		ands	r3, r3, r2
 2768 00bc 002B     		cmp	r3, #0
 2769 00be 0FD1     		bne	.L132
 2770              		.loc 1 1271 3 is_stmt 0 discriminator 1
 2771 00c0 7B68     		ldr	r3, [r7, #4]
 2772 00c2 1B68     		ldr	r3, [r3]
 2773 00c4 1A6A     		ldr	r2, [r3, #32]
 2774 00c6 40F24443 		movw	r3, #1092
 2775 00ca 1340     		ands	r3, r3, r2
 2776 00cc 002B     		cmp	r3, #0
 2777 00ce 07D1     		bne	.L132
 2778              		.loc 1 1271 3 discriminator 2
 2779 00d0 7B68     		ldr	r3, [r7, #4]
 2780 00d2 1B68     		ldr	r3, [r3]
 2781 00d4 1A68     		ldr	r2, [r3]
 2782 00d6 7B68     		ldr	r3, [r7, #4]
 2783 00d8 1B68     		ldr	r3, [r3]
 2784 00da 22F00102 		bic	r2, r2, #1
 2785 00de 1A60     		str	r2, [r3]
 2786              	.L132:
1272:Drivers/STM32F4xx_HAL_Driver/Src/stm32f4xx_hal_tim_ex.c **** 
1273:Drivers/STM32F4xx_HAL_Driver/Src/stm32f4xx_hal_tim_ex.c ****   /* Change the htim state */
1274:Drivers/STM32F4xx_HAL_Driver/Src/stm32f4xx_hal_tim_ex.c ****   htim->State = HAL_TIM_STATE_READY;
 2787              		.loc 1 1274 15 is_stmt 1
 2788 00e0 7B68     		ldr	r3, [r7, #4]
 2789 00e2 0122     		movs	r2, #1
 2790 00e4 83F83D20 		strb	r2, [r3, #61]
1275:Drivers/STM32F4xx_HAL_Driver/Src/stm32f4xx_hal_tim_ex.c **** 
1276:Drivers/STM32F4xx_HAL_Driver/Src/stm32f4xx_hal_tim_ex.c ****   /* Return function status */
1277:Drivers/STM32F4xx_HAL_Driver/Src/stm32f4xx_hal_tim_ex.c ****   return HAL_OK;
 2791              		.loc 1 1277 10
 2792 00e8 0023     		movs	r3, #0
1278:Drivers/STM32F4xx_HAL_Driver/Src/stm32f4xx_hal_tim_ex.c **** }
 2793              		.loc 1 1278 1
 2794 00ea 1846     		mov	r0, r3
 2795 00ec 0837     		adds	r7, r7, #8
 2796              	.LCFI110:
 2797              		.cfi_def_cfa_offset 8
 2798 00ee BD46     		mov	sp, r7
 2799              	.LCFI111:
 2800              		.cfi_def_cfa_register 13
 2801              		@ sp needed
 2802 00f0 80BD     		pop	{r7, pc}
 2803              		.cfi_endproc
 2804              	.LFE151:
 2806              		.section	.text.HAL_TIMEx_OnePulseN_Start,"ax",%progbits
 2807              		.align	1
 2808              		.global	HAL_TIMEx_OnePulseN_Start
 2809              		.syntax unified
 2810              		.thumb
 2811              		.thumb_func
 2812              		.fpu fpv4-sp-d16
 2814              	HAL_TIMEx_OnePulseN_Start:
ARM GAS  /tmp/ccilmNhL.s 			page 72


 2815              	.LFB152:
1279:Drivers/STM32F4xx_HAL_Driver/Src/stm32f4xx_hal_tim_ex.c **** 
1280:Drivers/STM32F4xx_HAL_Driver/Src/stm32f4xx_hal_tim_ex.c **** /**
1281:Drivers/STM32F4xx_HAL_Driver/Src/stm32f4xx_hal_tim_ex.c ****   * @}
1282:Drivers/STM32F4xx_HAL_Driver/Src/stm32f4xx_hal_tim_ex.c ****   */
1283:Drivers/STM32F4xx_HAL_Driver/Src/stm32f4xx_hal_tim_ex.c **** 
1284:Drivers/STM32F4xx_HAL_Driver/Src/stm32f4xx_hal_tim_ex.c **** /** @defgroup TIMEx_Exported_Functions_Group4 Extended Timer Complementary One Pulse functions
1285:Drivers/STM32F4xx_HAL_Driver/Src/stm32f4xx_hal_tim_ex.c ****   * @brief    Timer Complementary One Pulse functions
1286:Drivers/STM32F4xx_HAL_Driver/Src/stm32f4xx_hal_tim_ex.c ****   *
1287:Drivers/STM32F4xx_HAL_Driver/Src/stm32f4xx_hal_tim_ex.c **** @verbatim
1288:Drivers/STM32F4xx_HAL_Driver/Src/stm32f4xx_hal_tim_ex.c ****   ==============================================================================
1289:Drivers/STM32F4xx_HAL_Driver/Src/stm32f4xx_hal_tim_ex.c ****                 ##### Timer Complementary One Pulse functions #####
1290:Drivers/STM32F4xx_HAL_Driver/Src/stm32f4xx_hal_tim_ex.c ****   ==============================================================================
1291:Drivers/STM32F4xx_HAL_Driver/Src/stm32f4xx_hal_tim_ex.c ****   [..]
1292:Drivers/STM32F4xx_HAL_Driver/Src/stm32f4xx_hal_tim_ex.c ****     This section provides functions allowing to:
1293:Drivers/STM32F4xx_HAL_Driver/Src/stm32f4xx_hal_tim_ex.c ****     (+) Start the Complementary One Pulse generation.
1294:Drivers/STM32F4xx_HAL_Driver/Src/stm32f4xx_hal_tim_ex.c ****     (+) Stop the Complementary One Pulse.
1295:Drivers/STM32F4xx_HAL_Driver/Src/stm32f4xx_hal_tim_ex.c ****     (+) Start the Complementary One Pulse and enable interrupts.
1296:Drivers/STM32F4xx_HAL_Driver/Src/stm32f4xx_hal_tim_ex.c ****     (+) Stop the Complementary One Pulse and disable interrupts.
1297:Drivers/STM32F4xx_HAL_Driver/Src/stm32f4xx_hal_tim_ex.c **** 
1298:Drivers/STM32F4xx_HAL_Driver/Src/stm32f4xx_hal_tim_ex.c **** @endverbatim
1299:Drivers/STM32F4xx_HAL_Driver/Src/stm32f4xx_hal_tim_ex.c ****   * @{
1300:Drivers/STM32F4xx_HAL_Driver/Src/stm32f4xx_hal_tim_ex.c ****   */
1301:Drivers/STM32F4xx_HAL_Driver/Src/stm32f4xx_hal_tim_ex.c **** 
1302:Drivers/STM32F4xx_HAL_Driver/Src/stm32f4xx_hal_tim_ex.c **** /**
1303:Drivers/STM32F4xx_HAL_Driver/Src/stm32f4xx_hal_tim_ex.c ****   * @brief  Starts the TIM One Pulse signal generation on the complementary
1304:Drivers/STM32F4xx_HAL_Driver/Src/stm32f4xx_hal_tim_ex.c ****   *         output.
1305:Drivers/STM32F4xx_HAL_Driver/Src/stm32f4xx_hal_tim_ex.c ****   * @param  htim TIM One Pulse handle
1306:Drivers/STM32F4xx_HAL_Driver/Src/stm32f4xx_hal_tim_ex.c ****   * @param  OutputChannel TIM Channel to be enabled
1307:Drivers/STM32F4xx_HAL_Driver/Src/stm32f4xx_hal_tim_ex.c ****   *          This parameter can be one of the following values:
1308:Drivers/STM32F4xx_HAL_Driver/Src/stm32f4xx_hal_tim_ex.c ****   *            @arg TIM_CHANNEL_1: TIM Channel 1 selected
1309:Drivers/STM32F4xx_HAL_Driver/Src/stm32f4xx_hal_tim_ex.c ****   *            @arg TIM_CHANNEL_2: TIM Channel 2 selected
1310:Drivers/STM32F4xx_HAL_Driver/Src/stm32f4xx_hal_tim_ex.c ****   * @retval HAL status
1311:Drivers/STM32F4xx_HAL_Driver/Src/stm32f4xx_hal_tim_ex.c ****   */
1312:Drivers/STM32F4xx_HAL_Driver/Src/stm32f4xx_hal_tim_ex.c **** HAL_StatusTypeDef HAL_TIMEx_OnePulseN_Start(TIM_HandleTypeDef *htim, uint32_t OutputChannel)
1313:Drivers/STM32F4xx_HAL_Driver/Src/stm32f4xx_hal_tim_ex.c **** {
 2816              		.loc 1 1313 1
 2817              		.cfi_startproc
 2818              		@ args = 0, pretend = 0, frame = 8
 2819              		@ frame_needed = 1, uses_anonymous_args = 0
 2820 0000 80B5     		push	{r7, lr}
 2821              	.LCFI112:
 2822              		.cfi_def_cfa_offset 8
 2823              		.cfi_offset 7, -8
 2824              		.cfi_offset 14, -4
 2825 0002 82B0     		sub	sp, sp, #8
 2826              	.LCFI113:
 2827              		.cfi_def_cfa_offset 16
 2828 0004 00AF     		add	r7, sp, #0
 2829              	.LCFI114:
 2830              		.cfi_def_cfa_register 7
 2831 0006 7860     		str	r0, [r7, #4]
 2832 0008 3960     		str	r1, [r7]
1314:Drivers/STM32F4xx_HAL_Driver/Src/stm32f4xx_hal_tim_ex.c ****   /* Check the parameters */
1315:Drivers/STM32F4xx_HAL_Driver/Src/stm32f4xx_hal_tim_ex.c ****   assert_param(IS_TIM_CCXN_INSTANCE(htim->Instance, OutputChannel));
1316:Drivers/STM32F4xx_HAL_Driver/Src/stm32f4xx_hal_tim_ex.c **** 
1317:Drivers/STM32F4xx_HAL_Driver/Src/stm32f4xx_hal_tim_ex.c ****   /* Enable the complementary One Pulse output */
ARM GAS  /tmp/ccilmNhL.s 			page 73


1318:Drivers/STM32F4xx_HAL_Driver/Src/stm32f4xx_hal_tim_ex.c ****   TIM_CCxNChannelCmd(htim->Instance, OutputChannel, TIM_CCxN_ENABLE);
 2833              		.loc 1 1318 3
 2834 000a 7B68     		ldr	r3, [r7, #4]
 2835 000c 1B68     		ldr	r3, [r3]
 2836 000e 0422     		movs	r2, #4
 2837 0010 3968     		ldr	r1, [r7]
 2838 0012 1846     		mov	r0, r3
 2839 0014 FFF7FEFF 		bl	TIM_CCxNChannelCmd
1319:Drivers/STM32F4xx_HAL_Driver/Src/stm32f4xx_hal_tim_ex.c **** 
1320:Drivers/STM32F4xx_HAL_Driver/Src/stm32f4xx_hal_tim_ex.c ****   /* Enable the Main Output */
1321:Drivers/STM32F4xx_HAL_Driver/Src/stm32f4xx_hal_tim_ex.c ****   __HAL_TIM_MOE_ENABLE(htim);
 2840              		.loc 1 1321 3
 2841 0018 7B68     		ldr	r3, [r7, #4]
 2842 001a 1B68     		ldr	r3, [r3]
 2843 001c 5A6C     		ldr	r2, [r3, #68]
 2844 001e 7B68     		ldr	r3, [r7, #4]
 2845 0020 1B68     		ldr	r3, [r3]
 2846 0022 42F40042 		orr	r2, r2, #32768
 2847 0026 5A64     		str	r2, [r3, #68]
1322:Drivers/STM32F4xx_HAL_Driver/Src/stm32f4xx_hal_tim_ex.c **** 
1323:Drivers/STM32F4xx_HAL_Driver/Src/stm32f4xx_hal_tim_ex.c ****   /* Return function status */
1324:Drivers/STM32F4xx_HAL_Driver/Src/stm32f4xx_hal_tim_ex.c ****   return HAL_OK;
 2848              		.loc 1 1324 10
 2849 0028 0023     		movs	r3, #0
1325:Drivers/STM32F4xx_HAL_Driver/Src/stm32f4xx_hal_tim_ex.c **** }
 2850              		.loc 1 1325 1
 2851 002a 1846     		mov	r0, r3
 2852 002c 0837     		adds	r7, r7, #8
 2853              	.LCFI115:
 2854              		.cfi_def_cfa_offset 8
 2855 002e BD46     		mov	sp, r7
 2856              	.LCFI116:
 2857              		.cfi_def_cfa_register 13
 2858              		@ sp needed
 2859 0030 80BD     		pop	{r7, pc}
 2860              		.cfi_endproc
 2861              	.LFE152:
 2863              		.section	.text.HAL_TIMEx_OnePulseN_Stop,"ax",%progbits
 2864              		.align	1
 2865              		.global	HAL_TIMEx_OnePulseN_Stop
 2866              		.syntax unified
 2867              		.thumb
 2868              		.thumb_func
 2869              		.fpu fpv4-sp-d16
 2871              	HAL_TIMEx_OnePulseN_Stop:
 2872              	.LFB153:
1326:Drivers/STM32F4xx_HAL_Driver/Src/stm32f4xx_hal_tim_ex.c **** 
1327:Drivers/STM32F4xx_HAL_Driver/Src/stm32f4xx_hal_tim_ex.c **** /**
1328:Drivers/STM32F4xx_HAL_Driver/Src/stm32f4xx_hal_tim_ex.c ****   * @brief  Stops the TIM One Pulse signal generation on the complementary
1329:Drivers/STM32F4xx_HAL_Driver/Src/stm32f4xx_hal_tim_ex.c ****   *         output.
1330:Drivers/STM32F4xx_HAL_Driver/Src/stm32f4xx_hal_tim_ex.c ****   * @param  htim TIM One Pulse handle
1331:Drivers/STM32F4xx_HAL_Driver/Src/stm32f4xx_hal_tim_ex.c ****   * @param  OutputChannel TIM Channel to be disabled
1332:Drivers/STM32F4xx_HAL_Driver/Src/stm32f4xx_hal_tim_ex.c ****   *          This parameter can be one of the following values:
1333:Drivers/STM32F4xx_HAL_Driver/Src/stm32f4xx_hal_tim_ex.c ****   *            @arg TIM_CHANNEL_1: TIM Channel 1 selected
1334:Drivers/STM32F4xx_HAL_Driver/Src/stm32f4xx_hal_tim_ex.c ****   *            @arg TIM_CHANNEL_2: TIM Channel 2 selected
1335:Drivers/STM32F4xx_HAL_Driver/Src/stm32f4xx_hal_tim_ex.c ****   * @retval HAL status
1336:Drivers/STM32F4xx_HAL_Driver/Src/stm32f4xx_hal_tim_ex.c ****   */
ARM GAS  /tmp/ccilmNhL.s 			page 74


1337:Drivers/STM32F4xx_HAL_Driver/Src/stm32f4xx_hal_tim_ex.c **** HAL_StatusTypeDef HAL_TIMEx_OnePulseN_Stop(TIM_HandleTypeDef *htim, uint32_t OutputChannel)
1338:Drivers/STM32F4xx_HAL_Driver/Src/stm32f4xx_hal_tim_ex.c **** {
 2873              		.loc 1 1338 1
 2874              		.cfi_startproc
 2875              		@ args = 0, pretend = 0, frame = 8
 2876              		@ frame_needed = 1, uses_anonymous_args = 0
 2877 0000 80B5     		push	{r7, lr}
 2878              	.LCFI117:
 2879              		.cfi_def_cfa_offset 8
 2880              		.cfi_offset 7, -8
 2881              		.cfi_offset 14, -4
 2882 0002 82B0     		sub	sp, sp, #8
 2883              	.LCFI118:
 2884              		.cfi_def_cfa_offset 16
 2885 0004 00AF     		add	r7, sp, #0
 2886              	.LCFI119:
 2887              		.cfi_def_cfa_register 7
 2888 0006 7860     		str	r0, [r7, #4]
 2889 0008 3960     		str	r1, [r7]
1339:Drivers/STM32F4xx_HAL_Driver/Src/stm32f4xx_hal_tim_ex.c **** 
1340:Drivers/STM32F4xx_HAL_Driver/Src/stm32f4xx_hal_tim_ex.c ****   /* Check the parameters */
1341:Drivers/STM32F4xx_HAL_Driver/Src/stm32f4xx_hal_tim_ex.c ****   assert_param(IS_TIM_CCXN_INSTANCE(htim->Instance, OutputChannel));
1342:Drivers/STM32F4xx_HAL_Driver/Src/stm32f4xx_hal_tim_ex.c **** 
1343:Drivers/STM32F4xx_HAL_Driver/Src/stm32f4xx_hal_tim_ex.c ****   /* Disable the complementary One Pulse output */
1344:Drivers/STM32F4xx_HAL_Driver/Src/stm32f4xx_hal_tim_ex.c ****   TIM_CCxNChannelCmd(htim->Instance, OutputChannel, TIM_CCxN_DISABLE);
 2890              		.loc 1 1344 3
 2891 000a 7B68     		ldr	r3, [r7, #4]
 2892 000c 1B68     		ldr	r3, [r3]
 2893 000e 0022     		movs	r2, #0
 2894 0010 3968     		ldr	r1, [r7]
 2895 0012 1846     		mov	r0, r3
 2896 0014 FFF7FEFF 		bl	TIM_CCxNChannelCmd
1345:Drivers/STM32F4xx_HAL_Driver/Src/stm32f4xx_hal_tim_ex.c **** 
1346:Drivers/STM32F4xx_HAL_Driver/Src/stm32f4xx_hal_tim_ex.c ****   /* Disable the Main Output */
1347:Drivers/STM32F4xx_HAL_Driver/Src/stm32f4xx_hal_tim_ex.c ****   __HAL_TIM_MOE_DISABLE(htim);
 2897              		.loc 1 1347 3
 2898 0018 7B68     		ldr	r3, [r7, #4]
 2899 001a 1B68     		ldr	r3, [r3]
 2900 001c 1A6A     		ldr	r2, [r3, #32]
 2901 001e 41F21113 		movw	r3, #4369
 2902 0022 1340     		ands	r3, r3, r2
 2903 0024 002B     		cmp	r3, #0
 2904 0026 0FD1     		bne	.L138
 2905              		.loc 1 1347 3 is_stmt 0 discriminator 1
 2906 0028 7B68     		ldr	r3, [r7, #4]
 2907 002a 1B68     		ldr	r3, [r3]
 2908 002c 1A6A     		ldr	r2, [r3, #32]
 2909 002e 40F24443 		movw	r3, #1092
 2910 0032 1340     		ands	r3, r3, r2
 2911 0034 002B     		cmp	r3, #0
 2912 0036 07D1     		bne	.L138
 2913              		.loc 1 1347 3 discriminator 2
 2914 0038 7B68     		ldr	r3, [r7, #4]
 2915 003a 1B68     		ldr	r3, [r3]
 2916 003c 5A6C     		ldr	r2, [r3, #68]
 2917 003e 7B68     		ldr	r3, [r7, #4]
 2918 0040 1B68     		ldr	r3, [r3]
ARM GAS  /tmp/ccilmNhL.s 			page 75


 2919 0042 22F40042 		bic	r2, r2, #32768
 2920 0046 5A64     		str	r2, [r3, #68]
 2921              	.L138:
1348:Drivers/STM32F4xx_HAL_Driver/Src/stm32f4xx_hal_tim_ex.c **** 
1349:Drivers/STM32F4xx_HAL_Driver/Src/stm32f4xx_hal_tim_ex.c ****   /* Disable the Peripheral */
1350:Drivers/STM32F4xx_HAL_Driver/Src/stm32f4xx_hal_tim_ex.c ****   __HAL_TIM_DISABLE(htim);
 2922              		.loc 1 1350 3 is_stmt 1
 2923 0048 7B68     		ldr	r3, [r7, #4]
 2924 004a 1B68     		ldr	r3, [r3]
 2925 004c 1A6A     		ldr	r2, [r3, #32]
 2926 004e 41F21113 		movw	r3, #4369
 2927 0052 1340     		ands	r3, r3, r2
 2928 0054 002B     		cmp	r3, #0
 2929 0056 0FD1     		bne	.L139
 2930              		.loc 1 1350 3 is_stmt 0 discriminator 1
 2931 0058 7B68     		ldr	r3, [r7, #4]
 2932 005a 1B68     		ldr	r3, [r3]
 2933 005c 1A6A     		ldr	r2, [r3, #32]
 2934 005e 40F24443 		movw	r3, #1092
 2935 0062 1340     		ands	r3, r3, r2
 2936 0064 002B     		cmp	r3, #0
 2937 0066 07D1     		bne	.L139
 2938              		.loc 1 1350 3 discriminator 2
 2939 0068 7B68     		ldr	r3, [r7, #4]
 2940 006a 1B68     		ldr	r3, [r3]
 2941 006c 1A68     		ldr	r2, [r3]
 2942 006e 7B68     		ldr	r3, [r7, #4]
 2943 0070 1B68     		ldr	r3, [r3]
 2944 0072 22F00102 		bic	r2, r2, #1
 2945 0076 1A60     		str	r2, [r3]
 2946              	.L139:
1351:Drivers/STM32F4xx_HAL_Driver/Src/stm32f4xx_hal_tim_ex.c **** 
1352:Drivers/STM32F4xx_HAL_Driver/Src/stm32f4xx_hal_tim_ex.c ****   /* Return function status */
1353:Drivers/STM32F4xx_HAL_Driver/Src/stm32f4xx_hal_tim_ex.c ****   return HAL_OK;
 2947              		.loc 1 1353 10 is_stmt 1
 2948 0078 0023     		movs	r3, #0
1354:Drivers/STM32F4xx_HAL_Driver/Src/stm32f4xx_hal_tim_ex.c **** }
 2949              		.loc 1 1354 1
 2950 007a 1846     		mov	r0, r3
 2951 007c 0837     		adds	r7, r7, #8
 2952              	.LCFI120:
 2953              		.cfi_def_cfa_offset 8
 2954 007e BD46     		mov	sp, r7
 2955              	.LCFI121:
 2956              		.cfi_def_cfa_register 13
 2957              		@ sp needed
 2958 0080 80BD     		pop	{r7, pc}
 2959              		.cfi_endproc
 2960              	.LFE153:
 2962              		.section	.text.HAL_TIMEx_OnePulseN_Start_IT,"ax",%progbits
 2963              		.align	1
 2964              		.global	HAL_TIMEx_OnePulseN_Start_IT
 2965              		.syntax unified
 2966              		.thumb
 2967              		.thumb_func
 2968              		.fpu fpv4-sp-d16
 2970              	HAL_TIMEx_OnePulseN_Start_IT:
ARM GAS  /tmp/ccilmNhL.s 			page 76


 2971              	.LFB154:
1355:Drivers/STM32F4xx_HAL_Driver/Src/stm32f4xx_hal_tim_ex.c **** 
1356:Drivers/STM32F4xx_HAL_Driver/Src/stm32f4xx_hal_tim_ex.c **** /**
1357:Drivers/STM32F4xx_HAL_Driver/Src/stm32f4xx_hal_tim_ex.c ****   * @brief  Starts the TIM One Pulse signal generation in interrupt mode on the
1358:Drivers/STM32F4xx_HAL_Driver/Src/stm32f4xx_hal_tim_ex.c ****   *         complementary channel.
1359:Drivers/STM32F4xx_HAL_Driver/Src/stm32f4xx_hal_tim_ex.c ****   * @param  htim TIM One Pulse handle
1360:Drivers/STM32F4xx_HAL_Driver/Src/stm32f4xx_hal_tim_ex.c ****   * @param  OutputChannel TIM Channel to be enabled
1361:Drivers/STM32F4xx_HAL_Driver/Src/stm32f4xx_hal_tim_ex.c ****   *          This parameter can be one of the following values:
1362:Drivers/STM32F4xx_HAL_Driver/Src/stm32f4xx_hal_tim_ex.c ****   *            @arg TIM_CHANNEL_1: TIM Channel 1 selected
1363:Drivers/STM32F4xx_HAL_Driver/Src/stm32f4xx_hal_tim_ex.c ****   *            @arg TIM_CHANNEL_2: TIM Channel 2 selected
1364:Drivers/STM32F4xx_HAL_Driver/Src/stm32f4xx_hal_tim_ex.c ****   * @retval HAL status
1365:Drivers/STM32F4xx_HAL_Driver/Src/stm32f4xx_hal_tim_ex.c ****   */
1366:Drivers/STM32F4xx_HAL_Driver/Src/stm32f4xx_hal_tim_ex.c **** HAL_StatusTypeDef HAL_TIMEx_OnePulseN_Start_IT(TIM_HandleTypeDef *htim, uint32_t OutputChannel)
1367:Drivers/STM32F4xx_HAL_Driver/Src/stm32f4xx_hal_tim_ex.c **** {
 2972              		.loc 1 1367 1
 2973              		.cfi_startproc
 2974              		@ args = 0, pretend = 0, frame = 8
 2975              		@ frame_needed = 1, uses_anonymous_args = 0
 2976 0000 80B5     		push	{r7, lr}
 2977              	.LCFI122:
 2978              		.cfi_def_cfa_offset 8
 2979              		.cfi_offset 7, -8
 2980              		.cfi_offset 14, -4
 2981 0002 82B0     		sub	sp, sp, #8
 2982              	.LCFI123:
 2983              		.cfi_def_cfa_offset 16
 2984 0004 00AF     		add	r7, sp, #0
 2985              	.LCFI124:
 2986              		.cfi_def_cfa_register 7
 2987 0006 7860     		str	r0, [r7, #4]
 2988 0008 3960     		str	r1, [r7]
1368:Drivers/STM32F4xx_HAL_Driver/Src/stm32f4xx_hal_tim_ex.c ****   /* Check the parameters */
1369:Drivers/STM32F4xx_HAL_Driver/Src/stm32f4xx_hal_tim_ex.c ****   assert_param(IS_TIM_CCXN_INSTANCE(htim->Instance, OutputChannel));
1370:Drivers/STM32F4xx_HAL_Driver/Src/stm32f4xx_hal_tim_ex.c **** 
1371:Drivers/STM32F4xx_HAL_Driver/Src/stm32f4xx_hal_tim_ex.c ****   /* Enable the TIM Capture/Compare 1 interrupt */
1372:Drivers/STM32F4xx_HAL_Driver/Src/stm32f4xx_hal_tim_ex.c ****   __HAL_TIM_ENABLE_IT(htim, TIM_IT_CC1);
 2989              		.loc 1 1372 3
 2990 000a 7B68     		ldr	r3, [r7, #4]
 2991 000c 1B68     		ldr	r3, [r3]
 2992 000e DA68     		ldr	r2, [r3, #12]
 2993 0010 7B68     		ldr	r3, [r7, #4]
 2994 0012 1B68     		ldr	r3, [r3]
 2995 0014 42F00202 		orr	r2, r2, #2
 2996 0018 DA60     		str	r2, [r3, #12]
1373:Drivers/STM32F4xx_HAL_Driver/Src/stm32f4xx_hal_tim_ex.c **** 
1374:Drivers/STM32F4xx_HAL_Driver/Src/stm32f4xx_hal_tim_ex.c ****   /* Enable the TIM Capture/Compare 2 interrupt */
1375:Drivers/STM32F4xx_HAL_Driver/Src/stm32f4xx_hal_tim_ex.c ****   __HAL_TIM_ENABLE_IT(htim, TIM_IT_CC2);
 2997              		.loc 1 1375 3
 2998 001a 7B68     		ldr	r3, [r7, #4]
 2999 001c 1B68     		ldr	r3, [r3]
 3000 001e DA68     		ldr	r2, [r3, #12]
 3001 0020 7B68     		ldr	r3, [r7, #4]
 3002 0022 1B68     		ldr	r3, [r3]
 3003 0024 42F00402 		orr	r2, r2, #4
 3004 0028 DA60     		str	r2, [r3, #12]
1376:Drivers/STM32F4xx_HAL_Driver/Src/stm32f4xx_hal_tim_ex.c **** 
1377:Drivers/STM32F4xx_HAL_Driver/Src/stm32f4xx_hal_tim_ex.c ****   /* Enable the complementary One Pulse output */
ARM GAS  /tmp/ccilmNhL.s 			page 77


1378:Drivers/STM32F4xx_HAL_Driver/Src/stm32f4xx_hal_tim_ex.c ****   TIM_CCxNChannelCmd(htim->Instance, OutputChannel, TIM_CCxN_ENABLE);
 3005              		.loc 1 1378 3
 3006 002a 7B68     		ldr	r3, [r7, #4]
 3007 002c 1B68     		ldr	r3, [r3]
 3008 002e 0422     		movs	r2, #4
 3009 0030 3968     		ldr	r1, [r7]
 3010 0032 1846     		mov	r0, r3
 3011 0034 FFF7FEFF 		bl	TIM_CCxNChannelCmd
1379:Drivers/STM32F4xx_HAL_Driver/Src/stm32f4xx_hal_tim_ex.c **** 
1380:Drivers/STM32F4xx_HAL_Driver/Src/stm32f4xx_hal_tim_ex.c ****   /* Enable the Main Output */
1381:Drivers/STM32F4xx_HAL_Driver/Src/stm32f4xx_hal_tim_ex.c ****   __HAL_TIM_MOE_ENABLE(htim);
 3012              		.loc 1 1381 3
 3013 0038 7B68     		ldr	r3, [r7, #4]
 3014 003a 1B68     		ldr	r3, [r3]
 3015 003c 5A6C     		ldr	r2, [r3, #68]
 3016 003e 7B68     		ldr	r3, [r7, #4]
 3017 0040 1B68     		ldr	r3, [r3]
 3018 0042 42F40042 		orr	r2, r2, #32768
 3019 0046 5A64     		str	r2, [r3, #68]
1382:Drivers/STM32F4xx_HAL_Driver/Src/stm32f4xx_hal_tim_ex.c **** 
1383:Drivers/STM32F4xx_HAL_Driver/Src/stm32f4xx_hal_tim_ex.c ****   /* Return function status */
1384:Drivers/STM32F4xx_HAL_Driver/Src/stm32f4xx_hal_tim_ex.c ****   return HAL_OK;
 3020              		.loc 1 1384 10
 3021 0048 0023     		movs	r3, #0
1385:Drivers/STM32F4xx_HAL_Driver/Src/stm32f4xx_hal_tim_ex.c **** }
 3022              		.loc 1 1385 1
 3023 004a 1846     		mov	r0, r3
 3024 004c 0837     		adds	r7, r7, #8
 3025              	.LCFI125:
 3026              		.cfi_def_cfa_offset 8
 3027 004e BD46     		mov	sp, r7
 3028              	.LCFI126:
 3029              		.cfi_def_cfa_register 13
 3030              		@ sp needed
 3031 0050 80BD     		pop	{r7, pc}
 3032              		.cfi_endproc
 3033              	.LFE154:
 3035              		.section	.text.HAL_TIMEx_OnePulseN_Stop_IT,"ax",%progbits
 3036              		.align	1
 3037              		.global	HAL_TIMEx_OnePulseN_Stop_IT
 3038              		.syntax unified
 3039              		.thumb
 3040              		.thumb_func
 3041              		.fpu fpv4-sp-d16
 3043              	HAL_TIMEx_OnePulseN_Stop_IT:
 3044              	.LFB155:
1386:Drivers/STM32F4xx_HAL_Driver/Src/stm32f4xx_hal_tim_ex.c **** 
1387:Drivers/STM32F4xx_HAL_Driver/Src/stm32f4xx_hal_tim_ex.c **** /**
1388:Drivers/STM32F4xx_HAL_Driver/Src/stm32f4xx_hal_tim_ex.c ****   * @brief  Stops the TIM One Pulse signal generation in interrupt mode on the
1389:Drivers/STM32F4xx_HAL_Driver/Src/stm32f4xx_hal_tim_ex.c ****   *         complementary channel.
1390:Drivers/STM32F4xx_HAL_Driver/Src/stm32f4xx_hal_tim_ex.c ****   * @param  htim TIM One Pulse handle
1391:Drivers/STM32F4xx_HAL_Driver/Src/stm32f4xx_hal_tim_ex.c ****   * @param  OutputChannel TIM Channel to be disabled
1392:Drivers/STM32F4xx_HAL_Driver/Src/stm32f4xx_hal_tim_ex.c ****   *          This parameter can be one of the following values:
1393:Drivers/STM32F4xx_HAL_Driver/Src/stm32f4xx_hal_tim_ex.c ****   *            @arg TIM_CHANNEL_1: TIM Channel 1 selected
1394:Drivers/STM32F4xx_HAL_Driver/Src/stm32f4xx_hal_tim_ex.c ****   *            @arg TIM_CHANNEL_2: TIM Channel 2 selected
1395:Drivers/STM32F4xx_HAL_Driver/Src/stm32f4xx_hal_tim_ex.c ****   * @retval HAL status
1396:Drivers/STM32F4xx_HAL_Driver/Src/stm32f4xx_hal_tim_ex.c ****   */
ARM GAS  /tmp/ccilmNhL.s 			page 78


1397:Drivers/STM32F4xx_HAL_Driver/Src/stm32f4xx_hal_tim_ex.c **** HAL_StatusTypeDef HAL_TIMEx_OnePulseN_Stop_IT(TIM_HandleTypeDef *htim, uint32_t OutputChannel)
1398:Drivers/STM32F4xx_HAL_Driver/Src/stm32f4xx_hal_tim_ex.c **** {
 3045              		.loc 1 1398 1
 3046              		.cfi_startproc
 3047              		@ args = 0, pretend = 0, frame = 8
 3048              		@ frame_needed = 1, uses_anonymous_args = 0
 3049 0000 80B5     		push	{r7, lr}
 3050              	.LCFI127:
 3051              		.cfi_def_cfa_offset 8
 3052              		.cfi_offset 7, -8
 3053              		.cfi_offset 14, -4
 3054 0002 82B0     		sub	sp, sp, #8
 3055              	.LCFI128:
 3056              		.cfi_def_cfa_offset 16
 3057 0004 00AF     		add	r7, sp, #0
 3058              	.LCFI129:
 3059              		.cfi_def_cfa_register 7
 3060 0006 7860     		str	r0, [r7, #4]
 3061 0008 3960     		str	r1, [r7]
1399:Drivers/STM32F4xx_HAL_Driver/Src/stm32f4xx_hal_tim_ex.c ****   /* Check the parameters */
1400:Drivers/STM32F4xx_HAL_Driver/Src/stm32f4xx_hal_tim_ex.c ****   assert_param(IS_TIM_CCXN_INSTANCE(htim->Instance, OutputChannel));
1401:Drivers/STM32F4xx_HAL_Driver/Src/stm32f4xx_hal_tim_ex.c **** 
1402:Drivers/STM32F4xx_HAL_Driver/Src/stm32f4xx_hal_tim_ex.c ****   /* Disable the TIM Capture/Compare 1 interrupt */
1403:Drivers/STM32F4xx_HAL_Driver/Src/stm32f4xx_hal_tim_ex.c ****   __HAL_TIM_DISABLE_IT(htim, TIM_IT_CC1);
 3062              		.loc 1 1403 3
 3063 000a 7B68     		ldr	r3, [r7, #4]
 3064 000c 1B68     		ldr	r3, [r3]
 3065 000e DA68     		ldr	r2, [r3, #12]
 3066 0010 7B68     		ldr	r3, [r7, #4]
 3067 0012 1B68     		ldr	r3, [r3]
 3068 0014 22F00202 		bic	r2, r2, #2
 3069 0018 DA60     		str	r2, [r3, #12]
1404:Drivers/STM32F4xx_HAL_Driver/Src/stm32f4xx_hal_tim_ex.c **** 
1405:Drivers/STM32F4xx_HAL_Driver/Src/stm32f4xx_hal_tim_ex.c ****   /* Disable the TIM Capture/Compare 2 interrupt */
1406:Drivers/STM32F4xx_HAL_Driver/Src/stm32f4xx_hal_tim_ex.c ****   __HAL_TIM_DISABLE_IT(htim, TIM_IT_CC2);
 3070              		.loc 1 1406 3
 3071 001a 7B68     		ldr	r3, [r7, #4]
 3072 001c 1B68     		ldr	r3, [r3]
 3073 001e DA68     		ldr	r2, [r3, #12]
 3074 0020 7B68     		ldr	r3, [r7, #4]
 3075 0022 1B68     		ldr	r3, [r3]
 3076 0024 22F00402 		bic	r2, r2, #4
 3077 0028 DA60     		str	r2, [r3, #12]
1407:Drivers/STM32F4xx_HAL_Driver/Src/stm32f4xx_hal_tim_ex.c **** 
1408:Drivers/STM32F4xx_HAL_Driver/Src/stm32f4xx_hal_tim_ex.c ****   /* Disable the complementary One Pulse output */
1409:Drivers/STM32F4xx_HAL_Driver/Src/stm32f4xx_hal_tim_ex.c ****   TIM_CCxNChannelCmd(htim->Instance, OutputChannel, TIM_CCxN_DISABLE);
 3078              		.loc 1 1409 3
 3079 002a 7B68     		ldr	r3, [r7, #4]
 3080 002c 1B68     		ldr	r3, [r3]
 3081 002e 0022     		movs	r2, #0
 3082 0030 3968     		ldr	r1, [r7]
 3083 0032 1846     		mov	r0, r3
 3084 0034 FFF7FEFF 		bl	TIM_CCxNChannelCmd
1410:Drivers/STM32F4xx_HAL_Driver/Src/stm32f4xx_hal_tim_ex.c **** 
1411:Drivers/STM32F4xx_HAL_Driver/Src/stm32f4xx_hal_tim_ex.c ****   /* Disable the Main Output */
1412:Drivers/STM32F4xx_HAL_Driver/Src/stm32f4xx_hal_tim_ex.c ****   __HAL_TIM_MOE_DISABLE(htim);
 3085              		.loc 1 1412 3
ARM GAS  /tmp/ccilmNhL.s 			page 79


 3086 0038 7B68     		ldr	r3, [r7, #4]
 3087 003a 1B68     		ldr	r3, [r3]
 3088 003c 1A6A     		ldr	r2, [r3, #32]
 3089 003e 41F21113 		movw	r3, #4369
 3090 0042 1340     		ands	r3, r3, r2
 3091 0044 002B     		cmp	r3, #0
 3092 0046 0FD1     		bne	.L144
 3093              		.loc 1 1412 3 is_stmt 0 discriminator 1
 3094 0048 7B68     		ldr	r3, [r7, #4]
 3095 004a 1B68     		ldr	r3, [r3]
 3096 004c 1A6A     		ldr	r2, [r3, #32]
 3097 004e 40F24443 		movw	r3, #1092
 3098 0052 1340     		ands	r3, r3, r2
 3099 0054 002B     		cmp	r3, #0
 3100 0056 07D1     		bne	.L144
 3101              		.loc 1 1412 3 discriminator 2
 3102 0058 7B68     		ldr	r3, [r7, #4]
 3103 005a 1B68     		ldr	r3, [r3]
 3104 005c 5A6C     		ldr	r2, [r3, #68]
 3105 005e 7B68     		ldr	r3, [r7, #4]
 3106 0060 1B68     		ldr	r3, [r3]
 3107 0062 22F40042 		bic	r2, r2, #32768
 3108 0066 5A64     		str	r2, [r3, #68]
 3109              	.L144:
1413:Drivers/STM32F4xx_HAL_Driver/Src/stm32f4xx_hal_tim_ex.c **** 
1414:Drivers/STM32F4xx_HAL_Driver/Src/stm32f4xx_hal_tim_ex.c ****   /* Disable the Peripheral */
1415:Drivers/STM32F4xx_HAL_Driver/Src/stm32f4xx_hal_tim_ex.c ****   __HAL_TIM_DISABLE(htim);
 3110              		.loc 1 1415 3 is_stmt 1
 3111 0068 7B68     		ldr	r3, [r7, #4]
 3112 006a 1B68     		ldr	r3, [r3]
 3113 006c 1A6A     		ldr	r2, [r3, #32]
 3114 006e 41F21113 		movw	r3, #4369
 3115 0072 1340     		ands	r3, r3, r2
 3116 0074 002B     		cmp	r3, #0
 3117 0076 0FD1     		bne	.L145
 3118              		.loc 1 1415 3 is_stmt 0 discriminator 1
 3119 0078 7B68     		ldr	r3, [r7, #4]
 3120 007a 1B68     		ldr	r3, [r3]
 3121 007c 1A6A     		ldr	r2, [r3, #32]
 3122 007e 40F24443 		movw	r3, #1092
 3123 0082 1340     		ands	r3, r3, r2
 3124 0084 002B     		cmp	r3, #0
 3125 0086 07D1     		bne	.L145
 3126              		.loc 1 1415 3 discriminator 2
 3127 0088 7B68     		ldr	r3, [r7, #4]
 3128 008a 1B68     		ldr	r3, [r3]
 3129 008c 1A68     		ldr	r2, [r3]
 3130 008e 7B68     		ldr	r3, [r7, #4]
 3131 0090 1B68     		ldr	r3, [r3]
 3132 0092 22F00102 		bic	r2, r2, #1
 3133 0096 1A60     		str	r2, [r3]
 3134              	.L145:
1416:Drivers/STM32F4xx_HAL_Driver/Src/stm32f4xx_hal_tim_ex.c **** 
1417:Drivers/STM32F4xx_HAL_Driver/Src/stm32f4xx_hal_tim_ex.c ****   /* Return function status */
1418:Drivers/STM32F4xx_HAL_Driver/Src/stm32f4xx_hal_tim_ex.c ****   return HAL_OK;
 3135              		.loc 1 1418 10 is_stmt 1
 3136 0098 0023     		movs	r3, #0
ARM GAS  /tmp/ccilmNhL.s 			page 80


1419:Drivers/STM32F4xx_HAL_Driver/Src/stm32f4xx_hal_tim_ex.c **** }
 3137              		.loc 1 1419 1
 3138 009a 1846     		mov	r0, r3
 3139 009c 0837     		adds	r7, r7, #8
 3140              	.LCFI130:
 3141              		.cfi_def_cfa_offset 8
 3142 009e BD46     		mov	sp, r7
 3143              	.LCFI131:
 3144              		.cfi_def_cfa_register 13
 3145              		@ sp needed
 3146 00a0 80BD     		pop	{r7, pc}
 3147              		.cfi_endproc
 3148              	.LFE155:
 3150              		.section	.text.HAL_TIMEx_ConfigCommutEvent,"ax",%progbits
 3151              		.align	1
 3152              		.global	HAL_TIMEx_ConfigCommutEvent
 3153              		.syntax unified
 3154              		.thumb
 3155              		.thumb_func
 3156              		.fpu fpv4-sp-d16
 3158              	HAL_TIMEx_ConfigCommutEvent:
 3159              	.LFB156:
1420:Drivers/STM32F4xx_HAL_Driver/Src/stm32f4xx_hal_tim_ex.c **** 
1421:Drivers/STM32F4xx_HAL_Driver/Src/stm32f4xx_hal_tim_ex.c **** /**
1422:Drivers/STM32F4xx_HAL_Driver/Src/stm32f4xx_hal_tim_ex.c ****   * @}
1423:Drivers/STM32F4xx_HAL_Driver/Src/stm32f4xx_hal_tim_ex.c ****   */
1424:Drivers/STM32F4xx_HAL_Driver/Src/stm32f4xx_hal_tim_ex.c **** 
1425:Drivers/STM32F4xx_HAL_Driver/Src/stm32f4xx_hal_tim_ex.c **** /** @defgroup TIMEx_Exported_Functions_Group5 Extended Peripheral Control functions
1426:Drivers/STM32F4xx_HAL_Driver/Src/stm32f4xx_hal_tim_ex.c ****   * @brief    Peripheral Control functions
1427:Drivers/STM32F4xx_HAL_Driver/Src/stm32f4xx_hal_tim_ex.c ****   *
1428:Drivers/STM32F4xx_HAL_Driver/Src/stm32f4xx_hal_tim_ex.c **** @verbatim
1429:Drivers/STM32F4xx_HAL_Driver/Src/stm32f4xx_hal_tim_ex.c ****   ==============================================================================
1430:Drivers/STM32F4xx_HAL_Driver/Src/stm32f4xx_hal_tim_ex.c ****                     ##### Peripheral Control functions #####
1431:Drivers/STM32F4xx_HAL_Driver/Src/stm32f4xx_hal_tim_ex.c ****   ==============================================================================
1432:Drivers/STM32F4xx_HAL_Driver/Src/stm32f4xx_hal_tim_ex.c ****   [..]
1433:Drivers/STM32F4xx_HAL_Driver/Src/stm32f4xx_hal_tim_ex.c ****     This section provides functions allowing to:
1434:Drivers/STM32F4xx_HAL_Driver/Src/stm32f4xx_hal_tim_ex.c ****       (+) Configure the commutation event in case of use of the Hall sensor interface.
1435:Drivers/STM32F4xx_HAL_Driver/Src/stm32f4xx_hal_tim_ex.c ****       (+) Configure Output channels for OC and PWM mode.
1436:Drivers/STM32F4xx_HAL_Driver/Src/stm32f4xx_hal_tim_ex.c **** 
1437:Drivers/STM32F4xx_HAL_Driver/Src/stm32f4xx_hal_tim_ex.c ****       (+) Configure Complementary channels, break features and dead time.
1438:Drivers/STM32F4xx_HAL_Driver/Src/stm32f4xx_hal_tim_ex.c ****       (+) Configure Master synchronization.
1439:Drivers/STM32F4xx_HAL_Driver/Src/stm32f4xx_hal_tim_ex.c ****       (+) Configure timer remapping capabilities.
1440:Drivers/STM32F4xx_HAL_Driver/Src/stm32f4xx_hal_tim_ex.c **** 
1441:Drivers/STM32F4xx_HAL_Driver/Src/stm32f4xx_hal_tim_ex.c **** @endverbatim
1442:Drivers/STM32F4xx_HAL_Driver/Src/stm32f4xx_hal_tim_ex.c ****   * @{
1443:Drivers/STM32F4xx_HAL_Driver/Src/stm32f4xx_hal_tim_ex.c ****   */
1444:Drivers/STM32F4xx_HAL_Driver/Src/stm32f4xx_hal_tim_ex.c **** 
1445:Drivers/STM32F4xx_HAL_Driver/Src/stm32f4xx_hal_tim_ex.c **** /**
1446:Drivers/STM32F4xx_HAL_Driver/Src/stm32f4xx_hal_tim_ex.c ****   * @brief  Configure the TIM commutation event sequence.
1447:Drivers/STM32F4xx_HAL_Driver/Src/stm32f4xx_hal_tim_ex.c ****   * @note  This function is mandatory to use the commutation event in order to
1448:Drivers/STM32F4xx_HAL_Driver/Src/stm32f4xx_hal_tim_ex.c ****   *        update the configuration at each commutation detection on the TRGI input of the Timer,
1449:Drivers/STM32F4xx_HAL_Driver/Src/stm32f4xx_hal_tim_ex.c ****   *        the typical use of this feature is with the use of another Timer(interface Timer)
1450:Drivers/STM32F4xx_HAL_Driver/Src/stm32f4xx_hal_tim_ex.c ****   *        configured in Hall sensor interface, this interface Timer will generate the
1451:Drivers/STM32F4xx_HAL_Driver/Src/stm32f4xx_hal_tim_ex.c ****   *        commutation at its TRGO output (connected to Timer used in this function) each time
1452:Drivers/STM32F4xx_HAL_Driver/Src/stm32f4xx_hal_tim_ex.c ****   *        the TI1 of the Interface Timer detect a commutation at its input TI1.
1453:Drivers/STM32F4xx_HAL_Driver/Src/stm32f4xx_hal_tim_ex.c ****   * @param  htim TIM handle
1454:Drivers/STM32F4xx_HAL_Driver/Src/stm32f4xx_hal_tim_ex.c ****   * @param  InputTrigger the Internal trigger corresponding to the Timer Interfacing with the Hall 
ARM GAS  /tmp/ccilmNhL.s 			page 81


1455:Drivers/STM32F4xx_HAL_Driver/Src/stm32f4xx_hal_tim_ex.c ****   *          This parameter can be one of the following values:
1456:Drivers/STM32F4xx_HAL_Driver/Src/stm32f4xx_hal_tim_ex.c ****   *            @arg TIM_TS_ITR0: Internal trigger 0 selected
1457:Drivers/STM32F4xx_HAL_Driver/Src/stm32f4xx_hal_tim_ex.c ****   *            @arg TIM_TS_ITR1: Internal trigger 1 selected
1458:Drivers/STM32F4xx_HAL_Driver/Src/stm32f4xx_hal_tim_ex.c ****   *            @arg TIM_TS_ITR2: Internal trigger 2 selected
1459:Drivers/STM32F4xx_HAL_Driver/Src/stm32f4xx_hal_tim_ex.c ****   *            @arg TIM_TS_ITR3: Internal trigger 3 selected
1460:Drivers/STM32F4xx_HAL_Driver/Src/stm32f4xx_hal_tim_ex.c ****   *            @arg TIM_TS_NONE: No trigger is needed
1461:Drivers/STM32F4xx_HAL_Driver/Src/stm32f4xx_hal_tim_ex.c ****   * @param  CommutationSource the Commutation Event source
1462:Drivers/STM32F4xx_HAL_Driver/Src/stm32f4xx_hal_tim_ex.c ****   *          This parameter can be one of the following values:
1463:Drivers/STM32F4xx_HAL_Driver/Src/stm32f4xx_hal_tim_ex.c ****   *            @arg TIM_COMMUTATION_TRGI: Commutation source is the TRGI of the Interface Timer
1464:Drivers/STM32F4xx_HAL_Driver/Src/stm32f4xx_hal_tim_ex.c ****   *            @arg TIM_COMMUTATION_SOFTWARE:  Commutation source is set by software using the COMG
1465:Drivers/STM32F4xx_HAL_Driver/Src/stm32f4xx_hal_tim_ex.c ****   * @retval HAL status
1466:Drivers/STM32F4xx_HAL_Driver/Src/stm32f4xx_hal_tim_ex.c ****   */
1467:Drivers/STM32F4xx_HAL_Driver/Src/stm32f4xx_hal_tim_ex.c **** HAL_StatusTypeDef HAL_TIMEx_ConfigCommutEvent(TIM_HandleTypeDef *htim, uint32_t  InputTrigger,
1468:Drivers/STM32F4xx_HAL_Driver/Src/stm32f4xx_hal_tim_ex.c ****                                               uint32_t  CommutationSource)
1469:Drivers/STM32F4xx_HAL_Driver/Src/stm32f4xx_hal_tim_ex.c **** {
 3160              		.loc 1 1469 1
 3161              		.cfi_startproc
 3162              		@ args = 0, pretend = 0, frame = 16
 3163              		@ frame_needed = 1, uses_anonymous_args = 0
 3164              		@ link register save eliminated.
 3165 0000 80B4     		push	{r7}
 3166              	.LCFI132:
 3167              		.cfi_def_cfa_offset 4
 3168              		.cfi_offset 7, -4
 3169 0002 85B0     		sub	sp, sp, #20
 3170              	.LCFI133:
 3171              		.cfi_def_cfa_offset 24
 3172 0004 00AF     		add	r7, sp, #0
 3173              	.LCFI134:
 3174              		.cfi_def_cfa_register 7
 3175 0006 F860     		str	r0, [r7, #12]
 3176 0008 B960     		str	r1, [r7, #8]
 3177 000a 7A60     		str	r2, [r7, #4]
1470:Drivers/STM32F4xx_HAL_Driver/Src/stm32f4xx_hal_tim_ex.c ****   /* Check the parameters */
1471:Drivers/STM32F4xx_HAL_Driver/Src/stm32f4xx_hal_tim_ex.c ****   assert_param(IS_TIM_COMMUTATION_EVENT_INSTANCE(htim->Instance));
1472:Drivers/STM32F4xx_HAL_Driver/Src/stm32f4xx_hal_tim_ex.c ****   assert_param(IS_TIM_INTERNAL_TRIGGEREVENT_SELECTION(InputTrigger));
1473:Drivers/STM32F4xx_HAL_Driver/Src/stm32f4xx_hal_tim_ex.c **** 
1474:Drivers/STM32F4xx_HAL_Driver/Src/stm32f4xx_hal_tim_ex.c ****   __HAL_LOCK(htim);
 3178              		.loc 1 1474 3
 3179 000c FB68     		ldr	r3, [r7, #12]
 3180 000e 93F83C30 		ldrb	r3, [r3, #60]	@ zero_extendqisi2
 3181 0012 012B     		cmp	r3, #1
 3182 0014 01D1     		bne	.L148
 3183              		.loc 1 1474 3 is_stmt 0 discriminator 1
 3184 0016 0223     		movs	r3, #2
 3185 0018 4CE0     		b	.L149
 3186              	.L148:
 3187              		.loc 1 1474 3 discriminator 2
 3188 001a FB68     		ldr	r3, [r7, #12]
 3189 001c 0122     		movs	r2, #1
 3190 001e 83F83C20 		strb	r2, [r3, #60]
1475:Drivers/STM32F4xx_HAL_Driver/Src/stm32f4xx_hal_tim_ex.c **** 
1476:Drivers/STM32F4xx_HAL_Driver/Src/stm32f4xx_hal_tim_ex.c ****   if ((InputTrigger == TIM_TS_ITR0) || (InputTrigger == TIM_TS_ITR1) ||
 3191              		.loc 1 1476 6 is_stmt 1 discriminator 2
 3192 0022 BB68     		ldr	r3, [r7, #8]
 3193 0024 002B     		cmp	r3, #0
 3194 0026 08D0     		beq	.L150
ARM GAS  /tmp/ccilmNhL.s 			page 82


 3195              		.loc 1 1476 37 discriminator 1
 3196 0028 BB68     		ldr	r3, [r7, #8]
 3197 002a 102B     		cmp	r3, #16
 3198 002c 05D0     		beq	.L150
 3199              		.loc 1 1476 70 discriminator 2
 3200 002e BB68     		ldr	r3, [r7, #8]
 3201 0030 202B     		cmp	r3, #32
 3202 0032 02D0     		beq	.L150
1477:Drivers/STM32F4xx_HAL_Driver/Src/stm32f4xx_hal_tim_ex.c ****       (InputTrigger == TIM_TS_ITR2) || (InputTrigger == TIM_TS_ITR3))
 3203              		.loc 1 1477 37
 3204 0034 BB68     		ldr	r3, [r7, #8]
 3205 0036 302B     		cmp	r3, #48
 3206 0038 0FD1     		bne	.L151
 3207              	.L150:
1478:Drivers/STM32F4xx_HAL_Driver/Src/stm32f4xx_hal_tim_ex.c ****   {
1479:Drivers/STM32F4xx_HAL_Driver/Src/stm32f4xx_hal_tim_ex.c ****     /* Select the Input trigger */
1480:Drivers/STM32F4xx_HAL_Driver/Src/stm32f4xx_hal_tim_ex.c ****     htim->Instance->SMCR &= ~TIM_SMCR_TS;
 3208              		.loc 1 1480 9
 3209 003a FB68     		ldr	r3, [r7, #12]
 3210 003c 1B68     		ldr	r3, [r3]
 3211              		.loc 1 1480 26
 3212 003e 9A68     		ldr	r2, [r3, #8]
 3213              		.loc 1 1480 9
 3214 0040 FB68     		ldr	r3, [r7, #12]
 3215 0042 1B68     		ldr	r3, [r3]
 3216              		.loc 1 1480 26
 3217 0044 22F07002 		bic	r2, r2, #112
 3218 0048 9A60     		str	r2, [r3, #8]
1481:Drivers/STM32F4xx_HAL_Driver/Src/stm32f4xx_hal_tim_ex.c ****     htim->Instance->SMCR |= InputTrigger;
 3219              		.loc 1 1481 9
 3220 004a FB68     		ldr	r3, [r7, #12]
 3221 004c 1B68     		ldr	r3, [r3]
 3222              		.loc 1 1481 26
 3223 004e 9968     		ldr	r1, [r3, #8]
 3224              		.loc 1 1481 9
 3225 0050 FB68     		ldr	r3, [r7, #12]
 3226 0052 1B68     		ldr	r3, [r3]
 3227              		.loc 1 1481 26
 3228 0054 BA68     		ldr	r2, [r7, #8]
 3229 0056 0A43     		orrs	r2, r2, r1
 3230 0058 9A60     		str	r2, [r3, #8]
 3231              	.L151:
1482:Drivers/STM32F4xx_HAL_Driver/Src/stm32f4xx_hal_tim_ex.c ****   }
1483:Drivers/STM32F4xx_HAL_Driver/Src/stm32f4xx_hal_tim_ex.c **** 
1484:Drivers/STM32F4xx_HAL_Driver/Src/stm32f4xx_hal_tim_ex.c ****   /* Select the Capture Compare preload feature */
1485:Drivers/STM32F4xx_HAL_Driver/Src/stm32f4xx_hal_tim_ex.c ****   htim->Instance->CR2 |= TIM_CR2_CCPC;
 3232              		.loc 1 1485 7
 3233 005a FB68     		ldr	r3, [r7, #12]
 3234 005c 1B68     		ldr	r3, [r3]
 3235              		.loc 1 1485 23
 3236 005e 5A68     		ldr	r2, [r3, #4]
 3237              		.loc 1 1485 7
 3238 0060 FB68     		ldr	r3, [r7, #12]
 3239 0062 1B68     		ldr	r3, [r3]
 3240              		.loc 1 1485 23
 3241 0064 42F00102 		orr	r2, r2, #1
 3242 0068 5A60     		str	r2, [r3, #4]
ARM GAS  /tmp/ccilmNhL.s 			page 83


1486:Drivers/STM32F4xx_HAL_Driver/Src/stm32f4xx_hal_tim_ex.c ****   /* Select the Commutation event source */
1487:Drivers/STM32F4xx_HAL_Driver/Src/stm32f4xx_hal_tim_ex.c ****   htim->Instance->CR2 &= ~TIM_CR2_CCUS;
 3243              		.loc 1 1487 7
 3244 006a FB68     		ldr	r3, [r7, #12]
 3245 006c 1B68     		ldr	r3, [r3]
 3246              		.loc 1 1487 23
 3247 006e 5A68     		ldr	r2, [r3, #4]
 3248              		.loc 1 1487 7
 3249 0070 FB68     		ldr	r3, [r7, #12]
 3250 0072 1B68     		ldr	r3, [r3]
 3251              		.loc 1 1487 23
 3252 0074 22F00402 		bic	r2, r2, #4
 3253 0078 5A60     		str	r2, [r3, #4]
1488:Drivers/STM32F4xx_HAL_Driver/Src/stm32f4xx_hal_tim_ex.c ****   htim->Instance->CR2 |= CommutationSource;
 3254              		.loc 1 1488 7
 3255 007a FB68     		ldr	r3, [r7, #12]
 3256 007c 1B68     		ldr	r3, [r3]
 3257              		.loc 1 1488 23
 3258 007e 5968     		ldr	r1, [r3, #4]
 3259              		.loc 1 1488 7
 3260 0080 FB68     		ldr	r3, [r7, #12]
 3261 0082 1B68     		ldr	r3, [r3]
 3262              		.loc 1 1488 23
 3263 0084 7A68     		ldr	r2, [r7, #4]
 3264 0086 0A43     		orrs	r2, r2, r1
 3265 0088 5A60     		str	r2, [r3, #4]
1489:Drivers/STM32F4xx_HAL_Driver/Src/stm32f4xx_hal_tim_ex.c **** 
1490:Drivers/STM32F4xx_HAL_Driver/Src/stm32f4xx_hal_tim_ex.c ****   /* Disable Commutation Interrupt */
1491:Drivers/STM32F4xx_HAL_Driver/Src/stm32f4xx_hal_tim_ex.c ****   __HAL_TIM_DISABLE_IT(htim, TIM_IT_COM);
 3266              		.loc 1 1491 3
 3267 008a FB68     		ldr	r3, [r7, #12]
 3268 008c 1B68     		ldr	r3, [r3]
 3269 008e DA68     		ldr	r2, [r3, #12]
 3270 0090 FB68     		ldr	r3, [r7, #12]
 3271 0092 1B68     		ldr	r3, [r3]
 3272 0094 22F02002 		bic	r2, r2, #32
 3273 0098 DA60     		str	r2, [r3, #12]
1492:Drivers/STM32F4xx_HAL_Driver/Src/stm32f4xx_hal_tim_ex.c **** 
1493:Drivers/STM32F4xx_HAL_Driver/Src/stm32f4xx_hal_tim_ex.c ****   /* Disable Commutation DMA request */
1494:Drivers/STM32F4xx_HAL_Driver/Src/stm32f4xx_hal_tim_ex.c ****   __HAL_TIM_DISABLE_DMA(htim, TIM_DMA_COM);
 3274              		.loc 1 1494 3
 3275 009a FB68     		ldr	r3, [r7, #12]
 3276 009c 1B68     		ldr	r3, [r3]
 3277 009e DA68     		ldr	r2, [r3, #12]
 3278 00a0 FB68     		ldr	r3, [r7, #12]
 3279 00a2 1B68     		ldr	r3, [r3]
 3280 00a4 22F40052 		bic	r2, r2, #8192
 3281 00a8 DA60     		str	r2, [r3, #12]
1495:Drivers/STM32F4xx_HAL_Driver/Src/stm32f4xx_hal_tim_ex.c **** 
1496:Drivers/STM32F4xx_HAL_Driver/Src/stm32f4xx_hal_tim_ex.c ****   __HAL_UNLOCK(htim);
 3282              		.loc 1 1496 3
 3283 00aa FB68     		ldr	r3, [r7, #12]
 3284 00ac 0022     		movs	r2, #0
 3285 00ae 83F83C20 		strb	r2, [r3, #60]
1497:Drivers/STM32F4xx_HAL_Driver/Src/stm32f4xx_hal_tim_ex.c **** 
1498:Drivers/STM32F4xx_HAL_Driver/Src/stm32f4xx_hal_tim_ex.c ****   return HAL_OK;
 3286              		.loc 1 1498 10
ARM GAS  /tmp/ccilmNhL.s 			page 84


 3287 00b2 0023     		movs	r3, #0
 3288              	.L149:
1499:Drivers/STM32F4xx_HAL_Driver/Src/stm32f4xx_hal_tim_ex.c **** }
 3289              		.loc 1 1499 1
 3290 00b4 1846     		mov	r0, r3
 3291 00b6 1437     		adds	r7, r7, #20
 3292              	.LCFI135:
 3293              		.cfi_def_cfa_offset 4
 3294 00b8 BD46     		mov	sp, r7
 3295              	.LCFI136:
 3296              		.cfi_def_cfa_register 13
 3297              		@ sp needed
 3298 00ba 5DF8047B 		ldr	r7, [sp], #4
 3299              	.LCFI137:
 3300              		.cfi_restore 7
 3301              		.cfi_def_cfa_offset 0
 3302 00be 7047     		bx	lr
 3303              		.cfi_endproc
 3304              	.LFE156:
 3306              		.section	.text.HAL_TIMEx_ConfigCommutEvent_IT,"ax",%progbits
 3307              		.align	1
 3308              		.global	HAL_TIMEx_ConfigCommutEvent_IT
 3309              		.syntax unified
 3310              		.thumb
 3311              		.thumb_func
 3312              		.fpu fpv4-sp-d16
 3314              	HAL_TIMEx_ConfigCommutEvent_IT:
 3315              	.LFB157:
1500:Drivers/STM32F4xx_HAL_Driver/Src/stm32f4xx_hal_tim_ex.c **** 
1501:Drivers/STM32F4xx_HAL_Driver/Src/stm32f4xx_hal_tim_ex.c **** /**
1502:Drivers/STM32F4xx_HAL_Driver/Src/stm32f4xx_hal_tim_ex.c ****   * @brief  Configure the TIM commutation event sequence with interrupt.
1503:Drivers/STM32F4xx_HAL_Driver/Src/stm32f4xx_hal_tim_ex.c ****   * @note  This function is mandatory to use the commutation event in order to
1504:Drivers/STM32F4xx_HAL_Driver/Src/stm32f4xx_hal_tim_ex.c ****   *        update the configuration at each commutation detection on the TRGI input of the Timer,
1505:Drivers/STM32F4xx_HAL_Driver/Src/stm32f4xx_hal_tim_ex.c ****   *        the typical use of this feature is with the use of another Timer(interface Timer)
1506:Drivers/STM32F4xx_HAL_Driver/Src/stm32f4xx_hal_tim_ex.c ****   *        configured in Hall sensor interface, this interface Timer will generate the
1507:Drivers/STM32F4xx_HAL_Driver/Src/stm32f4xx_hal_tim_ex.c ****   *        commutation at its TRGO output (connected to Timer used in this function) each time
1508:Drivers/STM32F4xx_HAL_Driver/Src/stm32f4xx_hal_tim_ex.c ****   *        the TI1 of the Interface Timer detect a commutation at its input TI1.
1509:Drivers/STM32F4xx_HAL_Driver/Src/stm32f4xx_hal_tim_ex.c ****   * @param  htim TIM handle
1510:Drivers/STM32F4xx_HAL_Driver/Src/stm32f4xx_hal_tim_ex.c ****   * @param  InputTrigger the Internal trigger corresponding to the Timer Interfacing with the Hall 
1511:Drivers/STM32F4xx_HAL_Driver/Src/stm32f4xx_hal_tim_ex.c ****   *          This parameter can be one of the following values:
1512:Drivers/STM32F4xx_HAL_Driver/Src/stm32f4xx_hal_tim_ex.c ****   *            @arg TIM_TS_ITR0: Internal trigger 0 selected
1513:Drivers/STM32F4xx_HAL_Driver/Src/stm32f4xx_hal_tim_ex.c ****   *            @arg TIM_TS_ITR1: Internal trigger 1 selected
1514:Drivers/STM32F4xx_HAL_Driver/Src/stm32f4xx_hal_tim_ex.c ****   *            @arg TIM_TS_ITR2: Internal trigger 2 selected
1515:Drivers/STM32F4xx_HAL_Driver/Src/stm32f4xx_hal_tim_ex.c ****   *            @arg TIM_TS_ITR3: Internal trigger 3 selected
1516:Drivers/STM32F4xx_HAL_Driver/Src/stm32f4xx_hal_tim_ex.c ****   *            @arg TIM_TS_NONE: No trigger is needed
1517:Drivers/STM32F4xx_HAL_Driver/Src/stm32f4xx_hal_tim_ex.c ****   * @param  CommutationSource the Commutation Event source
1518:Drivers/STM32F4xx_HAL_Driver/Src/stm32f4xx_hal_tim_ex.c ****   *          This parameter can be one of the following values:
1519:Drivers/STM32F4xx_HAL_Driver/Src/stm32f4xx_hal_tim_ex.c ****   *            @arg TIM_COMMUTATION_TRGI: Commutation source is the TRGI of the Interface Timer
1520:Drivers/STM32F4xx_HAL_Driver/Src/stm32f4xx_hal_tim_ex.c ****   *            @arg TIM_COMMUTATION_SOFTWARE:  Commutation source is set by software using the COMG
1521:Drivers/STM32F4xx_HAL_Driver/Src/stm32f4xx_hal_tim_ex.c ****   * @retval HAL status
1522:Drivers/STM32F4xx_HAL_Driver/Src/stm32f4xx_hal_tim_ex.c ****   */
1523:Drivers/STM32F4xx_HAL_Driver/Src/stm32f4xx_hal_tim_ex.c **** HAL_StatusTypeDef HAL_TIMEx_ConfigCommutEvent_IT(TIM_HandleTypeDef *htim, uint32_t  InputTrigger,
1524:Drivers/STM32F4xx_HAL_Driver/Src/stm32f4xx_hal_tim_ex.c ****                                                  uint32_t  CommutationSource)
1525:Drivers/STM32F4xx_HAL_Driver/Src/stm32f4xx_hal_tim_ex.c **** {
 3316              		.loc 1 1525 1
 3317              		.cfi_startproc
 3318              		@ args = 0, pretend = 0, frame = 16
ARM GAS  /tmp/ccilmNhL.s 			page 85


 3319              		@ frame_needed = 1, uses_anonymous_args = 0
 3320              		@ link register save eliminated.
 3321 0000 80B4     		push	{r7}
 3322              	.LCFI138:
 3323              		.cfi_def_cfa_offset 4
 3324              		.cfi_offset 7, -4
 3325 0002 85B0     		sub	sp, sp, #20
 3326              	.LCFI139:
 3327              		.cfi_def_cfa_offset 24
 3328 0004 00AF     		add	r7, sp, #0
 3329              	.LCFI140:
 3330              		.cfi_def_cfa_register 7
 3331 0006 F860     		str	r0, [r7, #12]
 3332 0008 B960     		str	r1, [r7, #8]
 3333 000a 7A60     		str	r2, [r7, #4]
1526:Drivers/STM32F4xx_HAL_Driver/Src/stm32f4xx_hal_tim_ex.c ****   /* Check the parameters */
1527:Drivers/STM32F4xx_HAL_Driver/Src/stm32f4xx_hal_tim_ex.c ****   assert_param(IS_TIM_COMMUTATION_EVENT_INSTANCE(htim->Instance));
1528:Drivers/STM32F4xx_HAL_Driver/Src/stm32f4xx_hal_tim_ex.c ****   assert_param(IS_TIM_INTERNAL_TRIGGEREVENT_SELECTION(InputTrigger));
1529:Drivers/STM32F4xx_HAL_Driver/Src/stm32f4xx_hal_tim_ex.c **** 
1530:Drivers/STM32F4xx_HAL_Driver/Src/stm32f4xx_hal_tim_ex.c ****   __HAL_LOCK(htim);
 3334              		.loc 1 1530 3
 3335 000c FB68     		ldr	r3, [r7, #12]
 3336 000e 93F83C30 		ldrb	r3, [r3, #60]	@ zero_extendqisi2
 3337 0012 012B     		cmp	r3, #1
 3338 0014 01D1     		bne	.L153
 3339              		.loc 1 1530 3 is_stmt 0 discriminator 1
 3340 0016 0223     		movs	r3, #2
 3341 0018 4CE0     		b	.L154
 3342              	.L153:
 3343              		.loc 1 1530 3 discriminator 2
 3344 001a FB68     		ldr	r3, [r7, #12]
 3345 001c 0122     		movs	r2, #1
 3346 001e 83F83C20 		strb	r2, [r3, #60]
1531:Drivers/STM32F4xx_HAL_Driver/Src/stm32f4xx_hal_tim_ex.c **** 
1532:Drivers/STM32F4xx_HAL_Driver/Src/stm32f4xx_hal_tim_ex.c ****   if ((InputTrigger == TIM_TS_ITR0) || (InputTrigger == TIM_TS_ITR1) ||
 3347              		.loc 1 1532 6 is_stmt 1 discriminator 2
 3348 0022 BB68     		ldr	r3, [r7, #8]
 3349 0024 002B     		cmp	r3, #0
 3350 0026 08D0     		beq	.L155
 3351              		.loc 1 1532 37 discriminator 1
 3352 0028 BB68     		ldr	r3, [r7, #8]
 3353 002a 102B     		cmp	r3, #16
 3354 002c 05D0     		beq	.L155
 3355              		.loc 1 1532 70 discriminator 2
 3356 002e BB68     		ldr	r3, [r7, #8]
 3357 0030 202B     		cmp	r3, #32
 3358 0032 02D0     		beq	.L155
1533:Drivers/STM32F4xx_HAL_Driver/Src/stm32f4xx_hal_tim_ex.c ****       (InputTrigger == TIM_TS_ITR2) || (InputTrigger == TIM_TS_ITR3))
 3359              		.loc 1 1533 37
 3360 0034 BB68     		ldr	r3, [r7, #8]
 3361 0036 302B     		cmp	r3, #48
 3362 0038 0FD1     		bne	.L156
 3363              	.L155:
1534:Drivers/STM32F4xx_HAL_Driver/Src/stm32f4xx_hal_tim_ex.c ****   {
1535:Drivers/STM32F4xx_HAL_Driver/Src/stm32f4xx_hal_tim_ex.c ****     /* Select the Input trigger */
1536:Drivers/STM32F4xx_HAL_Driver/Src/stm32f4xx_hal_tim_ex.c ****     htim->Instance->SMCR &= ~TIM_SMCR_TS;
 3364              		.loc 1 1536 9
ARM GAS  /tmp/ccilmNhL.s 			page 86


 3365 003a FB68     		ldr	r3, [r7, #12]
 3366 003c 1B68     		ldr	r3, [r3]
 3367              		.loc 1 1536 26
 3368 003e 9A68     		ldr	r2, [r3, #8]
 3369              		.loc 1 1536 9
 3370 0040 FB68     		ldr	r3, [r7, #12]
 3371 0042 1B68     		ldr	r3, [r3]
 3372              		.loc 1 1536 26
 3373 0044 22F07002 		bic	r2, r2, #112
 3374 0048 9A60     		str	r2, [r3, #8]
1537:Drivers/STM32F4xx_HAL_Driver/Src/stm32f4xx_hal_tim_ex.c ****     htim->Instance->SMCR |= InputTrigger;
 3375              		.loc 1 1537 9
 3376 004a FB68     		ldr	r3, [r7, #12]
 3377 004c 1B68     		ldr	r3, [r3]
 3378              		.loc 1 1537 26
 3379 004e 9968     		ldr	r1, [r3, #8]
 3380              		.loc 1 1537 9
 3381 0050 FB68     		ldr	r3, [r7, #12]
 3382 0052 1B68     		ldr	r3, [r3]
 3383              		.loc 1 1537 26
 3384 0054 BA68     		ldr	r2, [r7, #8]
 3385 0056 0A43     		orrs	r2, r2, r1
 3386 0058 9A60     		str	r2, [r3, #8]
 3387              	.L156:
1538:Drivers/STM32F4xx_HAL_Driver/Src/stm32f4xx_hal_tim_ex.c ****   }
1539:Drivers/STM32F4xx_HAL_Driver/Src/stm32f4xx_hal_tim_ex.c **** 
1540:Drivers/STM32F4xx_HAL_Driver/Src/stm32f4xx_hal_tim_ex.c ****   /* Select the Capture Compare preload feature */
1541:Drivers/STM32F4xx_HAL_Driver/Src/stm32f4xx_hal_tim_ex.c ****   htim->Instance->CR2 |= TIM_CR2_CCPC;
 3388              		.loc 1 1541 7
 3389 005a FB68     		ldr	r3, [r7, #12]
 3390 005c 1B68     		ldr	r3, [r3]
 3391              		.loc 1 1541 23
 3392 005e 5A68     		ldr	r2, [r3, #4]
 3393              		.loc 1 1541 7
 3394 0060 FB68     		ldr	r3, [r7, #12]
 3395 0062 1B68     		ldr	r3, [r3]
 3396              		.loc 1 1541 23
 3397 0064 42F00102 		orr	r2, r2, #1
 3398 0068 5A60     		str	r2, [r3, #4]
1542:Drivers/STM32F4xx_HAL_Driver/Src/stm32f4xx_hal_tim_ex.c ****   /* Select the Commutation event source */
1543:Drivers/STM32F4xx_HAL_Driver/Src/stm32f4xx_hal_tim_ex.c ****   htim->Instance->CR2 &= ~TIM_CR2_CCUS;
 3399              		.loc 1 1543 7
 3400 006a FB68     		ldr	r3, [r7, #12]
 3401 006c 1B68     		ldr	r3, [r3]
 3402              		.loc 1 1543 23
 3403 006e 5A68     		ldr	r2, [r3, #4]
 3404              		.loc 1 1543 7
 3405 0070 FB68     		ldr	r3, [r7, #12]
 3406 0072 1B68     		ldr	r3, [r3]
 3407              		.loc 1 1543 23
 3408 0074 22F00402 		bic	r2, r2, #4
 3409 0078 5A60     		str	r2, [r3, #4]
1544:Drivers/STM32F4xx_HAL_Driver/Src/stm32f4xx_hal_tim_ex.c ****   htim->Instance->CR2 |= CommutationSource;
 3410              		.loc 1 1544 7
 3411 007a FB68     		ldr	r3, [r7, #12]
 3412 007c 1B68     		ldr	r3, [r3]
 3413              		.loc 1 1544 23
ARM GAS  /tmp/ccilmNhL.s 			page 87


 3414 007e 5968     		ldr	r1, [r3, #4]
 3415              		.loc 1 1544 7
 3416 0080 FB68     		ldr	r3, [r7, #12]
 3417 0082 1B68     		ldr	r3, [r3]
 3418              		.loc 1 1544 23
 3419 0084 7A68     		ldr	r2, [r7, #4]
 3420 0086 0A43     		orrs	r2, r2, r1
 3421 0088 5A60     		str	r2, [r3, #4]
1545:Drivers/STM32F4xx_HAL_Driver/Src/stm32f4xx_hal_tim_ex.c **** 
1546:Drivers/STM32F4xx_HAL_Driver/Src/stm32f4xx_hal_tim_ex.c ****   /* Disable Commutation DMA request */
1547:Drivers/STM32F4xx_HAL_Driver/Src/stm32f4xx_hal_tim_ex.c ****   __HAL_TIM_DISABLE_DMA(htim, TIM_DMA_COM);
 3422              		.loc 1 1547 3
 3423 008a FB68     		ldr	r3, [r7, #12]
 3424 008c 1B68     		ldr	r3, [r3]
 3425 008e DA68     		ldr	r2, [r3, #12]
 3426 0090 FB68     		ldr	r3, [r7, #12]
 3427 0092 1B68     		ldr	r3, [r3]
 3428 0094 22F40052 		bic	r2, r2, #8192
 3429 0098 DA60     		str	r2, [r3, #12]
1548:Drivers/STM32F4xx_HAL_Driver/Src/stm32f4xx_hal_tim_ex.c **** 
1549:Drivers/STM32F4xx_HAL_Driver/Src/stm32f4xx_hal_tim_ex.c ****   /* Enable the Commutation Interrupt */
1550:Drivers/STM32F4xx_HAL_Driver/Src/stm32f4xx_hal_tim_ex.c ****   __HAL_TIM_ENABLE_IT(htim, TIM_IT_COM);
 3430              		.loc 1 1550 3
 3431 009a FB68     		ldr	r3, [r7, #12]
 3432 009c 1B68     		ldr	r3, [r3]
 3433 009e DA68     		ldr	r2, [r3, #12]
 3434 00a0 FB68     		ldr	r3, [r7, #12]
 3435 00a2 1B68     		ldr	r3, [r3]
 3436 00a4 42F02002 		orr	r2, r2, #32
 3437 00a8 DA60     		str	r2, [r3, #12]
1551:Drivers/STM32F4xx_HAL_Driver/Src/stm32f4xx_hal_tim_ex.c **** 
1552:Drivers/STM32F4xx_HAL_Driver/Src/stm32f4xx_hal_tim_ex.c ****   __HAL_UNLOCK(htim);
 3438              		.loc 1 1552 3
 3439 00aa FB68     		ldr	r3, [r7, #12]
 3440 00ac 0022     		movs	r2, #0
 3441 00ae 83F83C20 		strb	r2, [r3, #60]
1553:Drivers/STM32F4xx_HAL_Driver/Src/stm32f4xx_hal_tim_ex.c **** 
1554:Drivers/STM32F4xx_HAL_Driver/Src/stm32f4xx_hal_tim_ex.c ****   return HAL_OK;
 3442              		.loc 1 1554 10
 3443 00b2 0023     		movs	r3, #0
 3444              	.L154:
1555:Drivers/STM32F4xx_HAL_Driver/Src/stm32f4xx_hal_tim_ex.c **** }
 3445              		.loc 1 1555 1
 3446 00b4 1846     		mov	r0, r3
 3447 00b6 1437     		adds	r7, r7, #20
 3448              	.LCFI141:
 3449              		.cfi_def_cfa_offset 4
 3450 00b8 BD46     		mov	sp, r7
 3451              	.LCFI142:
 3452              		.cfi_def_cfa_register 13
 3453              		@ sp needed
 3454 00ba 5DF8047B 		ldr	r7, [sp], #4
 3455              	.LCFI143:
 3456              		.cfi_restore 7
 3457              		.cfi_def_cfa_offset 0
 3458 00be 7047     		bx	lr
 3459              		.cfi_endproc
ARM GAS  /tmp/ccilmNhL.s 			page 88


 3460              	.LFE157:
 3462              		.section	.text.HAL_TIMEx_ConfigCommutEvent_DMA,"ax",%progbits
 3463              		.align	1
 3464              		.global	HAL_TIMEx_ConfigCommutEvent_DMA
 3465              		.syntax unified
 3466              		.thumb
 3467              		.thumb_func
 3468              		.fpu fpv4-sp-d16
 3470              	HAL_TIMEx_ConfigCommutEvent_DMA:
 3471              	.LFB158:
1556:Drivers/STM32F4xx_HAL_Driver/Src/stm32f4xx_hal_tim_ex.c **** 
1557:Drivers/STM32F4xx_HAL_Driver/Src/stm32f4xx_hal_tim_ex.c **** /**
1558:Drivers/STM32F4xx_HAL_Driver/Src/stm32f4xx_hal_tim_ex.c ****   * @brief  Configure the TIM commutation event sequence with DMA.
1559:Drivers/STM32F4xx_HAL_Driver/Src/stm32f4xx_hal_tim_ex.c ****   * @note  This function is mandatory to use the commutation event in order to
1560:Drivers/STM32F4xx_HAL_Driver/Src/stm32f4xx_hal_tim_ex.c ****   *        update the configuration at each commutation detection on the TRGI input of the Timer,
1561:Drivers/STM32F4xx_HAL_Driver/Src/stm32f4xx_hal_tim_ex.c ****   *        the typical use of this feature is with the use of another Timer(interface Timer)
1562:Drivers/STM32F4xx_HAL_Driver/Src/stm32f4xx_hal_tim_ex.c ****   *        configured in Hall sensor interface, this interface Timer will generate the
1563:Drivers/STM32F4xx_HAL_Driver/Src/stm32f4xx_hal_tim_ex.c ****   *        commutation at its TRGO output (connected to Timer used in this function) each time
1564:Drivers/STM32F4xx_HAL_Driver/Src/stm32f4xx_hal_tim_ex.c ****   *        the TI1 of the Interface Timer detect a commutation at its input TI1.
1565:Drivers/STM32F4xx_HAL_Driver/Src/stm32f4xx_hal_tim_ex.c ****   * @note  The user should configure the DMA in his own software, in This function only the COMDE b
1566:Drivers/STM32F4xx_HAL_Driver/Src/stm32f4xx_hal_tim_ex.c ****   * @param  htim TIM handle
1567:Drivers/STM32F4xx_HAL_Driver/Src/stm32f4xx_hal_tim_ex.c ****   * @param  InputTrigger the Internal trigger corresponding to the Timer Interfacing with the Hall 
1568:Drivers/STM32F4xx_HAL_Driver/Src/stm32f4xx_hal_tim_ex.c ****   *          This parameter can be one of the following values:
1569:Drivers/STM32F4xx_HAL_Driver/Src/stm32f4xx_hal_tim_ex.c ****   *            @arg TIM_TS_ITR0: Internal trigger 0 selected
1570:Drivers/STM32F4xx_HAL_Driver/Src/stm32f4xx_hal_tim_ex.c ****   *            @arg TIM_TS_ITR1: Internal trigger 1 selected
1571:Drivers/STM32F4xx_HAL_Driver/Src/stm32f4xx_hal_tim_ex.c ****   *            @arg TIM_TS_ITR2: Internal trigger 2 selected
1572:Drivers/STM32F4xx_HAL_Driver/Src/stm32f4xx_hal_tim_ex.c ****   *            @arg TIM_TS_ITR3: Internal trigger 3 selected
1573:Drivers/STM32F4xx_HAL_Driver/Src/stm32f4xx_hal_tim_ex.c ****   *            @arg TIM_TS_NONE: No trigger is needed
1574:Drivers/STM32F4xx_HAL_Driver/Src/stm32f4xx_hal_tim_ex.c ****   * @param  CommutationSource the Commutation Event source
1575:Drivers/STM32F4xx_HAL_Driver/Src/stm32f4xx_hal_tim_ex.c ****   *          This parameter can be one of the following values:
1576:Drivers/STM32F4xx_HAL_Driver/Src/stm32f4xx_hal_tim_ex.c ****   *            @arg TIM_COMMUTATION_TRGI: Commutation source is the TRGI of the Interface Timer
1577:Drivers/STM32F4xx_HAL_Driver/Src/stm32f4xx_hal_tim_ex.c ****   *            @arg TIM_COMMUTATION_SOFTWARE:  Commutation source is set by software using the COMG
1578:Drivers/STM32F4xx_HAL_Driver/Src/stm32f4xx_hal_tim_ex.c ****   * @retval HAL status
1579:Drivers/STM32F4xx_HAL_Driver/Src/stm32f4xx_hal_tim_ex.c ****   */
1580:Drivers/STM32F4xx_HAL_Driver/Src/stm32f4xx_hal_tim_ex.c **** HAL_StatusTypeDef HAL_TIMEx_ConfigCommutEvent_DMA(TIM_HandleTypeDef *htim, uint32_t  InputTrigger,
1581:Drivers/STM32F4xx_HAL_Driver/Src/stm32f4xx_hal_tim_ex.c ****                                                   uint32_t  CommutationSource)
1582:Drivers/STM32F4xx_HAL_Driver/Src/stm32f4xx_hal_tim_ex.c **** {
 3472              		.loc 1 1582 1
 3473              		.cfi_startproc
 3474              		@ args = 0, pretend = 0, frame = 16
 3475              		@ frame_needed = 1, uses_anonymous_args = 0
 3476              		@ link register save eliminated.
 3477 0000 80B4     		push	{r7}
 3478              	.LCFI144:
 3479              		.cfi_def_cfa_offset 4
 3480              		.cfi_offset 7, -4
 3481 0002 85B0     		sub	sp, sp, #20
 3482              	.LCFI145:
 3483              		.cfi_def_cfa_offset 24
 3484 0004 00AF     		add	r7, sp, #0
 3485              	.LCFI146:
 3486              		.cfi_def_cfa_register 7
 3487 0006 F860     		str	r0, [r7, #12]
 3488 0008 B960     		str	r1, [r7, #8]
 3489 000a 7A60     		str	r2, [r7, #4]
1583:Drivers/STM32F4xx_HAL_Driver/Src/stm32f4xx_hal_tim_ex.c ****   /* Check the parameters */
1584:Drivers/STM32F4xx_HAL_Driver/Src/stm32f4xx_hal_tim_ex.c ****   assert_param(IS_TIM_COMMUTATION_EVENT_INSTANCE(htim->Instance));
ARM GAS  /tmp/ccilmNhL.s 			page 89


1585:Drivers/STM32F4xx_HAL_Driver/Src/stm32f4xx_hal_tim_ex.c ****   assert_param(IS_TIM_INTERNAL_TRIGGEREVENT_SELECTION(InputTrigger));
1586:Drivers/STM32F4xx_HAL_Driver/Src/stm32f4xx_hal_tim_ex.c **** 
1587:Drivers/STM32F4xx_HAL_Driver/Src/stm32f4xx_hal_tim_ex.c ****   __HAL_LOCK(htim);
 3490              		.loc 1 1587 3
 3491 000c FB68     		ldr	r3, [r7, #12]
 3492 000e 93F83C30 		ldrb	r3, [r3, #60]	@ zero_extendqisi2
 3493 0012 012B     		cmp	r3, #1
 3494 0014 01D1     		bne	.L158
 3495              		.loc 1 1587 3 is_stmt 0 discriminator 1
 3496 0016 0223     		movs	r3, #2
 3497 0018 58E0     		b	.L159
 3498              	.L158:
 3499              		.loc 1 1587 3 discriminator 2
 3500 001a FB68     		ldr	r3, [r7, #12]
 3501 001c 0122     		movs	r2, #1
 3502 001e 83F83C20 		strb	r2, [r3, #60]
1588:Drivers/STM32F4xx_HAL_Driver/Src/stm32f4xx_hal_tim_ex.c **** 
1589:Drivers/STM32F4xx_HAL_Driver/Src/stm32f4xx_hal_tim_ex.c ****   if ((InputTrigger == TIM_TS_ITR0) || (InputTrigger == TIM_TS_ITR1) ||
 3503              		.loc 1 1589 6 is_stmt 1 discriminator 2
 3504 0022 BB68     		ldr	r3, [r7, #8]
 3505 0024 002B     		cmp	r3, #0
 3506 0026 08D0     		beq	.L160
 3507              		.loc 1 1589 37 discriminator 1
 3508 0028 BB68     		ldr	r3, [r7, #8]
 3509 002a 102B     		cmp	r3, #16
 3510 002c 05D0     		beq	.L160
 3511              		.loc 1 1589 70 discriminator 2
 3512 002e BB68     		ldr	r3, [r7, #8]
 3513 0030 202B     		cmp	r3, #32
 3514 0032 02D0     		beq	.L160
1590:Drivers/STM32F4xx_HAL_Driver/Src/stm32f4xx_hal_tim_ex.c ****       (InputTrigger == TIM_TS_ITR2) || (InputTrigger == TIM_TS_ITR3))
 3515              		.loc 1 1590 37
 3516 0034 BB68     		ldr	r3, [r7, #8]
 3517 0036 302B     		cmp	r3, #48
 3518 0038 0FD1     		bne	.L161
 3519              	.L160:
1591:Drivers/STM32F4xx_HAL_Driver/Src/stm32f4xx_hal_tim_ex.c ****   {
1592:Drivers/STM32F4xx_HAL_Driver/Src/stm32f4xx_hal_tim_ex.c ****     /* Select the Input trigger */
1593:Drivers/STM32F4xx_HAL_Driver/Src/stm32f4xx_hal_tim_ex.c ****     htim->Instance->SMCR &= ~TIM_SMCR_TS;
 3520              		.loc 1 1593 9
 3521 003a FB68     		ldr	r3, [r7, #12]
 3522 003c 1B68     		ldr	r3, [r3]
 3523              		.loc 1 1593 26
 3524 003e 9A68     		ldr	r2, [r3, #8]
 3525              		.loc 1 1593 9
 3526 0040 FB68     		ldr	r3, [r7, #12]
 3527 0042 1B68     		ldr	r3, [r3]
 3528              		.loc 1 1593 26
 3529 0044 22F07002 		bic	r2, r2, #112
 3530 0048 9A60     		str	r2, [r3, #8]
1594:Drivers/STM32F4xx_HAL_Driver/Src/stm32f4xx_hal_tim_ex.c ****     htim->Instance->SMCR |= InputTrigger;
 3531              		.loc 1 1594 9
 3532 004a FB68     		ldr	r3, [r7, #12]
 3533 004c 1B68     		ldr	r3, [r3]
 3534              		.loc 1 1594 26
 3535 004e 9968     		ldr	r1, [r3, #8]
 3536              		.loc 1 1594 9
ARM GAS  /tmp/ccilmNhL.s 			page 90


 3537 0050 FB68     		ldr	r3, [r7, #12]
 3538 0052 1B68     		ldr	r3, [r3]
 3539              		.loc 1 1594 26
 3540 0054 BA68     		ldr	r2, [r7, #8]
 3541 0056 0A43     		orrs	r2, r2, r1
 3542 0058 9A60     		str	r2, [r3, #8]
 3543              	.L161:
1595:Drivers/STM32F4xx_HAL_Driver/Src/stm32f4xx_hal_tim_ex.c ****   }
1596:Drivers/STM32F4xx_HAL_Driver/Src/stm32f4xx_hal_tim_ex.c **** 
1597:Drivers/STM32F4xx_HAL_Driver/Src/stm32f4xx_hal_tim_ex.c ****   /* Select the Capture Compare preload feature */
1598:Drivers/STM32F4xx_HAL_Driver/Src/stm32f4xx_hal_tim_ex.c ****   htim->Instance->CR2 |= TIM_CR2_CCPC;
 3544              		.loc 1 1598 7
 3545 005a FB68     		ldr	r3, [r7, #12]
 3546 005c 1B68     		ldr	r3, [r3]
 3547              		.loc 1 1598 23
 3548 005e 5A68     		ldr	r2, [r3, #4]
 3549              		.loc 1 1598 7
 3550 0060 FB68     		ldr	r3, [r7, #12]
 3551 0062 1B68     		ldr	r3, [r3]
 3552              		.loc 1 1598 23
 3553 0064 42F00102 		orr	r2, r2, #1
 3554 0068 5A60     		str	r2, [r3, #4]
1599:Drivers/STM32F4xx_HAL_Driver/Src/stm32f4xx_hal_tim_ex.c ****   /* Select the Commutation event source */
1600:Drivers/STM32F4xx_HAL_Driver/Src/stm32f4xx_hal_tim_ex.c ****   htim->Instance->CR2 &= ~TIM_CR2_CCUS;
 3555              		.loc 1 1600 7
 3556 006a FB68     		ldr	r3, [r7, #12]
 3557 006c 1B68     		ldr	r3, [r3]
 3558              		.loc 1 1600 23
 3559 006e 5A68     		ldr	r2, [r3, #4]
 3560              		.loc 1 1600 7
 3561 0070 FB68     		ldr	r3, [r7, #12]
 3562 0072 1B68     		ldr	r3, [r3]
 3563              		.loc 1 1600 23
 3564 0074 22F00402 		bic	r2, r2, #4
 3565 0078 5A60     		str	r2, [r3, #4]
1601:Drivers/STM32F4xx_HAL_Driver/Src/stm32f4xx_hal_tim_ex.c ****   htim->Instance->CR2 |= CommutationSource;
 3566              		.loc 1 1601 7
 3567 007a FB68     		ldr	r3, [r7, #12]
 3568 007c 1B68     		ldr	r3, [r3]
 3569              		.loc 1 1601 23
 3570 007e 5968     		ldr	r1, [r3, #4]
 3571              		.loc 1 1601 7
 3572 0080 FB68     		ldr	r3, [r7, #12]
 3573 0082 1B68     		ldr	r3, [r3]
 3574              		.loc 1 1601 23
 3575 0084 7A68     		ldr	r2, [r7, #4]
 3576 0086 0A43     		orrs	r2, r2, r1
 3577 0088 5A60     		str	r2, [r3, #4]
1602:Drivers/STM32F4xx_HAL_Driver/Src/stm32f4xx_hal_tim_ex.c **** 
1603:Drivers/STM32F4xx_HAL_Driver/Src/stm32f4xx_hal_tim_ex.c ****   /* Enable the Commutation DMA Request */
1604:Drivers/STM32F4xx_HAL_Driver/Src/stm32f4xx_hal_tim_ex.c ****   /* Set the DMA Commutation Callback */
1605:Drivers/STM32F4xx_HAL_Driver/Src/stm32f4xx_hal_tim_ex.c ****   htim->hdma[TIM_DMA_ID_COMMUTATION]->XferCpltCallback = TIMEx_DMACommutationCplt;
 3578              		.loc 1 1605 13
 3579 008a FB68     		ldr	r3, [r7, #12]
 3580 008c 5B6B     		ldr	r3, [r3, #52]
 3581              		.loc 1 1605 56
 3582 008e 124A     		ldr	r2, .L162
ARM GAS  /tmp/ccilmNhL.s 			page 91


 3583 0090 DA63     		str	r2, [r3, #60]
1606:Drivers/STM32F4xx_HAL_Driver/Src/stm32f4xx_hal_tim_ex.c ****   htim->hdma[TIM_DMA_ID_COMMUTATION]->XferHalfCpltCallback = TIMEx_DMACommutationHalfCplt;
 3584              		.loc 1 1606 13
 3585 0092 FB68     		ldr	r3, [r7, #12]
 3586 0094 5B6B     		ldr	r3, [r3, #52]
 3587              		.loc 1 1606 60
 3588 0096 114A     		ldr	r2, .L162+4
 3589 0098 1A64     		str	r2, [r3, #64]
1607:Drivers/STM32F4xx_HAL_Driver/Src/stm32f4xx_hal_tim_ex.c ****   /* Set the DMA error callback */
1608:Drivers/STM32F4xx_HAL_Driver/Src/stm32f4xx_hal_tim_ex.c ****   htim->hdma[TIM_DMA_ID_COMMUTATION]->XferErrorCallback = TIM_DMAError;
 3590              		.loc 1 1608 13
 3591 009a FB68     		ldr	r3, [r7, #12]
 3592 009c 5B6B     		ldr	r3, [r3, #52]
 3593              		.loc 1 1608 57
 3594 009e 104A     		ldr	r2, .L162+8
 3595 00a0 DA64     		str	r2, [r3, #76]
1609:Drivers/STM32F4xx_HAL_Driver/Src/stm32f4xx_hal_tim_ex.c **** 
1610:Drivers/STM32F4xx_HAL_Driver/Src/stm32f4xx_hal_tim_ex.c ****   /* Disable Commutation Interrupt */
1611:Drivers/STM32F4xx_HAL_Driver/Src/stm32f4xx_hal_tim_ex.c ****   __HAL_TIM_DISABLE_IT(htim, TIM_IT_COM);
 3596              		.loc 1 1611 3
 3597 00a2 FB68     		ldr	r3, [r7, #12]
 3598 00a4 1B68     		ldr	r3, [r3]
 3599 00a6 DA68     		ldr	r2, [r3, #12]
 3600 00a8 FB68     		ldr	r3, [r7, #12]
 3601 00aa 1B68     		ldr	r3, [r3]
 3602 00ac 22F02002 		bic	r2, r2, #32
 3603 00b0 DA60     		str	r2, [r3, #12]
1612:Drivers/STM32F4xx_HAL_Driver/Src/stm32f4xx_hal_tim_ex.c **** 
1613:Drivers/STM32F4xx_HAL_Driver/Src/stm32f4xx_hal_tim_ex.c ****   /* Enable the Commutation DMA Request */
1614:Drivers/STM32F4xx_HAL_Driver/Src/stm32f4xx_hal_tim_ex.c ****   __HAL_TIM_ENABLE_DMA(htim, TIM_DMA_COM);
 3604              		.loc 1 1614 3
 3605 00b2 FB68     		ldr	r3, [r7, #12]
 3606 00b4 1B68     		ldr	r3, [r3]
 3607 00b6 DA68     		ldr	r2, [r3, #12]
 3608 00b8 FB68     		ldr	r3, [r7, #12]
 3609 00ba 1B68     		ldr	r3, [r3]
 3610 00bc 42F40052 		orr	r2, r2, #8192
 3611 00c0 DA60     		str	r2, [r3, #12]
1615:Drivers/STM32F4xx_HAL_Driver/Src/stm32f4xx_hal_tim_ex.c **** 
1616:Drivers/STM32F4xx_HAL_Driver/Src/stm32f4xx_hal_tim_ex.c ****   __HAL_UNLOCK(htim);
 3612              		.loc 1 1616 3
 3613 00c2 FB68     		ldr	r3, [r7, #12]
 3614 00c4 0022     		movs	r2, #0
 3615 00c6 83F83C20 		strb	r2, [r3, #60]
1617:Drivers/STM32F4xx_HAL_Driver/Src/stm32f4xx_hal_tim_ex.c **** 
1618:Drivers/STM32F4xx_HAL_Driver/Src/stm32f4xx_hal_tim_ex.c ****   return HAL_OK;
 3616              		.loc 1 1618 10
 3617 00ca 0023     		movs	r3, #0
 3618              	.L159:
1619:Drivers/STM32F4xx_HAL_Driver/Src/stm32f4xx_hal_tim_ex.c **** }
 3619              		.loc 1 1619 1
 3620 00cc 1846     		mov	r0, r3
 3621 00ce 1437     		adds	r7, r7, #20
 3622              	.LCFI147:
 3623              		.cfi_def_cfa_offset 4
 3624 00d0 BD46     		mov	sp, r7
 3625              	.LCFI148:
ARM GAS  /tmp/ccilmNhL.s 			page 92


 3626              		.cfi_def_cfa_register 13
 3627              		@ sp needed
 3628 00d2 5DF8047B 		ldr	r7, [sp], #4
 3629              	.LCFI149:
 3630              		.cfi_restore 7
 3631              		.cfi_def_cfa_offset 0
 3632 00d6 7047     		bx	lr
 3633              	.L163:
 3634              		.align	2
 3635              	.L162:
 3636 00d8 00000000 		.word	TIMEx_DMACommutationCplt
 3637 00dc 00000000 		.word	TIMEx_DMACommutationHalfCplt
 3638 00e0 00000000 		.word	TIM_DMAError
 3639              		.cfi_endproc
 3640              	.LFE158:
 3642              		.section	.text.HAL_TIMEx_MasterConfigSynchronization,"ax",%progbits
 3643              		.align	1
 3644              		.global	HAL_TIMEx_MasterConfigSynchronization
 3645              		.syntax unified
 3646              		.thumb
 3647              		.thumb_func
 3648              		.fpu fpv4-sp-d16
 3650              	HAL_TIMEx_MasterConfigSynchronization:
 3651              	.LFB159:
1620:Drivers/STM32F4xx_HAL_Driver/Src/stm32f4xx_hal_tim_ex.c **** 
1621:Drivers/STM32F4xx_HAL_Driver/Src/stm32f4xx_hal_tim_ex.c **** /**
1622:Drivers/STM32F4xx_HAL_Driver/Src/stm32f4xx_hal_tim_ex.c ****   * @brief  Configures the TIM in master mode.
1623:Drivers/STM32F4xx_HAL_Driver/Src/stm32f4xx_hal_tim_ex.c ****   * @param  htim TIM handle.
1624:Drivers/STM32F4xx_HAL_Driver/Src/stm32f4xx_hal_tim_ex.c ****   * @param  sMasterConfig pointer to a TIM_MasterConfigTypeDef structure that
1625:Drivers/STM32F4xx_HAL_Driver/Src/stm32f4xx_hal_tim_ex.c ****   *         contains the selected trigger output (TRGO) and the Master/Slave
1626:Drivers/STM32F4xx_HAL_Driver/Src/stm32f4xx_hal_tim_ex.c ****   *         mode.
1627:Drivers/STM32F4xx_HAL_Driver/Src/stm32f4xx_hal_tim_ex.c ****   * @retval HAL status
1628:Drivers/STM32F4xx_HAL_Driver/Src/stm32f4xx_hal_tim_ex.c ****   */
1629:Drivers/STM32F4xx_HAL_Driver/Src/stm32f4xx_hal_tim_ex.c **** HAL_StatusTypeDef HAL_TIMEx_MasterConfigSynchronization(TIM_HandleTypeDef *htim,
1630:Drivers/STM32F4xx_HAL_Driver/Src/stm32f4xx_hal_tim_ex.c ****                                                         TIM_MasterConfigTypeDef *sMasterConfig)
1631:Drivers/STM32F4xx_HAL_Driver/Src/stm32f4xx_hal_tim_ex.c **** {
 3652              		.loc 1 1631 1
 3653              		.cfi_startproc
 3654              		@ args = 0, pretend = 0, frame = 16
 3655              		@ frame_needed = 1, uses_anonymous_args = 0
 3656              		@ link register save eliminated.
 3657 0000 80B4     		push	{r7}
 3658              	.LCFI150:
 3659              		.cfi_def_cfa_offset 4
 3660              		.cfi_offset 7, -4
 3661 0002 85B0     		sub	sp, sp, #20
 3662              	.LCFI151:
 3663              		.cfi_def_cfa_offset 24
 3664 0004 00AF     		add	r7, sp, #0
 3665              	.LCFI152:
 3666              		.cfi_def_cfa_register 7
 3667 0006 7860     		str	r0, [r7, #4]
 3668 0008 3960     		str	r1, [r7]
1632:Drivers/STM32F4xx_HAL_Driver/Src/stm32f4xx_hal_tim_ex.c ****   uint32_t tmpcr2;
1633:Drivers/STM32F4xx_HAL_Driver/Src/stm32f4xx_hal_tim_ex.c ****   uint32_t tmpsmcr;
1634:Drivers/STM32F4xx_HAL_Driver/Src/stm32f4xx_hal_tim_ex.c **** 
1635:Drivers/STM32F4xx_HAL_Driver/Src/stm32f4xx_hal_tim_ex.c ****   /* Check the parameters */
ARM GAS  /tmp/ccilmNhL.s 			page 93


1636:Drivers/STM32F4xx_HAL_Driver/Src/stm32f4xx_hal_tim_ex.c ****   assert_param(IS_TIM_MASTER_INSTANCE(htim->Instance));
1637:Drivers/STM32F4xx_HAL_Driver/Src/stm32f4xx_hal_tim_ex.c ****   assert_param(IS_TIM_TRGO_SOURCE(sMasterConfig->MasterOutputTrigger));
1638:Drivers/STM32F4xx_HAL_Driver/Src/stm32f4xx_hal_tim_ex.c ****   assert_param(IS_TIM_MSM_STATE(sMasterConfig->MasterSlaveMode));
1639:Drivers/STM32F4xx_HAL_Driver/Src/stm32f4xx_hal_tim_ex.c **** 
1640:Drivers/STM32F4xx_HAL_Driver/Src/stm32f4xx_hal_tim_ex.c ****   /* Check input state */
1641:Drivers/STM32F4xx_HAL_Driver/Src/stm32f4xx_hal_tim_ex.c ****   __HAL_LOCK(htim);
 3669              		.loc 1 1641 3
 3670 000a 7B68     		ldr	r3, [r7, #4]
 3671 000c 93F83C30 		ldrb	r3, [r3, #60]	@ zero_extendqisi2
 3672 0010 012B     		cmp	r3, #1
 3673 0012 01D1     		bne	.L165
 3674              		.loc 1 1641 3 is_stmt 0 discriminator 1
 3675 0014 0223     		movs	r3, #2
 3676 0016 5AE0     		b	.L166
 3677              	.L165:
 3678              		.loc 1 1641 3 discriminator 2
 3679 0018 7B68     		ldr	r3, [r7, #4]
 3680 001a 0122     		movs	r2, #1
 3681 001c 83F83C20 		strb	r2, [r3, #60]
1642:Drivers/STM32F4xx_HAL_Driver/Src/stm32f4xx_hal_tim_ex.c **** 
1643:Drivers/STM32F4xx_HAL_Driver/Src/stm32f4xx_hal_tim_ex.c ****   /* Change the handler state */
1644:Drivers/STM32F4xx_HAL_Driver/Src/stm32f4xx_hal_tim_ex.c ****   htim->State = HAL_TIM_STATE_BUSY;
 3682              		.loc 1 1644 15 is_stmt 1 discriminator 2
 3683 0020 7B68     		ldr	r3, [r7, #4]
 3684 0022 0222     		movs	r2, #2
 3685 0024 83F83D20 		strb	r2, [r3, #61]
1645:Drivers/STM32F4xx_HAL_Driver/Src/stm32f4xx_hal_tim_ex.c **** 
1646:Drivers/STM32F4xx_HAL_Driver/Src/stm32f4xx_hal_tim_ex.c ****   /* Get the TIMx CR2 register value */
1647:Drivers/STM32F4xx_HAL_Driver/Src/stm32f4xx_hal_tim_ex.c ****   tmpcr2 = htim->Instance->CR2;
 3686              		.loc 1 1647 16 discriminator 2
 3687 0028 7B68     		ldr	r3, [r7, #4]
 3688 002a 1B68     		ldr	r3, [r3]
 3689              		.loc 1 1647 10 discriminator 2
 3690 002c 5B68     		ldr	r3, [r3, #4]
 3691 002e FB60     		str	r3, [r7, #12]
1648:Drivers/STM32F4xx_HAL_Driver/Src/stm32f4xx_hal_tim_ex.c **** 
1649:Drivers/STM32F4xx_HAL_Driver/Src/stm32f4xx_hal_tim_ex.c ****   /* Get the TIMx SMCR register value */
1650:Drivers/STM32F4xx_HAL_Driver/Src/stm32f4xx_hal_tim_ex.c ****   tmpsmcr = htim->Instance->SMCR;
 3692              		.loc 1 1650 17 discriminator 2
 3693 0030 7B68     		ldr	r3, [r7, #4]
 3694 0032 1B68     		ldr	r3, [r3]
 3695              		.loc 1 1650 11 discriminator 2
 3696 0034 9B68     		ldr	r3, [r3, #8]
 3697 0036 BB60     		str	r3, [r7, #8]
1651:Drivers/STM32F4xx_HAL_Driver/Src/stm32f4xx_hal_tim_ex.c **** 
1652:Drivers/STM32F4xx_HAL_Driver/Src/stm32f4xx_hal_tim_ex.c ****   /* Reset the MMS Bits */
1653:Drivers/STM32F4xx_HAL_Driver/Src/stm32f4xx_hal_tim_ex.c ****   tmpcr2 &= ~TIM_CR2_MMS;
 3698              		.loc 1 1653 10 discriminator 2
 3699 0038 FB68     		ldr	r3, [r7, #12]
 3700 003a 23F07003 		bic	r3, r3, #112
 3701 003e FB60     		str	r3, [r7, #12]
1654:Drivers/STM32F4xx_HAL_Driver/Src/stm32f4xx_hal_tim_ex.c ****   /* Select the TRGO source */
1655:Drivers/STM32F4xx_HAL_Driver/Src/stm32f4xx_hal_tim_ex.c ****   tmpcr2 |=  sMasterConfig->MasterOutputTrigger;
 3702              		.loc 1 1655 27 discriminator 2
 3703 0040 3B68     		ldr	r3, [r7]
 3704 0042 1B68     		ldr	r3, [r3]
 3705              		.loc 1 1655 10 discriminator 2
ARM GAS  /tmp/ccilmNhL.s 			page 94


 3706 0044 FA68     		ldr	r2, [r7, #12]
 3707 0046 1343     		orrs	r3, r3, r2
 3708 0048 FB60     		str	r3, [r7, #12]
1656:Drivers/STM32F4xx_HAL_Driver/Src/stm32f4xx_hal_tim_ex.c **** 
1657:Drivers/STM32F4xx_HAL_Driver/Src/stm32f4xx_hal_tim_ex.c ****   /* Update TIMx CR2 */
1658:Drivers/STM32F4xx_HAL_Driver/Src/stm32f4xx_hal_tim_ex.c ****   htim->Instance->CR2 = tmpcr2;
 3709              		.loc 1 1658 7 discriminator 2
 3710 004a 7B68     		ldr	r3, [r7, #4]
 3711 004c 1B68     		ldr	r3, [r3]
 3712              		.loc 1 1658 23 discriminator 2
 3713 004e FA68     		ldr	r2, [r7, #12]
 3714 0050 5A60     		str	r2, [r3, #4]
1659:Drivers/STM32F4xx_HAL_Driver/Src/stm32f4xx_hal_tim_ex.c **** 
1660:Drivers/STM32F4xx_HAL_Driver/Src/stm32f4xx_hal_tim_ex.c ****   if (IS_TIM_SLAVE_INSTANCE(htim->Instance))
 3715              		.loc 1 1660 7 discriminator 2
 3716 0052 7B68     		ldr	r3, [r7, #4]
 3717 0054 1B68     		ldr	r3, [r3]
 3718              		.loc 1 1660 6 discriminator 2
 3719 0056 214A     		ldr	r2, .L169
 3720 0058 9342     		cmp	r3, r2
 3721 005a 22D0     		beq	.L167
 3722              		.loc 1 1660 7 discriminator 1
 3723 005c 7B68     		ldr	r3, [r7, #4]
 3724 005e 1B68     		ldr	r3, [r3]
 3725 0060 B3F1804F 		cmp	r3, #1073741824
 3726 0064 1DD0     		beq	.L167
 3727              		.loc 1 1660 7 is_stmt 0 discriminator 2
 3728 0066 7B68     		ldr	r3, [r7, #4]
 3729 0068 1B68     		ldr	r3, [r3]
 3730 006a 1D4A     		ldr	r2, .L169+4
 3731 006c 9342     		cmp	r3, r2
 3732 006e 18D0     		beq	.L167
 3733              		.loc 1 1660 7 discriminator 3
 3734 0070 7B68     		ldr	r3, [r7, #4]
 3735 0072 1B68     		ldr	r3, [r3]
 3736 0074 1B4A     		ldr	r2, .L169+8
 3737 0076 9342     		cmp	r3, r2
 3738 0078 13D0     		beq	.L167
 3739              		.loc 1 1660 7 discriminator 4
 3740 007a 7B68     		ldr	r3, [r7, #4]
 3741 007c 1B68     		ldr	r3, [r3]
 3742 007e 1A4A     		ldr	r2, .L169+12
 3743 0080 9342     		cmp	r3, r2
 3744 0082 0ED0     		beq	.L167
 3745              		.loc 1 1660 7 discriminator 5
 3746 0084 7B68     		ldr	r3, [r7, #4]
 3747 0086 1B68     		ldr	r3, [r3]
 3748 0088 184A     		ldr	r2, .L169+16
 3749 008a 9342     		cmp	r3, r2
 3750 008c 09D0     		beq	.L167
 3751              		.loc 1 1660 7 discriminator 6
 3752 008e 7B68     		ldr	r3, [r7, #4]
 3753 0090 1B68     		ldr	r3, [r3]
 3754 0092 174A     		ldr	r2, .L169+20
 3755 0094 9342     		cmp	r3, r2
 3756 0096 04D0     		beq	.L167
 3757              		.loc 1 1660 7 discriminator 7
ARM GAS  /tmp/ccilmNhL.s 			page 95


 3758 0098 7B68     		ldr	r3, [r7, #4]
 3759 009a 1B68     		ldr	r3, [r3]
 3760 009c 154A     		ldr	r2, .L169+24
 3761 009e 9342     		cmp	r3, r2
 3762 00a0 0CD1     		bne	.L168
 3763              	.L167:
1661:Drivers/STM32F4xx_HAL_Driver/Src/stm32f4xx_hal_tim_ex.c ****   {
1662:Drivers/STM32F4xx_HAL_Driver/Src/stm32f4xx_hal_tim_ex.c ****     /* Reset the MSM Bit */
1663:Drivers/STM32F4xx_HAL_Driver/Src/stm32f4xx_hal_tim_ex.c ****     tmpsmcr &= ~TIM_SMCR_MSM;
 3764              		.loc 1 1663 13 is_stmt 1
 3765 00a2 BB68     		ldr	r3, [r7, #8]
 3766 00a4 23F08003 		bic	r3, r3, #128
 3767 00a8 BB60     		str	r3, [r7, #8]
1664:Drivers/STM32F4xx_HAL_Driver/Src/stm32f4xx_hal_tim_ex.c ****     /* Set master mode */
1665:Drivers/STM32F4xx_HAL_Driver/Src/stm32f4xx_hal_tim_ex.c ****     tmpsmcr |= sMasterConfig->MasterSlaveMode;
 3768              		.loc 1 1665 29
 3769 00aa 3B68     		ldr	r3, [r7]
 3770 00ac 5B68     		ldr	r3, [r3, #4]
 3771              		.loc 1 1665 13
 3772 00ae BA68     		ldr	r2, [r7, #8]
 3773 00b0 1343     		orrs	r3, r3, r2
 3774 00b2 BB60     		str	r3, [r7, #8]
1666:Drivers/STM32F4xx_HAL_Driver/Src/stm32f4xx_hal_tim_ex.c **** 
1667:Drivers/STM32F4xx_HAL_Driver/Src/stm32f4xx_hal_tim_ex.c ****     /* Update TIMx SMCR */
1668:Drivers/STM32F4xx_HAL_Driver/Src/stm32f4xx_hal_tim_ex.c ****     htim->Instance->SMCR = tmpsmcr;
 3775              		.loc 1 1668 9
 3776 00b4 7B68     		ldr	r3, [r7, #4]
 3777 00b6 1B68     		ldr	r3, [r3]
 3778              		.loc 1 1668 26
 3779 00b8 BA68     		ldr	r2, [r7, #8]
 3780 00ba 9A60     		str	r2, [r3, #8]
 3781              	.L168:
1669:Drivers/STM32F4xx_HAL_Driver/Src/stm32f4xx_hal_tim_ex.c ****   }
1670:Drivers/STM32F4xx_HAL_Driver/Src/stm32f4xx_hal_tim_ex.c **** 
1671:Drivers/STM32F4xx_HAL_Driver/Src/stm32f4xx_hal_tim_ex.c ****   /* Change the htim state */
1672:Drivers/STM32F4xx_HAL_Driver/Src/stm32f4xx_hal_tim_ex.c ****   htim->State = HAL_TIM_STATE_READY;
 3782              		.loc 1 1672 15
 3783 00bc 7B68     		ldr	r3, [r7, #4]
 3784 00be 0122     		movs	r2, #1
 3785 00c0 83F83D20 		strb	r2, [r3, #61]
1673:Drivers/STM32F4xx_HAL_Driver/Src/stm32f4xx_hal_tim_ex.c **** 
1674:Drivers/STM32F4xx_HAL_Driver/Src/stm32f4xx_hal_tim_ex.c ****   __HAL_UNLOCK(htim);
 3786              		.loc 1 1674 3
 3787 00c4 7B68     		ldr	r3, [r7, #4]
 3788 00c6 0022     		movs	r2, #0
 3789 00c8 83F83C20 		strb	r2, [r3, #60]
1675:Drivers/STM32F4xx_HAL_Driver/Src/stm32f4xx_hal_tim_ex.c **** 
1676:Drivers/STM32F4xx_HAL_Driver/Src/stm32f4xx_hal_tim_ex.c ****   return HAL_OK;
 3790              		.loc 1 1676 10
 3791 00cc 0023     		movs	r3, #0
 3792              	.L166:
1677:Drivers/STM32F4xx_HAL_Driver/Src/stm32f4xx_hal_tim_ex.c **** }
 3793              		.loc 1 1677 1
 3794 00ce 1846     		mov	r0, r3
 3795 00d0 1437     		adds	r7, r7, #20
 3796              	.LCFI153:
 3797              		.cfi_def_cfa_offset 4
ARM GAS  /tmp/ccilmNhL.s 			page 96


 3798 00d2 BD46     		mov	sp, r7
 3799              	.LCFI154:
 3800              		.cfi_def_cfa_register 13
 3801              		@ sp needed
 3802 00d4 5DF8047B 		ldr	r7, [sp], #4
 3803              	.LCFI155:
 3804              		.cfi_restore 7
 3805              		.cfi_def_cfa_offset 0
 3806 00d8 7047     		bx	lr
 3807              	.L170:
 3808 00da 00BF     		.align	2
 3809              	.L169:
 3810 00dc 00000140 		.word	1073807360
 3811 00e0 00040040 		.word	1073742848
 3812 00e4 00080040 		.word	1073743872
 3813 00e8 000C0040 		.word	1073744896
 3814 00ec 00040140 		.word	1073808384
 3815 00f0 00400140 		.word	1073823744
 3816 00f4 00180040 		.word	1073747968
 3817              		.cfi_endproc
 3818              	.LFE159:
 3820              		.section	.text.HAL_TIMEx_ConfigBreakDeadTime,"ax",%progbits
 3821              		.align	1
 3822              		.global	HAL_TIMEx_ConfigBreakDeadTime
 3823              		.syntax unified
 3824              		.thumb
 3825              		.thumb_func
 3826              		.fpu fpv4-sp-d16
 3828              	HAL_TIMEx_ConfigBreakDeadTime:
 3829              	.LFB160:
1678:Drivers/STM32F4xx_HAL_Driver/Src/stm32f4xx_hal_tim_ex.c **** 
1679:Drivers/STM32F4xx_HAL_Driver/Src/stm32f4xx_hal_tim_ex.c **** /**
1680:Drivers/STM32F4xx_HAL_Driver/Src/stm32f4xx_hal_tim_ex.c ****   * @brief  Configures the Break feature, dead time, Lock level, OSSI/OSSR State
1681:Drivers/STM32F4xx_HAL_Driver/Src/stm32f4xx_hal_tim_ex.c ****   *         and the AOE(automatic output enable).
1682:Drivers/STM32F4xx_HAL_Driver/Src/stm32f4xx_hal_tim_ex.c ****   * @param  htim TIM handle
1683:Drivers/STM32F4xx_HAL_Driver/Src/stm32f4xx_hal_tim_ex.c ****   * @param  sBreakDeadTimeConfig pointer to a TIM_ConfigBreakDeadConfigTypeDef structure that
1684:Drivers/STM32F4xx_HAL_Driver/Src/stm32f4xx_hal_tim_ex.c ****   *         contains the BDTR Register configuration  information for the TIM peripheral.
1685:Drivers/STM32F4xx_HAL_Driver/Src/stm32f4xx_hal_tim_ex.c ****   * @note   Interrupts can be generated when an active level is detected on the
1686:Drivers/STM32F4xx_HAL_Driver/Src/stm32f4xx_hal_tim_ex.c ****   *         break input, the break 2 input or the system break input. Break
1687:Drivers/STM32F4xx_HAL_Driver/Src/stm32f4xx_hal_tim_ex.c ****   *         interrupt can be enabled by calling the @ref __HAL_TIM_ENABLE_IT macro.
1688:Drivers/STM32F4xx_HAL_Driver/Src/stm32f4xx_hal_tim_ex.c ****   * @retval HAL status
1689:Drivers/STM32F4xx_HAL_Driver/Src/stm32f4xx_hal_tim_ex.c ****   */
1690:Drivers/STM32F4xx_HAL_Driver/Src/stm32f4xx_hal_tim_ex.c **** HAL_StatusTypeDef HAL_TIMEx_ConfigBreakDeadTime(TIM_HandleTypeDef *htim,
1691:Drivers/STM32F4xx_HAL_Driver/Src/stm32f4xx_hal_tim_ex.c ****                                                 TIM_BreakDeadTimeConfigTypeDef *sBreakDeadTimeConfi
1692:Drivers/STM32F4xx_HAL_Driver/Src/stm32f4xx_hal_tim_ex.c **** {
 3830              		.loc 1 1692 1
 3831              		.cfi_startproc
 3832              		@ args = 0, pretend = 0, frame = 16
 3833              		@ frame_needed = 1, uses_anonymous_args = 0
 3834              		@ link register save eliminated.
 3835 0000 80B4     		push	{r7}
 3836              	.LCFI156:
 3837              		.cfi_def_cfa_offset 4
 3838              		.cfi_offset 7, -4
 3839 0002 85B0     		sub	sp, sp, #20
 3840              	.LCFI157:
 3841              		.cfi_def_cfa_offset 24
ARM GAS  /tmp/ccilmNhL.s 			page 97


 3842 0004 00AF     		add	r7, sp, #0
 3843              	.LCFI158:
 3844              		.cfi_def_cfa_register 7
 3845 0006 7860     		str	r0, [r7, #4]
 3846 0008 3960     		str	r1, [r7]
1693:Drivers/STM32F4xx_HAL_Driver/Src/stm32f4xx_hal_tim_ex.c ****   /* Keep this variable initialized to 0 as it is used to configure BDTR register */
1694:Drivers/STM32F4xx_HAL_Driver/Src/stm32f4xx_hal_tim_ex.c ****   uint32_t tmpbdtr = 0U;
 3847              		.loc 1 1694 12
 3848 000a 0023     		movs	r3, #0
 3849 000c FB60     		str	r3, [r7, #12]
1695:Drivers/STM32F4xx_HAL_Driver/Src/stm32f4xx_hal_tim_ex.c **** 
1696:Drivers/STM32F4xx_HAL_Driver/Src/stm32f4xx_hal_tim_ex.c ****   /* Check the parameters */
1697:Drivers/STM32F4xx_HAL_Driver/Src/stm32f4xx_hal_tim_ex.c ****   assert_param(IS_TIM_BREAK_INSTANCE(htim->Instance));
1698:Drivers/STM32F4xx_HAL_Driver/Src/stm32f4xx_hal_tim_ex.c ****   assert_param(IS_TIM_OSSR_STATE(sBreakDeadTimeConfig->OffStateRunMode));
1699:Drivers/STM32F4xx_HAL_Driver/Src/stm32f4xx_hal_tim_ex.c ****   assert_param(IS_TIM_OSSI_STATE(sBreakDeadTimeConfig->OffStateIDLEMode));
1700:Drivers/STM32F4xx_HAL_Driver/Src/stm32f4xx_hal_tim_ex.c ****   assert_param(IS_TIM_LOCK_LEVEL(sBreakDeadTimeConfig->LockLevel));
1701:Drivers/STM32F4xx_HAL_Driver/Src/stm32f4xx_hal_tim_ex.c ****   assert_param(IS_TIM_DEADTIME(sBreakDeadTimeConfig->DeadTime));
1702:Drivers/STM32F4xx_HAL_Driver/Src/stm32f4xx_hal_tim_ex.c ****   assert_param(IS_TIM_BREAK_STATE(sBreakDeadTimeConfig->BreakState));
1703:Drivers/STM32F4xx_HAL_Driver/Src/stm32f4xx_hal_tim_ex.c ****   assert_param(IS_TIM_BREAK_POLARITY(sBreakDeadTimeConfig->BreakPolarity));
1704:Drivers/STM32F4xx_HAL_Driver/Src/stm32f4xx_hal_tim_ex.c ****   assert_param(IS_TIM_AUTOMATIC_OUTPUT_STATE(sBreakDeadTimeConfig->AutomaticOutput));
1705:Drivers/STM32F4xx_HAL_Driver/Src/stm32f4xx_hal_tim_ex.c **** 
1706:Drivers/STM32F4xx_HAL_Driver/Src/stm32f4xx_hal_tim_ex.c ****   /* Check input state */
1707:Drivers/STM32F4xx_HAL_Driver/Src/stm32f4xx_hal_tim_ex.c ****   __HAL_LOCK(htim);
 3850              		.loc 1 1707 3
 3851 000e 7B68     		ldr	r3, [r7, #4]
 3852 0010 93F83C30 		ldrb	r3, [r3, #60]	@ zero_extendqisi2
 3853 0014 012B     		cmp	r3, #1
 3854 0016 01D1     		bne	.L172
 3855              		.loc 1 1707 3 is_stmt 0 discriminator 1
 3856 0018 0223     		movs	r3, #2
 3857 001a 3DE0     		b	.L173
 3858              	.L172:
 3859              		.loc 1 1707 3 discriminator 2
 3860 001c 7B68     		ldr	r3, [r7, #4]
 3861 001e 0122     		movs	r2, #1
 3862 0020 83F83C20 		strb	r2, [r3, #60]
1708:Drivers/STM32F4xx_HAL_Driver/Src/stm32f4xx_hal_tim_ex.c **** 
1709:Drivers/STM32F4xx_HAL_Driver/Src/stm32f4xx_hal_tim_ex.c ****   /* Set the Lock level, the Break enable Bit and the Polarity, the OSSR State,
1710:Drivers/STM32F4xx_HAL_Driver/Src/stm32f4xx_hal_tim_ex.c ****      the OSSI State, the dead time value and the Automatic Output Enable Bit */
1711:Drivers/STM32F4xx_HAL_Driver/Src/stm32f4xx_hal_tim_ex.c **** 
1712:Drivers/STM32F4xx_HAL_Driver/Src/stm32f4xx_hal_tim_ex.c ****   /* Set the BDTR bits */
1713:Drivers/STM32F4xx_HAL_Driver/Src/stm32f4xx_hal_tim_ex.c ****   MODIFY_REG(tmpbdtr, TIM_BDTR_DTG, sBreakDeadTimeConfig->DeadTime);
 3863              		.loc 1 1713 3 is_stmt 1 discriminator 2
 3864 0024 FB68     		ldr	r3, [r7, #12]
 3865 0026 23F0FF02 		bic	r2, r3, #255
 3866 002a 3B68     		ldr	r3, [r7]
 3867 002c DB68     		ldr	r3, [r3, #12]
 3868 002e 1343     		orrs	r3, r3, r2
 3869 0030 FB60     		str	r3, [r7, #12]
1714:Drivers/STM32F4xx_HAL_Driver/Src/stm32f4xx_hal_tim_ex.c ****   MODIFY_REG(tmpbdtr, TIM_BDTR_LOCK, sBreakDeadTimeConfig->LockLevel);
 3870              		.loc 1 1714 3 discriminator 2
 3871 0032 FB68     		ldr	r3, [r7, #12]
 3872 0034 23F44072 		bic	r2, r3, #768
 3873 0038 3B68     		ldr	r3, [r7]
 3874 003a 9B68     		ldr	r3, [r3, #8]
 3875 003c 1343     		orrs	r3, r3, r2
 3876 003e FB60     		str	r3, [r7, #12]
ARM GAS  /tmp/ccilmNhL.s 			page 98


1715:Drivers/STM32F4xx_HAL_Driver/Src/stm32f4xx_hal_tim_ex.c ****   MODIFY_REG(tmpbdtr, TIM_BDTR_OSSI, sBreakDeadTimeConfig->OffStateIDLEMode);
 3877              		.loc 1 1715 3 discriminator 2
 3878 0040 FB68     		ldr	r3, [r7, #12]
 3879 0042 23F48062 		bic	r2, r3, #1024
 3880 0046 3B68     		ldr	r3, [r7]
 3881 0048 5B68     		ldr	r3, [r3, #4]
 3882 004a 1343     		orrs	r3, r3, r2
 3883 004c FB60     		str	r3, [r7, #12]
1716:Drivers/STM32F4xx_HAL_Driver/Src/stm32f4xx_hal_tim_ex.c ****   MODIFY_REG(tmpbdtr, TIM_BDTR_OSSR, sBreakDeadTimeConfig->OffStateRunMode);
 3884              		.loc 1 1716 3 discriminator 2
 3885 004e FB68     		ldr	r3, [r7, #12]
 3886 0050 23F40062 		bic	r2, r3, #2048
 3887 0054 3B68     		ldr	r3, [r7]
 3888 0056 1B68     		ldr	r3, [r3]
 3889 0058 1343     		orrs	r3, r3, r2
 3890 005a FB60     		str	r3, [r7, #12]
1717:Drivers/STM32F4xx_HAL_Driver/Src/stm32f4xx_hal_tim_ex.c ****   MODIFY_REG(tmpbdtr, TIM_BDTR_BKE, sBreakDeadTimeConfig->BreakState);
 3891              		.loc 1 1717 3 discriminator 2
 3892 005c FB68     		ldr	r3, [r7, #12]
 3893 005e 23F48052 		bic	r2, r3, #4096
 3894 0062 3B68     		ldr	r3, [r7]
 3895 0064 1B69     		ldr	r3, [r3, #16]
 3896 0066 1343     		orrs	r3, r3, r2
 3897 0068 FB60     		str	r3, [r7, #12]
1718:Drivers/STM32F4xx_HAL_Driver/Src/stm32f4xx_hal_tim_ex.c ****   MODIFY_REG(tmpbdtr, TIM_BDTR_BKP, sBreakDeadTimeConfig->BreakPolarity);
 3898              		.loc 1 1718 3 discriminator 2
 3899 006a FB68     		ldr	r3, [r7, #12]
 3900 006c 23F40052 		bic	r2, r3, #8192
 3901 0070 3B68     		ldr	r3, [r7]
 3902 0072 5B69     		ldr	r3, [r3, #20]
 3903 0074 1343     		orrs	r3, r3, r2
 3904 0076 FB60     		str	r3, [r7, #12]
1719:Drivers/STM32F4xx_HAL_Driver/Src/stm32f4xx_hal_tim_ex.c ****   MODIFY_REG(tmpbdtr, TIM_BDTR_AOE, sBreakDeadTimeConfig->AutomaticOutput);
 3905              		.loc 1 1719 3 discriminator 2
 3906 0078 FB68     		ldr	r3, [r7, #12]
 3907 007a 23F48042 		bic	r2, r3, #16384
 3908 007e 3B68     		ldr	r3, [r7]
 3909 0080 DB69     		ldr	r3, [r3, #28]
 3910 0082 1343     		orrs	r3, r3, r2
 3911 0084 FB60     		str	r3, [r7, #12]
1720:Drivers/STM32F4xx_HAL_Driver/Src/stm32f4xx_hal_tim_ex.c **** 
1721:Drivers/STM32F4xx_HAL_Driver/Src/stm32f4xx_hal_tim_ex.c **** 
1722:Drivers/STM32F4xx_HAL_Driver/Src/stm32f4xx_hal_tim_ex.c ****   /* Set TIMx_BDTR */
1723:Drivers/STM32F4xx_HAL_Driver/Src/stm32f4xx_hal_tim_ex.c ****   htim->Instance->BDTR = tmpbdtr;
 3912              		.loc 1 1723 7 discriminator 2
 3913 0086 7B68     		ldr	r3, [r7, #4]
 3914 0088 1B68     		ldr	r3, [r3]
 3915              		.loc 1 1723 24 discriminator 2
 3916 008a FA68     		ldr	r2, [r7, #12]
 3917 008c 5A64     		str	r2, [r3, #68]
1724:Drivers/STM32F4xx_HAL_Driver/Src/stm32f4xx_hal_tim_ex.c **** 
1725:Drivers/STM32F4xx_HAL_Driver/Src/stm32f4xx_hal_tim_ex.c ****   __HAL_UNLOCK(htim);
 3918              		.loc 1 1725 3 discriminator 2
 3919 008e 7B68     		ldr	r3, [r7, #4]
 3920 0090 0022     		movs	r2, #0
 3921 0092 83F83C20 		strb	r2, [r3, #60]
1726:Drivers/STM32F4xx_HAL_Driver/Src/stm32f4xx_hal_tim_ex.c **** 
ARM GAS  /tmp/ccilmNhL.s 			page 99


1727:Drivers/STM32F4xx_HAL_Driver/Src/stm32f4xx_hal_tim_ex.c ****   return HAL_OK;
 3922              		.loc 1 1727 10 discriminator 2
 3923 0096 0023     		movs	r3, #0
 3924              	.L173:
1728:Drivers/STM32F4xx_HAL_Driver/Src/stm32f4xx_hal_tim_ex.c **** }
 3925              		.loc 1 1728 1
 3926 0098 1846     		mov	r0, r3
 3927 009a 1437     		adds	r7, r7, #20
 3928              	.LCFI159:
 3929              		.cfi_def_cfa_offset 4
 3930 009c BD46     		mov	sp, r7
 3931              	.LCFI160:
 3932              		.cfi_def_cfa_register 13
 3933              		@ sp needed
 3934 009e 5DF8047B 		ldr	r7, [sp], #4
 3935              	.LCFI161:
 3936              		.cfi_restore 7
 3937              		.cfi_def_cfa_offset 0
 3938 00a2 7047     		bx	lr
 3939              		.cfi_endproc
 3940              	.LFE160:
 3942              		.section	.text.HAL_TIMEx_RemapConfig,"ax",%progbits
 3943              		.align	1
 3944              		.global	HAL_TIMEx_RemapConfig
 3945              		.syntax unified
 3946              		.thumb
 3947              		.thumb_func
 3948              		.fpu fpv4-sp-d16
 3950              	HAL_TIMEx_RemapConfig:
 3951              	.LFB161:
1729:Drivers/STM32F4xx_HAL_Driver/Src/stm32f4xx_hal_tim_ex.c **** 
1730:Drivers/STM32F4xx_HAL_Driver/Src/stm32f4xx_hal_tim_ex.c **** /**
1731:Drivers/STM32F4xx_HAL_Driver/Src/stm32f4xx_hal_tim_ex.c ****   * @brief  Configures the TIMx Remapping input capabilities.
1732:Drivers/STM32F4xx_HAL_Driver/Src/stm32f4xx_hal_tim_ex.c ****   * @param  htim TIM handle.
1733:Drivers/STM32F4xx_HAL_Driver/Src/stm32f4xx_hal_tim_ex.c ****   * @param  Remap specifies the TIM remapping source.
1734:Drivers/STM32F4xx_HAL_Driver/Src/stm32f4xx_hal_tim_ex.c ****   *         For TIM1, the parameter can have the following values:                   (**)
1735:Drivers/STM32F4xx_HAL_Driver/Src/stm32f4xx_hal_tim_ex.c ****   *           @arg TIM_TIM1_TIM3_TRGO:  TIM1 ITR2 is connected to TIM3 TRGO
1736:Drivers/STM32F4xx_HAL_Driver/Src/stm32f4xx_hal_tim_ex.c ****   *           @arg TIM_TIM1_LPTIM:      TIM1 ITR2 is connected to LPTIM1 output
1737:Drivers/STM32F4xx_HAL_Driver/Src/stm32f4xx_hal_tim_ex.c ****   *
1738:Drivers/STM32F4xx_HAL_Driver/Src/stm32f4xx_hal_tim_ex.c ****   *         For TIM2, the parameter can have the following values:                   (**)
1739:Drivers/STM32F4xx_HAL_Driver/Src/stm32f4xx_hal_tim_ex.c ****   *           @arg TIM_TIM2_TIM8_TRGO:  TIM2 ITR1 is connected to TIM8 TRGO          (*)
1740:Drivers/STM32F4xx_HAL_Driver/Src/stm32f4xx_hal_tim_ex.c ****   *           @arg TIM_TIM2_ETH_PTP:    TIM2 ITR1 is connected to PTP trigger output (*)
1741:Drivers/STM32F4xx_HAL_Driver/Src/stm32f4xx_hal_tim_ex.c ****   *           @arg TIM_TIM2_USBFS_SOF:  TIM2 ITR1 is connected to OTG FS SOF
1742:Drivers/STM32F4xx_HAL_Driver/Src/stm32f4xx_hal_tim_ex.c ****   *           @arg TIM_TIM2_USBHS_SOF:  TIM2 ITR1 is connected to OTG FS SOF
1743:Drivers/STM32F4xx_HAL_Driver/Src/stm32f4xx_hal_tim_ex.c ****   *
1744:Drivers/STM32F4xx_HAL_Driver/Src/stm32f4xx_hal_tim_ex.c ****   *         For TIM5, the parameter can have the following values:
1745:Drivers/STM32F4xx_HAL_Driver/Src/stm32f4xx_hal_tim_ex.c ****   *           @arg TIM_TIM5_GPIO:       TIM5 TI4 is connected to GPIO
1746:Drivers/STM32F4xx_HAL_Driver/Src/stm32f4xx_hal_tim_ex.c ****   *           @arg TIM_TIM5_LSI:        TIM5 TI4 is connected to LSI
1747:Drivers/STM32F4xx_HAL_Driver/Src/stm32f4xx_hal_tim_ex.c ****   *           @arg TIM_TIM5_LSE:        TIM5 TI4 is connected to LSE
1748:Drivers/STM32F4xx_HAL_Driver/Src/stm32f4xx_hal_tim_ex.c ****   *           @arg TIM_TIM5_RTC:        TIM5 TI4 is connected to the RTC wakeup interrupt
1749:Drivers/STM32F4xx_HAL_Driver/Src/stm32f4xx_hal_tim_ex.c ****   *           @arg TIM_TIM5_TIM3_TRGO:  TIM5 ITR1 is connected to TIM3 TRGO          (*)
1750:Drivers/STM32F4xx_HAL_Driver/Src/stm32f4xx_hal_tim_ex.c ****   *           @arg TIM_TIM5_LPTIM:      TIM5 ITR1 is connected to LPTIM1 output      (*)
1751:Drivers/STM32F4xx_HAL_Driver/Src/stm32f4xx_hal_tim_ex.c ****   *
1752:Drivers/STM32F4xx_HAL_Driver/Src/stm32f4xx_hal_tim_ex.c ****   *         For TIM9, the parameter can have the following values:                   (**)
1753:Drivers/STM32F4xx_HAL_Driver/Src/stm32f4xx_hal_tim_ex.c ****   *           @arg TIM_TIM9_TIM3_TRGO:  TIM9 ITR1 is connected to TIM3 TRGO
1754:Drivers/STM32F4xx_HAL_Driver/Src/stm32f4xx_hal_tim_ex.c ****   *           @arg TIM_TIM9_LPTIM:      TIM9 ITR1 is connected to LPTIM1 output
1755:Drivers/STM32F4xx_HAL_Driver/Src/stm32f4xx_hal_tim_ex.c ****   *
ARM GAS  /tmp/ccilmNhL.s 			page 100


1756:Drivers/STM32F4xx_HAL_Driver/Src/stm32f4xx_hal_tim_ex.c ****   *         For TIM11, the parameter can have the following values:
1757:Drivers/STM32F4xx_HAL_Driver/Src/stm32f4xx_hal_tim_ex.c ****   *           @arg TIM_TIM11_GPIO:     TIM11 TI1 is connected to GPIO
1758:Drivers/STM32F4xx_HAL_Driver/Src/stm32f4xx_hal_tim_ex.c ****   *           @arg TIM_TIM11_HSE:      TIM11 TI1 is connected to HSE_RTC clock
1759:Drivers/STM32F4xx_HAL_Driver/Src/stm32f4xx_hal_tim_ex.c ****   *           @arg TIM_TIM11_SPDIFRX:  TIM11 TI1 is connected to SPDIFRX_FRAME_SYNC  (*)
1760:Drivers/STM32F4xx_HAL_Driver/Src/stm32f4xx_hal_tim_ex.c ****   *
1761:Drivers/STM32F4xx_HAL_Driver/Src/stm32f4xx_hal_tim_ex.c ****   *         (*)  Value not defined in all devices. \n
1762:Drivers/STM32F4xx_HAL_Driver/Src/stm32f4xx_hal_tim_ex.c ****   *         (**) Register not available in all devices.
1763:Drivers/STM32F4xx_HAL_Driver/Src/stm32f4xx_hal_tim_ex.c ****   *
1764:Drivers/STM32F4xx_HAL_Driver/Src/stm32f4xx_hal_tim_ex.c ****   * @retval HAL status
1765:Drivers/STM32F4xx_HAL_Driver/Src/stm32f4xx_hal_tim_ex.c ****   */
1766:Drivers/STM32F4xx_HAL_Driver/Src/stm32f4xx_hal_tim_ex.c **** HAL_StatusTypeDef HAL_TIMEx_RemapConfig(TIM_HandleTypeDef *htim, uint32_t Remap)
1767:Drivers/STM32F4xx_HAL_Driver/Src/stm32f4xx_hal_tim_ex.c **** {
 3952              		.loc 1 1767 1
 3953              		.cfi_startproc
 3954              		@ args = 0, pretend = 0, frame = 8
 3955              		@ frame_needed = 1, uses_anonymous_args = 0
 3956              		@ link register save eliminated.
 3957 0000 80B4     		push	{r7}
 3958              	.LCFI162:
 3959              		.cfi_def_cfa_offset 4
 3960              		.cfi_offset 7, -4
 3961 0002 83B0     		sub	sp, sp, #12
 3962              	.LCFI163:
 3963              		.cfi_def_cfa_offset 16
 3964 0004 00AF     		add	r7, sp, #0
 3965              	.LCFI164:
 3966              		.cfi_def_cfa_register 7
 3967 0006 7860     		str	r0, [r7, #4]
 3968 0008 3960     		str	r1, [r7]
1768:Drivers/STM32F4xx_HAL_Driver/Src/stm32f4xx_hal_tim_ex.c ****   __HAL_LOCK(htim);
 3969              		.loc 1 1768 3
 3970 000a 7B68     		ldr	r3, [r7, #4]
 3971 000c 93F83C30 		ldrb	r3, [r3, #60]	@ zero_extendqisi2
 3972 0010 012B     		cmp	r3, #1
 3973 0012 01D1     		bne	.L175
 3974              		.loc 1 1768 3 is_stmt 0 discriminator 1
 3975 0014 0223     		movs	r3, #2
 3976 0016 0CE0     		b	.L176
 3977              	.L175:
 3978              		.loc 1 1768 3 discriminator 2
 3979 0018 7B68     		ldr	r3, [r7, #4]
 3980 001a 0122     		movs	r2, #1
 3981 001c 83F83C20 		strb	r2, [r3, #60]
1769:Drivers/STM32F4xx_HAL_Driver/Src/stm32f4xx_hal_tim_ex.c **** 
1770:Drivers/STM32F4xx_HAL_Driver/Src/stm32f4xx_hal_tim_ex.c ****   /* Check parameters */
1771:Drivers/STM32F4xx_HAL_Driver/Src/stm32f4xx_hal_tim_ex.c ****   assert_param(IS_TIM_REMAP(htim->Instance, Remap));
1772:Drivers/STM32F4xx_HAL_Driver/Src/stm32f4xx_hal_tim_ex.c **** 
1773:Drivers/STM32F4xx_HAL_Driver/Src/stm32f4xx_hal_tim_ex.c **** #if defined(LPTIM_OR_TIM1_ITR2_RMP) && defined(LPTIM_OR_TIM5_ITR1_RMP) && defined(LPTIM_OR_TIM5_ITR
1774:Drivers/STM32F4xx_HAL_Driver/Src/stm32f4xx_hal_tim_ex.c ****   if ((Remap & LPTIM_REMAP_MASK) == LPTIM_REMAP_MASK)
1775:Drivers/STM32F4xx_HAL_Driver/Src/stm32f4xx_hal_tim_ex.c ****   {
1776:Drivers/STM32F4xx_HAL_Driver/Src/stm32f4xx_hal_tim_ex.c ****     /* Connect TIMx internal trigger to LPTIM1 output */
1777:Drivers/STM32F4xx_HAL_Driver/Src/stm32f4xx_hal_tim_ex.c ****     __HAL_RCC_LPTIM1_CLK_ENABLE();
1778:Drivers/STM32F4xx_HAL_Driver/Src/stm32f4xx_hal_tim_ex.c ****     MODIFY_REG(LPTIM1->OR,
1779:Drivers/STM32F4xx_HAL_Driver/Src/stm32f4xx_hal_tim_ex.c ****                (LPTIM_OR_TIM1_ITR2_RMP | LPTIM_OR_TIM5_ITR1_RMP | LPTIM_OR_TIM9_ITR1_RMP),
1780:Drivers/STM32F4xx_HAL_Driver/Src/stm32f4xx_hal_tim_ex.c ****                Remap & ~(LPTIM_REMAP_MASK));
1781:Drivers/STM32F4xx_HAL_Driver/Src/stm32f4xx_hal_tim_ex.c ****   }
1782:Drivers/STM32F4xx_HAL_Driver/Src/stm32f4xx_hal_tim_ex.c ****   else
ARM GAS  /tmp/ccilmNhL.s 			page 101


1783:Drivers/STM32F4xx_HAL_Driver/Src/stm32f4xx_hal_tim_ex.c ****   {
1784:Drivers/STM32F4xx_HAL_Driver/Src/stm32f4xx_hal_tim_ex.c ****     /* Set the Timer remapping configuration */
1785:Drivers/STM32F4xx_HAL_Driver/Src/stm32f4xx_hal_tim_ex.c ****     WRITE_REG(htim->Instance->OR, Remap);
1786:Drivers/STM32F4xx_HAL_Driver/Src/stm32f4xx_hal_tim_ex.c ****   }
1787:Drivers/STM32F4xx_HAL_Driver/Src/stm32f4xx_hal_tim_ex.c **** #else
1788:Drivers/STM32F4xx_HAL_Driver/Src/stm32f4xx_hal_tim_ex.c ****   /* Set the Timer remapping configuration */
1789:Drivers/STM32F4xx_HAL_Driver/Src/stm32f4xx_hal_tim_ex.c ****   WRITE_REG(htim->Instance->OR, Remap);
 3982              		.loc 1 1789 3 is_stmt 1 discriminator 2
 3983 0020 7B68     		ldr	r3, [r7, #4]
 3984 0022 1B68     		ldr	r3, [r3]
 3985 0024 3A68     		ldr	r2, [r7]
 3986 0026 1A65     		str	r2, [r3, #80]
1790:Drivers/STM32F4xx_HAL_Driver/Src/stm32f4xx_hal_tim_ex.c **** #endif /* LPTIM_OR_TIM1_ITR2_RMP &&  LPTIM_OR_TIM5_ITR1_RMP && LPTIM_OR_TIM5_ITR1_RMP */
1791:Drivers/STM32F4xx_HAL_Driver/Src/stm32f4xx_hal_tim_ex.c **** 
1792:Drivers/STM32F4xx_HAL_Driver/Src/stm32f4xx_hal_tim_ex.c ****   __HAL_UNLOCK(htim);
 3987              		.loc 1 1792 3 discriminator 2
 3988 0028 7B68     		ldr	r3, [r7, #4]
 3989 002a 0022     		movs	r2, #0
 3990 002c 83F83C20 		strb	r2, [r3, #60]
1793:Drivers/STM32F4xx_HAL_Driver/Src/stm32f4xx_hal_tim_ex.c **** 
1794:Drivers/STM32F4xx_HAL_Driver/Src/stm32f4xx_hal_tim_ex.c ****   return HAL_OK;
 3991              		.loc 1 1794 10 discriminator 2
 3992 0030 0023     		movs	r3, #0
 3993              	.L176:
1795:Drivers/STM32F4xx_HAL_Driver/Src/stm32f4xx_hal_tim_ex.c **** }
 3994              		.loc 1 1795 1
 3995 0032 1846     		mov	r0, r3
 3996 0034 0C37     		adds	r7, r7, #12
 3997              	.LCFI165:
 3998              		.cfi_def_cfa_offset 4
 3999 0036 BD46     		mov	sp, r7
 4000              	.LCFI166:
 4001              		.cfi_def_cfa_register 13
 4002              		@ sp needed
 4003 0038 5DF8047B 		ldr	r7, [sp], #4
 4004              	.LCFI167:
 4005              		.cfi_restore 7
 4006              		.cfi_def_cfa_offset 0
 4007 003c 7047     		bx	lr
 4008              		.cfi_endproc
 4009              	.LFE161:
 4011              		.section	.text.HAL_TIMEx_CommutCallback,"ax",%progbits
 4012              		.align	1
 4013              		.weak	HAL_TIMEx_CommutCallback
 4014              		.syntax unified
 4015              		.thumb
 4016              		.thumb_func
 4017              		.fpu fpv4-sp-d16
 4019              	HAL_TIMEx_CommutCallback:
 4020              	.LFB162:
1796:Drivers/STM32F4xx_HAL_Driver/Src/stm32f4xx_hal_tim_ex.c **** 
1797:Drivers/STM32F4xx_HAL_Driver/Src/stm32f4xx_hal_tim_ex.c **** /**
1798:Drivers/STM32F4xx_HAL_Driver/Src/stm32f4xx_hal_tim_ex.c ****   * @}
1799:Drivers/STM32F4xx_HAL_Driver/Src/stm32f4xx_hal_tim_ex.c ****   */
1800:Drivers/STM32F4xx_HAL_Driver/Src/stm32f4xx_hal_tim_ex.c **** 
1801:Drivers/STM32F4xx_HAL_Driver/Src/stm32f4xx_hal_tim_ex.c **** /** @defgroup TIMEx_Exported_Functions_Group6 Extended Callbacks functions
1802:Drivers/STM32F4xx_HAL_Driver/Src/stm32f4xx_hal_tim_ex.c ****   * @brief    Extended Callbacks functions
ARM GAS  /tmp/ccilmNhL.s 			page 102


1803:Drivers/STM32F4xx_HAL_Driver/Src/stm32f4xx_hal_tim_ex.c ****   *
1804:Drivers/STM32F4xx_HAL_Driver/Src/stm32f4xx_hal_tim_ex.c **** @verbatim
1805:Drivers/STM32F4xx_HAL_Driver/Src/stm32f4xx_hal_tim_ex.c ****   ==============================================================================
1806:Drivers/STM32F4xx_HAL_Driver/Src/stm32f4xx_hal_tim_ex.c ****                     ##### Extended Callbacks functions #####
1807:Drivers/STM32F4xx_HAL_Driver/Src/stm32f4xx_hal_tim_ex.c ****   ==============================================================================
1808:Drivers/STM32F4xx_HAL_Driver/Src/stm32f4xx_hal_tim_ex.c ****   [..]
1809:Drivers/STM32F4xx_HAL_Driver/Src/stm32f4xx_hal_tim_ex.c ****     This section provides Extended TIM callback functions:
1810:Drivers/STM32F4xx_HAL_Driver/Src/stm32f4xx_hal_tim_ex.c ****     (+) Timer Commutation callback
1811:Drivers/STM32F4xx_HAL_Driver/Src/stm32f4xx_hal_tim_ex.c ****     (+) Timer Break callback
1812:Drivers/STM32F4xx_HAL_Driver/Src/stm32f4xx_hal_tim_ex.c **** 
1813:Drivers/STM32F4xx_HAL_Driver/Src/stm32f4xx_hal_tim_ex.c **** @endverbatim
1814:Drivers/STM32F4xx_HAL_Driver/Src/stm32f4xx_hal_tim_ex.c ****   * @{
1815:Drivers/STM32F4xx_HAL_Driver/Src/stm32f4xx_hal_tim_ex.c ****   */
1816:Drivers/STM32F4xx_HAL_Driver/Src/stm32f4xx_hal_tim_ex.c **** 
1817:Drivers/STM32F4xx_HAL_Driver/Src/stm32f4xx_hal_tim_ex.c **** /**
1818:Drivers/STM32F4xx_HAL_Driver/Src/stm32f4xx_hal_tim_ex.c ****   * @brief  Hall commutation changed callback in non-blocking mode
1819:Drivers/STM32F4xx_HAL_Driver/Src/stm32f4xx_hal_tim_ex.c ****   * @param  htim TIM handle
1820:Drivers/STM32F4xx_HAL_Driver/Src/stm32f4xx_hal_tim_ex.c ****   * @retval None
1821:Drivers/STM32F4xx_HAL_Driver/Src/stm32f4xx_hal_tim_ex.c ****   */
1822:Drivers/STM32F4xx_HAL_Driver/Src/stm32f4xx_hal_tim_ex.c **** __weak void HAL_TIMEx_CommutCallback(TIM_HandleTypeDef *htim)
1823:Drivers/STM32F4xx_HAL_Driver/Src/stm32f4xx_hal_tim_ex.c **** {
 4021              		.loc 1 1823 1
 4022              		.cfi_startproc
 4023              		@ args = 0, pretend = 0, frame = 8
 4024              		@ frame_needed = 1, uses_anonymous_args = 0
 4025              		@ link register save eliminated.
 4026 0000 80B4     		push	{r7}
 4027              	.LCFI168:
 4028              		.cfi_def_cfa_offset 4
 4029              		.cfi_offset 7, -4
 4030 0002 83B0     		sub	sp, sp, #12
 4031              	.LCFI169:
 4032              		.cfi_def_cfa_offset 16
 4033 0004 00AF     		add	r7, sp, #0
 4034              	.LCFI170:
 4035              		.cfi_def_cfa_register 7
 4036 0006 7860     		str	r0, [r7, #4]
1824:Drivers/STM32F4xx_HAL_Driver/Src/stm32f4xx_hal_tim_ex.c ****   /* Prevent unused argument(s) compilation warning */
1825:Drivers/STM32F4xx_HAL_Driver/Src/stm32f4xx_hal_tim_ex.c ****   UNUSED(htim);
1826:Drivers/STM32F4xx_HAL_Driver/Src/stm32f4xx_hal_tim_ex.c **** 
1827:Drivers/STM32F4xx_HAL_Driver/Src/stm32f4xx_hal_tim_ex.c ****   /* NOTE : This function should not be modified, when the callback is needed,
1828:Drivers/STM32F4xx_HAL_Driver/Src/stm32f4xx_hal_tim_ex.c ****             the HAL_TIMEx_CommutCallback could be implemented in the user file
1829:Drivers/STM32F4xx_HAL_Driver/Src/stm32f4xx_hal_tim_ex.c ****    */
1830:Drivers/STM32F4xx_HAL_Driver/Src/stm32f4xx_hal_tim_ex.c **** }
 4037              		.loc 1 1830 1
 4038 0008 00BF     		nop
 4039 000a 0C37     		adds	r7, r7, #12
 4040              	.LCFI171:
 4041              		.cfi_def_cfa_offset 4
 4042 000c BD46     		mov	sp, r7
 4043              	.LCFI172:
 4044              		.cfi_def_cfa_register 13
 4045              		@ sp needed
 4046 000e 5DF8047B 		ldr	r7, [sp], #4
 4047              	.LCFI173:
 4048              		.cfi_restore 7
 4049              		.cfi_def_cfa_offset 0
ARM GAS  /tmp/ccilmNhL.s 			page 103


 4050 0012 7047     		bx	lr
 4051              		.cfi_endproc
 4052              	.LFE162:
 4054              		.section	.text.HAL_TIMEx_CommutHalfCpltCallback,"ax",%progbits
 4055              		.align	1
 4056              		.weak	HAL_TIMEx_CommutHalfCpltCallback
 4057              		.syntax unified
 4058              		.thumb
 4059              		.thumb_func
 4060              		.fpu fpv4-sp-d16
 4062              	HAL_TIMEx_CommutHalfCpltCallback:
 4063              	.LFB163:
1831:Drivers/STM32F4xx_HAL_Driver/Src/stm32f4xx_hal_tim_ex.c **** /**
1832:Drivers/STM32F4xx_HAL_Driver/Src/stm32f4xx_hal_tim_ex.c ****   * @brief  Hall commutation changed half complete callback in non-blocking mode
1833:Drivers/STM32F4xx_HAL_Driver/Src/stm32f4xx_hal_tim_ex.c ****   * @param  htim TIM handle
1834:Drivers/STM32F4xx_HAL_Driver/Src/stm32f4xx_hal_tim_ex.c ****   * @retval None
1835:Drivers/STM32F4xx_HAL_Driver/Src/stm32f4xx_hal_tim_ex.c ****   */
1836:Drivers/STM32F4xx_HAL_Driver/Src/stm32f4xx_hal_tim_ex.c **** __weak void HAL_TIMEx_CommutHalfCpltCallback(TIM_HandleTypeDef *htim)
1837:Drivers/STM32F4xx_HAL_Driver/Src/stm32f4xx_hal_tim_ex.c **** {
 4064              		.loc 1 1837 1
 4065              		.cfi_startproc
 4066              		@ args = 0, pretend = 0, frame = 8
 4067              		@ frame_needed = 1, uses_anonymous_args = 0
 4068              		@ link register save eliminated.
 4069 0000 80B4     		push	{r7}
 4070              	.LCFI174:
 4071              		.cfi_def_cfa_offset 4
 4072              		.cfi_offset 7, -4
 4073 0002 83B0     		sub	sp, sp, #12
 4074              	.LCFI175:
 4075              		.cfi_def_cfa_offset 16
 4076 0004 00AF     		add	r7, sp, #0
 4077              	.LCFI176:
 4078              		.cfi_def_cfa_register 7
 4079 0006 7860     		str	r0, [r7, #4]
1838:Drivers/STM32F4xx_HAL_Driver/Src/stm32f4xx_hal_tim_ex.c ****   /* Prevent unused argument(s) compilation warning */
1839:Drivers/STM32F4xx_HAL_Driver/Src/stm32f4xx_hal_tim_ex.c ****   UNUSED(htim);
1840:Drivers/STM32F4xx_HAL_Driver/Src/stm32f4xx_hal_tim_ex.c **** 
1841:Drivers/STM32F4xx_HAL_Driver/Src/stm32f4xx_hal_tim_ex.c ****   /* NOTE : This function should not be modified, when the callback is needed,
1842:Drivers/STM32F4xx_HAL_Driver/Src/stm32f4xx_hal_tim_ex.c ****             the HAL_TIMEx_CommutHalfCpltCallback could be implemented in the user file
1843:Drivers/STM32F4xx_HAL_Driver/Src/stm32f4xx_hal_tim_ex.c ****    */
1844:Drivers/STM32F4xx_HAL_Driver/Src/stm32f4xx_hal_tim_ex.c **** }
 4080              		.loc 1 1844 1
 4081 0008 00BF     		nop
 4082 000a 0C37     		adds	r7, r7, #12
 4083              	.LCFI177:
 4084              		.cfi_def_cfa_offset 4
 4085 000c BD46     		mov	sp, r7
 4086              	.LCFI178:
 4087              		.cfi_def_cfa_register 13
 4088              		@ sp needed
 4089 000e 5DF8047B 		ldr	r7, [sp], #4
 4090              	.LCFI179:
 4091              		.cfi_restore 7
 4092              		.cfi_def_cfa_offset 0
 4093 0012 7047     		bx	lr
 4094              		.cfi_endproc
ARM GAS  /tmp/ccilmNhL.s 			page 104


 4095              	.LFE163:
 4097              		.section	.text.HAL_TIMEx_BreakCallback,"ax",%progbits
 4098              		.align	1
 4099              		.weak	HAL_TIMEx_BreakCallback
 4100              		.syntax unified
 4101              		.thumb
 4102              		.thumb_func
 4103              		.fpu fpv4-sp-d16
 4105              	HAL_TIMEx_BreakCallback:
 4106              	.LFB164:
1845:Drivers/STM32F4xx_HAL_Driver/Src/stm32f4xx_hal_tim_ex.c **** 
1846:Drivers/STM32F4xx_HAL_Driver/Src/stm32f4xx_hal_tim_ex.c **** /**
1847:Drivers/STM32F4xx_HAL_Driver/Src/stm32f4xx_hal_tim_ex.c ****   * @brief  Hall Break detection callback in non-blocking mode
1848:Drivers/STM32F4xx_HAL_Driver/Src/stm32f4xx_hal_tim_ex.c ****   * @param  htim TIM handle
1849:Drivers/STM32F4xx_HAL_Driver/Src/stm32f4xx_hal_tim_ex.c ****   * @retval None
1850:Drivers/STM32F4xx_HAL_Driver/Src/stm32f4xx_hal_tim_ex.c ****   */
1851:Drivers/STM32F4xx_HAL_Driver/Src/stm32f4xx_hal_tim_ex.c **** __weak void HAL_TIMEx_BreakCallback(TIM_HandleTypeDef *htim)
1852:Drivers/STM32F4xx_HAL_Driver/Src/stm32f4xx_hal_tim_ex.c **** {
 4107              		.loc 1 1852 1
 4108              		.cfi_startproc
 4109              		@ args = 0, pretend = 0, frame = 8
 4110              		@ frame_needed = 1, uses_anonymous_args = 0
 4111              		@ link register save eliminated.
 4112 0000 80B4     		push	{r7}
 4113              	.LCFI180:
 4114              		.cfi_def_cfa_offset 4
 4115              		.cfi_offset 7, -4
 4116 0002 83B0     		sub	sp, sp, #12
 4117              	.LCFI181:
 4118              		.cfi_def_cfa_offset 16
 4119 0004 00AF     		add	r7, sp, #0
 4120              	.LCFI182:
 4121              		.cfi_def_cfa_register 7
 4122 0006 7860     		str	r0, [r7, #4]
1853:Drivers/STM32F4xx_HAL_Driver/Src/stm32f4xx_hal_tim_ex.c ****   /* Prevent unused argument(s) compilation warning */
1854:Drivers/STM32F4xx_HAL_Driver/Src/stm32f4xx_hal_tim_ex.c ****   UNUSED(htim);
1855:Drivers/STM32F4xx_HAL_Driver/Src/stm32f4xx_hal_tim_ex.c **** 
1856:Drivers/STM32F4xx_HAL_Driver/Src/stm32f4xx_hal_tim_ex.c ****   /* NOTE : This function should not be modified, when the callback is needed,
1857:Drivers/STM32F4xx_HAL_Driver/Src/stm32f4xx_hal_tim_ex.c ****             the HAL_TIMEx_BreakCallback could be implemented in the user file
1858:Drivers/STM32F4xx_HAL_Driver/Src/stm32f4xx_hal_tim_ex.c ****    */
1859:Drivers/STM32F4xx_HAL_Driver/Src/stm32f4xx_hal_tim_ex.c **** }
 4123              		.loc 1 1859 1
 4124 0008 00BF     		nop
 4125 000a 0C37     		adds	r7, r7, #12
 4126              	.LCFI183:
 4127              		.cfi_def_cfa_offset 4
 4128 000c BD46     		mov	sp, r7
 4129              	.LCFI184:
 4130              		.cfi_def_cfa_register 13
 4131              		@ sp needed
 4132 000e 5DF8047B 		ldr	r7, [sp], #4
 4133              	.LCFI185:
 4134              		.cfi_restore 7
 4135              		.cfi_def_cfa_offset 0
 4136 0012 7047     		bx	lr
 4137              		.cfi_endproc
 4138              	.LFE164:
ARM GAS  /tmp/ccilmNhL.s 			page 105


 4140              		.section	.text.HAL_TIMEx_HallSensor_GetState,"ax",%progbits
 4141              		.align	1
 4142              		.global	HAL_TIMEx_HallSensor_GetState
 4143              		.syntax unified
 4144              		.thumb
 4145              		.thumb_func
 4146              		.fpu fpv4-sp-d16
 4148              	HAL_TIMEx_HallSensor_GetState:
 4149              	.LFB165:
1860:Drivers/STM32F4xx_HAL_Driver/Src/stm32f4xx_hal_tim_ex.c **** /**
1861:Drivers/STM32F4xx_HAL_Driver/Src/stm32f4xx_hal_tim_ex.c ****   * @}
1862:Drivers/STM32F4xx_HAL_Driver/Src/stm32f4xx_hal_tim_ex.c ****   */
1863:Drivers/STM32F4xx_HAL_Driver/Src/stm32f4xx_hal_tim_ex.c **** 
1864:Drivers/STM32F4xx_HAL_Driver/Src/stm32f4xx_hal_tim_ex.c **** /** @defgroup TIMEx_Exported_Functions_Group7 Extended Peripheral State functions
1865:Drivers/STM32F4xx_HAL_Driver/Src/stm32f4xx_hal_tim_ex.c ****   * @brief    Extended Peripheral State functions
1866:Drivers/STM32F4xx_HAL_Driver/Src/stm32f4xx_hal_tim_ex.c ****   *
1867:Drivers/STM32F4xx_HAL_Driver/Src/stm32f4xx_hal_tim_ex.c **** @verbatim
1868:Drivers/STM32F4xx_HAL_Driver/Src/stm32f4xx_hal_tim_ex.c ****   ==============================================================================
1869:Drivers/STM32F4xx_HAL_Driver/Src/stm32f4xx_hal_tim_ex.c ****                 ##### Extended Peripheral State functions #####
1870:Drivers/STM32F4xx_HAL_Driver/Src/stm32f4xx_hal_tim_ex.c ****   ==============================================================================
1871:Drivers/STM32F4xx_HAL_Driver/Src/stm32f4xx_hal_tim_ex.c ****   [..]
1872:Drivers/STM32F4xx_HAL_Driver/Src/stm32f4xx_hal_tim_ex.c ****     This subsection permits to get in run-time the status of the peripheral
1873:Drivers/STM32F4xx_HAL_Driver/Src/stm32f4xx_hal_tim_ex.c ****     and the data flow.
1874:Drivers/STM32F4xx_HAL_Driver/Src/stm32f4xx_hal_tim_ex.c **** 
1875:Drivers/STM32F4xx_HAL_Driver/Src/stm32f4xx_hal_tim_ex.c **** @endverbatim
1876:Drivers/STM32F4xx_HAL_Driver/Src/stm32f4xx_hal_tim_ex.c ****   * @{
1877:Drivers/STM32F4xx_HAL_Driver/Src/stm32f4xx_hal_tim_ex.c ****   */
1878:Drivers/STM32F4xx_HAL_Driver/Src/stm32f4xx_hal_tim_ex.c **** 
1879:Drivers/STM32F4xx_HAL_Driver/Src/stm32f4xx_hal_tim_ex.c **** /**
1880:Drivers/STM32F4xx_HAL_Driver/Src/stm32f4xx_hal_tim_ex.c ****   * @brief  Return the TIM Hall Sensor interface handle state.
1881:Drivers/STM32F4xx_HAL_Driver/Src/stm32f4xx_hal_tim_ex.c ****   * @param  htim TIM Hall Sensor handle
1882:Drivers/STM32F4xx_HAL_Driver/Src/stm32f4xx_hal_tim_ex.c ****   * @retval HAL state
1883:Drivers/STM32F4xx_HAL_Driver/Src/stm32f4xx_hal_tim_ex.c ****   */
1884:Drivers/STM32F4xx_HAL_Driver/Src/stm32f4xx_hal_tim_ex.c **** HAL_TIM_StateTypeDef HAL_TIMEx_HallSensor_GetState(TIM_HandleTypeDef *htim)
1885:Drivers/STM32F4xx_HAL_Driver/Src/stm32f4xx_hal_tim_ex.c **** {
 4150              		.loc 1 1885 1
 4151              		.cfi_startproc
 4152              		@ args = 0, pretend = 0, frame = 8
 4153              		@ frame_needed = 1, uses_anonymous_args = 0
 4154              		@ link register save eliminated.
 4155 0000 80B4     		push	{r7}
 4156              	.LCFI186:
 4157              		.cfi_def_cfa_offset 4
 4158              		.cfi_offset 7, -4
 4159 0002 83B0     		sub	sp, sp, #12
 4160              	.LCFI187:
 4161              		.cfi_def_cfa_offset 16
 4162 0004 00AF     		add	r7, sp, #0
 4163              	.LCFI188:
 4164              		.cfi_def_cfa_register 7
 4165 0006 7860     		str	r0, [r7, #4]
1886:Drivers/STM32F4xx_HAL_Driver/Src/stm32f4xx_hal_tim_ex.c ****   return htim->State;
 4166              		.loc 1 1886 14
 4167 0008 7B68     		ldr	r3, [r7, #4]
 4168 000a 93F83D30 		ldrb	r3, [r3, #61]
 4169 000e DBB2     		uxtb	r3, r3
1887:Drivers/STM32F4xx_HAL_Driver/Src/stm32f4xx_hal_tim_ex.c **** }
ARM GAS  /tmp/ccilmNhL.s 			page 106


 4170              		.loc 1 1887 1
 4171 0010 1846     		mov	r0, r3
 4172 0012 0C37     		adds	r7, r7, #12
 4173              	.LCFI189:
 4174              		.cfi_def_cfa_offset 4
 4175 0014 BD46     		mov	sp, r7
 4176              	.LCFI190:
 4177              		.cfi_def_cfa_register 13
 4178              		@ sp needed
 4179 0016 5DF8047B 		ldr	r7, [sp], #4
 4180              	.LCFI191:
 4181              		.cfi_restore 7
 4182              		.cfi_def_cfa_offset 0
 4183 001a 7047     		bx	lr
 4184              		.cfi_endproc
 4185              	.LFE165:
 4187              		.section	.text.TIMEx_DMACommutationCplt,"ax",%progbits
 4188              		.align	1
 4189              		.global	TIMEx_DMACommutationCplt
 4190              		.syntax unified
 4191              		.thumb
 4192              		.thumb_func
 4193              		.fpu fpv4-sp-d16
 4195              	TIMEx_DMACommutationCplt:
 4196              	.LFB166:
1888:Drivers/STM32F4xx_HAL_Driver/Src/stm32f4xx_hal_tim_ex.c **** 
1889:Drivers/STM32F4xx_HAL_Driver/Src/stm32f4xx_hal_tim_ex.c **** /**
1890:Drivers/STM32F4xx_HAL_Driver/Src/stm32f4xx_hal_tim_ex.c ****   * @}
1891:Drivers/STM32F4xx_HAL_Driver/Src/stm32f4xx_hal_tim_ex.c ****   */
1892:Drivers/STM32F4xx_HAL_Driver/Src/stm32f4xx_hal_tim_ex.c **** 
1893:Drivers/STM32F4xx_HAL_Driver/Src/stm32f4xx_hal_tim_ex.c **** /**
1894:Drivers/STM32F4xx_HAL_Driver/Src/stm32f4xx_hal_tim_ex.c ****   * @}
1895:Drivers/STM32F4xx_HAL_Driver/Src/stm32f4xx_hal_tim_ex.c ****   */
1896:Drivers/STM32F4xx_HAL_Driver/Src/stm32f4xx_hal_tim_ex.c **** 
1897:Drivers/STM32F4xx_HAL_Driver/Src/stm32f4xx_hal_tim_ex.c **** /* Private functions ---------------------------------------------------------*/
1898:Drivers/STM32F4xx_HAL_Driver/Src/stm32f4xx_hal_tim_ex.c **** /** @defgroup TIMEx_Private_Functions TIMEx Private Functions
1899:Drivers/STM32F4xx_HAL_Driver/Src/stm32f4xx_hal_tim_ex.c ****   * @{
1900:Drivers/STM32F4xx_HAL_Driver/Src/stm32f4xx_hal_tim_ex.c ****   */
1901:Drivers/STM32F4xx_HAL_Driver/Src/stm32f4xx_hal_tim_ex.c **** 
1902:Drivers/STM32F4xx_HAL_Driver/Src/stm32f4xx_hal_tim_ex.c **** /**
1903:Drivers/STM32F4xx_HAL_Driver/Src/stm32f4xx_hal_tim_ex.c ****   * @brief  TIM DMA Commutation callback.
1904:Drivers/STM32F4xx_HAL_Driver/Src/stm32f4xx_hal_tim_ex.c ****   * @param  hdma pointer to DMA handle.
1905:Drivers/STM32F4xx_HAL_Driver/Src/stm32f4xx_hal_tim_ex.c ****   * @retval None
1906:Drivers/STM32F4xx_HAL_Driver/Src/stm32f4xx_hal_tim_ex.c ****   */
1907:Drivers/STM32F4xx_HAL_Driver/Src/stm32f4xx_hal_tim_ex.c **** void TIMEx_DMACommutationCplt(DMA_HandleTypeDef *hdma)
1908:Drivers/STM32F4xx_HAL_Driver/Src/stm32f4xx_hal_tim_ex.c **** {
 4197              		.loc 1 1908 1
 4198              		.cfi_startproc
 4199              		@ args = 0, pretend = 0, frame = 16
 4200              		@ frame_needed = 1, uses_anonymous_args = 0
 4201 0000 80B5     		push	{r7, lr}
 4202              	.LCFI192:
 4203              		.cfi_def_cfa_offset 8
 4204              		.cfi_offset 7, -8
 4205              		.cfi_offset 14, -4
 4206 0002 84B0     		sub	sp, sp, #16
 4207              	.LCFI193:
ARM GAS  /tmp/ccilmNhL.s 			page 107


 4208              		.cfi_def_cfa_offset 24
 4209 0004 00AF     		add	r7, sp, #0
 4210              	.LCFI194:
 4211              		.cfi_def_cfa_register 7
 4212 0006 7860     		str	r0, [r7, #4]
1909:Drivers/STM32F4xx_HAL_Driver/Src/stm32f4xx_hal_tim_ex.c ****   TIM_HandleTypeDef *htim = (TIM_HandleTypeDef *)((DMA_HandleTypeDef *)hdma)->Parent;
 4213              		.loc 1 1909 22
 4214 0008 7B68     		ldr	r3, [r7, #4]
 4215 000a 9B6B     		ldr	r3, [r3, #56]
 4216 000c FB60     		str	r3, [r7, #12]
1910:Drivers/STM32F4xx_HAL_Driver/Src/stm32f4xx_hal_tim_ex.c **** 
1911:Drivers/STM32F4xx_HAL_Driver/Src/stm32f4xx_hal_tim_ex.c ****   /* Change the htim state */
1912:Drivers/STM32F4xx_HAL_Driver/Src/stm32f4xx_hal_tim_ex.c ****   htim->State = HAL_TIM_STATE_READY;
 4217              		.loc 1 1912 15
 4218 000e FB68     		ldr	r3, [r7, #12]
 4219 0010 0122     		movs	r2, #1
 4220 0012 83F83D20 		strb	r2, [r3, #61]
1913:Drivers/STM32F4xx_HAL_Driver/Src/stm32f4xx_hal_tim_ex.c **** 
1914:Drivers/STM32F4xx_HAL_Driver/Src/stm32f4xx_hal_tim_ex.c **** #if (USE_HAL_TIM_REGISTER_CALLBACKS == 1)
1915:Drivers/STM32F4xx_HAL_Driver/Src/stm32f4xx_hal_tim_ex.c ****   htim->CommutationCallback(htim);
1916:Drivers/STM32F4xx_HAL_Driver/Src/stm32f4xx_hal_tim_ex.c **** #else
1917:Drivers/STM32F4xx_HAL_Driver/Src/stm32f4xx_hal_tim_ex.c ****   HAL_TIMEx_CommutCallback(htim);
 4221              		.loc 1 1917 3
 4222 0016 F868     		ldr	r0, [r7, #12]
 4223 0018 FFF7FEFF 		bl	HAL_TIMEx_CommutCallback
1918:Drivers/STM32F4xx_HAL_Driver/Src/stm32f4xx_hal_tim_ex.c **** #endif /* USE_HAL_TIM_REGISTER_CALLBACKS */
1919:Drivers/STM32F4xx_HAL_Driver/Src/stm32f4xx_hal_tim_ex.c **** }
 4224              		.loc 1 1919 1
 4225 001c 00BF     		nop
 4226 001e 1037     		adds	r7, r7, #16
 4227              	.LCFI195:
 4228              		.cfi_def_cfa_offset 8
 4229 0020 BD46     		mov	sp, r7
 4230              	.LCFI196:
 4231              		.cfi_def_cfa_register 13
 4232              		@ sp needed
 4233 0022 80BD     		pop	{r7, pc}
 4234              		.cfi_endproc
 4235              	.LFE166:
 4237              		.section	.text.TIMEx_DMACommutationHalfCplt,"ax",%progbits
 4238              		.align	1
 4239              		.global	TIMEx_DMACommutationHalfCplt
 4240              		.syntax unified
 4241              		.thumb
 4242              		.thumb_func
 4243              		.fpu fpv4-sp-d16
 4245              	TIMEx_DMACommutationHalfCplt:
 4246              	.LFB167:
1920:Drivers/STM32F4xx_HAL_Driver/Src/stm32f4xx_hal_tim_ex.c **** 
1921:Drivers/STM32F4xx_HAL_Driver/Src/stm32f4xx_hal_tim_ex.c **** /**
1922:Drivers/STM32F4xx_HAL_Driver/Src/stm32f4xx_hal_tim_ex.c ****   * @brief  TIM DMA Commutation half complete callback.
1923:Drivers/STM32F4xx_HAL_Driver/Src/stm32f4xx_hal_tim_ex.c ****   * @param  hdma pointer to DMA handle.
1924:Drivers/STM32F4xx_HAL_Driver/Src/stm32f4xx_hal_tim_ex.c ****   * @retval None
1925:Drivers/STM32F4xx_HAL_Driver/Src/stm32f4xx_hal_tim_ex.c ****   */
1926:Drivers/STM32F4xx_HAL_Driver/Src/stm32f4xx_hal_tim_ex.c **** void TIMEx_DMACommutationHalfCplt(DMA_HandleTypeDef *hdma)
1927:Drivers/STM32F4xx_HAL_Driver/Src/stm32f4xx_hal_tim_ex.c **** {
 4247              		.loc 1 1927 1
ARM GAS  /tmp/ccilmNhL.s 			page 108


 4248              		.cfi_startproc
 4249              		@ args = 0, pretend = 0, frame = 16
 4250              		@ frame_needed = 1, uses_anonymous_args = 0
 4251 0000 80B5     		push	{r7, lr}
 4252              	.LCFI197:
 4253              		.cfi_def_cfa_offset 8
 4254              		.cfi_offset 7, -8
 4255              		.cfi_offset 14, -4
 4256 0002 84B0     		sub	sp, sp, #16
 4257              	.LCFI198:
 4258              		.cfi_def_cfa_offset 24
 4259 0004 00AF     		add	r7, sp, #0
 4260              	.LCFI199:
 4261              		.cfi_def_cfa_register 7
 4262 0006 7860     		str	r0, [r7, #4]
1928:Drivers/STM32F4xx_HAL_Driver/Src/stm32f4xx_hal_tim_ex.c ****   TIM_HandleTypeDef *htim = (TIM_HandleTypeDef *)((DMA_HandleTypeDef *)hdma)->Parent;
 4263              		.loc 1 1928 22
 4264 0008 7B68     		ldr	r3, [r7, #4]
 4265 000a 9B6B     		ldr	r3, [r3, #56]
 4266 000c FB60     		str	r3, [r7, #12]
1929:Drivers/STM32F4xx_HAL_Driver/Src/stm32f4xx_hal_tim_ex.c **** 
1930:Drivers/STM32F4xx_HAL_Driver/Src/stm32f4xx_hal_tim_ex.c ****   /* Change the htim state */
1931:Drivers/STM32F4xx_HAL_Driver/Src/stm32f4xx_hal_tim_ex.c ****   htim->State = HAL_TIM_STATE_READY;
 4267              		.loc 1 1931 15
 4268 000e FB68     		ldr	r3, [r7, #12]
 4269 0010 0122     		movs	r2, #1
 4270 0012 83F83D20 		strb	r2, [r3, #61]
1932:Drivers/STM32F4xx_HAL_Driver/Src/stm32f4xx_hal_tim_ex.c **** 
1933:Drivers/STM32F4xx_HAL_Driver/Src/stm32f4xx_hal_tim_ex.c **** #if (USE_HAL_TIM_REGISTER_CALLBACKS == 1)
1934:Drivers/STM32F4xx_HAL_Driver/Src/stm32f4xx_hal_tim_ex.c ****   htim->CommutationHalfCpltCallback(htim);
1935:Drivers/STM32F4xx_HAL_Driver/Src/stm32f4xx_hal_tim_ex.c **** #else
1936:Drivers/STM32F4xx_HAL_Driver/Src/stm32f4xx_hal_tim_ex.c ****   HAL_TIMEx_CommutHalfCpltCallback(htim);
 4271              		.loc 1 1936 3
 4272 0016 F868     		ldr	r0, [r7, #12]
 4273 0018 FFF7FEFF 		bl	HAL_TIMEx_CommutHalfCpltCallback
1937:Drivers/STM32F4xx_HAL_Driver/Src/stm32f4xx_hal_tim_ex.c **** #endif /* USE_HAL_TIM_REGISTER_CALLBACKS */
1938:Drivers/STM32F4xx_HAL_Driver/Src/stm32f4xx_hal_tim_ex.c **** }
 4274              		.loc 1 1938 1
 4275 001c 00BF     		nop
 4276 001e 1037     		adds	r7, r7, #16
 4277              	.LCFI200:
 4278              		.cfi_def_cfa_offset 8
 4279 0020 BD46     		mov	sp, r7
 4280              	.LCFI201:
 4281              		.cfi_def_cfa_register 13
 4282              		@ sp needed
 4283 0022 80BD     		pop	{r7, pc}
 4284              		.cfi_endproc
 4285              	.LFE167:
 4287              		.section	.text.TIM_CCxNChannelCmd,"ax",%progbits
 4288              		.align	1
 4289              		.syntax unified
 4290              		.thumb
 4291              		.thumb_func
 4292              		.fpu fpv4-sp-d16
 4294              	TIM_CCxNChannelCmd:
 4295              	.LFB168:
ARM GAS  /tmp/ccilmNhL.s 			page 109


1939:Drivers/STM32F4xx_HAL_Driver/Src/stm32f4xx_hal_tim_ex.c **** 
1940:Drivers/STM32F4xx_HAL_Driver/Src/stm32f4xx_hal_tim_ex.c **** 
1941:Drivers/STM32F4xx_HAL_Driver/Src/stm32f4xx_hal_tim_ex.c **** /**
1942:Drivers/STM32F4xx_HAL_Driver/Src/stm32f4xx_hal_tim_ex.c ****   * @brief  Enables or disables the TIM Capture Compare Channel xN.
1943:Drivers/STM32F4xx_HAL_Driver/Src/stm32f4xx_hal_tim_ex.c ****   * @param  TIMx to select the TIM peripheral
1944:Drivers/STM32F4xx_HAL_Driver/Src/stm32f4xx_hal_tim_ex.c ****   * @param  Channel specifies the TIM Channel
1945:Drivers/STM32F4xx_HAL_Driver/Src/stm32f4xx_hal_tim_ex.c ****   *          This parameter can be one of the following values:
1946:Drivers/STM32F4xx_HAL_Driver/Src/stm32f4xx_hal_tim_ex.c ****   *            @arg TIM_CHANNEL_1: TIM Channel 1
1947:Drivers/STM32F4xx_HAL_Driver/Src/stm32f4xx_hal_tim_ex.c ****   *            @arg TIM_CHANNEL_2: TIM Channel 2
1948:Drivers/STM32F4xx_HAL_Driver/Src/stm32f4xx_hal_tim_ex.c ****   *            @arg TIM_CHANNEL_3: TIM Channel 3
1949:Drivers/STM32F4xx_HAL_Driver/Src/stm32f4xx_hal_tim_ex.c ****   * @param  ChannelNState specifies the TIM Channel CCxNE bit new state.
1950:Drivers/STM32F4xx_HAL_Driver/Src/stm32f4xx_hal_tim_ex.c ****   *          This parameter can be: TIM_CCxN_ENABLE or TIM_CCxN_Disable.
1951:Drivers/STM32F4xx_HAL_Driver/Src/stm32f4xx_hal_tim_ex.c ****   * @retval None
1952:Drivers/STM32F4xx_HAL_Driver/Src/stm32f4xx_hal_tim_ex.c ****   */
1953:Drivers/STM32F4xx_HAL_Driver/Src/stm32f4xx_hal_tim_ex.c **** static void TIM_CCxNChannelCmd(TIM_TypeDef *TIMx, uint32_t Channel, uint32_t ChannelNState)
1954:Drivers/STM32F4xx_HAL_Driver/Src/stm32f4xx_hal_tim_ex.c **** {
 4296              		.loc 1 1954 1
 4297              		.cfi_startproc
 4298              		@ args = 0, pretend = 0, frame = 24
 4299              		@ frame_needed = 1, uses_anonymous_args = 0
 4300              		@ link register save eliminated.
 4301 0000 80B4     		push	{r7}
 4302              	.LCFI202:
 4303              		.cfi_def_cfa_offset 4
 4304              		.cfi_offset 7, -4
 4305 0002 87B0     		sub	sp, sp, #28
 4306              	.LCFI203:
 4307              		.cfi_def_cfa_offset 32
 4308 0004 00AF     		add	r7, sp, #0
 4309              	.LCFI204:
 4310              		.cfi_def_cfa_register 7
 4311 0006 F860     		str	r0, [r7, #12]
 4312 0008 B960     		str	r1, [r7, #8]
 4313 000a 7A60     		str	r2, [r7, #4]
1955:Drivers/STM32F4xx_HAL_Driver/Src/stm32f4xx_hal_tim_ex.c ****   uint32_t tmp;
1956:Drivers/STM32F4xx_HAL_Driver/Src/stm32f4xx_hal_tim_ex.c **** 
1957:Drivers/STM32F4xx_HAL_Driver/Src/stm32f4xx_hal_tim_ex.c ****   tmp = TIM_CCER_CC1NE << (Channel & 0x1FU); /* 0x1FU = 31 bits max shift */
 4314              		.loc 1 1957 36
 4315 000c BB68     		ldr	r3, [r7, #8]
 4316 000e 03F01F03 		and	r3, r3, #31
 4317              		.loc 1 1957 7
 4318 0012 0422     		movs	r2, #4
 4319 0014 02FA03F3 		lsl	r3, r2, r3
 4320 0018 7B61     		str	r3, [r7, #20]
1958:Drivers/STM32F4xx_HAL_Driver/Src/stm32f4xx_hal_tim_ex.c **** 
1959:Drivers/STM32F4xx_HAL_Driver/Src/stm32f4xx_hal_tim_ex.c ****   /* Reset the CCxNE Bit */
1960:Drivers/STM32F4xx_HAL_Driver/Src/stm32f4xx_hal_tim_ex.c ****   TIMx->CCER &=  ~tmp;
 4321              		.loc 1 1960 14
 4322 001a FB68     		ldr	r3, [r7, #12]
 4323 001c 1A6A     		ldr	r2, [r3, #32]
 4324              		.loc 1 1960 18
 4325 001e 7B69     		ldr	r3, [r7, #20]
 4326 0020 DB43     		mvns	r3, r3
 4327              		.loc 1 1960 14
 4328 0022 1A40     		ands	r2, r2, r3
 4329 0024 FB68     		ldr	r3, [r7, #12]
 4330 0026 1A62     		str	r2, [r3, #32]
ARM GAS  /tmp/ccilmNhL.s 			page 110


1961:Drivers/STM32F4xx_HAL_Driver/Src/stm32f4xx_hal_tim_ex.c **** 
1962:Drivers/STM32F4xx_HAL_Driver/Src/stm32f4xx_hal_tim_ex.c ****   /* Set or reset the CCxNE Bit */
1963:Drivers/STM32F4xx_HAL_Driver/Src/stm32f4xx_hal_tim_ex.c ****   TIMx->CCER |= (uint32_t)(ChannelNState << (Channel & 0x1FU)); /* 0x1FU = 31 bits max shift */
 4331              		.loc 1 1963 14
 4332 0028 FB68     		ldr	r3, [r7, #12]
 4333 002a 1A6A     		ldr	r2, [r3, #32]
 4334              		.loc 1 1963 54
 4335 002c BB68     		ldr	r3, [r7, #8]
 4336 002e 03F01F03 		and	r3, r3, #31
 4337              		.loc 1 1963 42
 4338 0032 7968     		ldr	r1, [r7, #4]
 4339 0034 01FA03F3 		lsl	r3, r1, r3
 4340              		.loc 1 1963 14
 4341 0038 1A43     		orrs	r2, r2, r3
 4342 003a FB68     		ldr	r3, [r7, #12]
 4343 003c 1A62     		str	r2, [r3, #32]
1964:Drivers/STM32F4xx_HAL_Driver/Src/stm32f4xx_hal_tim_ex.c **** }
 4344              		.loc 1 1964 1
 4345 003e 00BF     		nop
 4346 0040 1C37     		adds	r7, r7, #28
 4347              	.LCFI205:
 4348              		.cfi_def_cfa_offset 4
 4349 0042 BD46     		mov	sp, r7
 4350              	.LCFI206:
 4351              		.cfi_def_cfa_register 13
 4352              		@ sp needed
 4353 0044 5DF8047B 		ldr	r7, [sp], #4
 4354              	.LCFI207:
 4355              		.cfi_restore 7
 4356              		.cfi_def_cfa_offset 0
 4357 0048 7047     		bx	lr
 4358              		.cfi_endproc
 4359              	.LFE168:
 4361              		.text
 4362              	.Letext0:
 4363              		.file 2 "/home/mip-laptop/uros_frtos_ws/firmware/toolchain/arm-none-eabi/include/machine/_default_
 4364              		.file 3 "/home/mip-laptop/uros_frtos_ws/firmware/toolchain/arm-none-eabi/include/sys/_stdint.h"
 4365              		.file 4 "Drivers/CMSIS/Include/core_cm4.h"
 4366              		.file 5 "Drivers/CMSIS/Device/ST/STM32F4xx/Include/system_stm32f4xx.h"
 4367              		.file 6 "Drivers/CMSIS/Device/ST/STM32F4xx/Include/stm32f407xx.h"
 4368              		.file 7 "Drivers/CMSIS/Device/ST/STM32F4xx/Include/stm32f4xx.h"
 4369              		.file 8 "Drivers/STM32F4xx_HAL_Driver/Inc/stm32f4xx_hal_def.h"
 4370              		.file 9 "Drivers/STM32F4xx_HAL_Driver/Inc/stm32f4xx_hal_dma.h"
 4371              		.file 10 "Drivers/STM32F4xx_HAL_Driver/Inc/stm32f4xx_hal_tim.h"
 4372              		.file 11 "Drivers/STM32F4xx_HAL_Driver/Inc/stm32f4xx_hal_tim_ex.h"
 4373              		.file 12 "Drivers/STM32F4xx_HAL_Driver/Inc/stm32f4xx_hal.h"
ARM GAS  /tmp/ccilmNhL.s 			page 111


DEFINED SYMBOLS
                            *ABS*:0000000000000000 stm32f4xx_hal_tim_ex.c
     /tmp/ccilmNhL.s:18     .text.HAL_TIMEx_HallSensor_Init:0000000000000000 $t
     /tmp/ccilmNhL.s:26     .text.HAL_TIMEx_HallSensor_Init:0000000000000000 HAL_TIMEx_HallSensor_Init
     /tmp/ccilmNhL.s:331    .text.HAL_TIMEx_HallSensor_MspInit:0000000000000000 HAL_TIMEx_HallSensor_MspInit
     /tmp/ccilmNhL.s:243    .text.HAL_TIMEx_HallSensor_DeInit:0000000000000000 $t
     /tmp/ccilmNhL.s:250    .text.HAL_TIMEx_HallSensor_DeInit:0000000000000000 HAL_TIMEx_HallSensor_DeInit
     /tmp/ccilmNhL.s:374    .text.HAL_TIMEx_HallSensor_MspDeInit:0000000000000000 HAL_TIMEx_HallSensor_MspDeInit
     /tmp/ccilmNhL.s:324    .text.HAL_TIMEx_HallSensor_MspInit:0000000000000000 $t
     /tmp/ccilmNhL.s:367    .text.HAL_TIMEx_HallSensor_MspDeInit:0000000000000000 $t
     /tmp/ccilmNhL.s:410    .text.HAL_TIMEx_HallSensor_Start:0000000000000000 $t
     /tmp/ccilmNhL.s:417    .text.HAL_TIMEx_HallSensor_Start:0000000000000000 HAL_TIMEx_HallSensor_Start
     /tmp/ccilmNhL.s:479    .text.HAL_TIMEx_HallSensor_Stop:0000000000000000 $t
     /tmp/ccilmNhL.s:486    .text.HAL_TIMEx_HallSensor_Stop:0000000000000000 HAL_TIMEx_HallSensor_Stop
     /tmp/ccilmNhL.s:552    .text.HAL_TIMEx_HallSensor_Start_IT:0000000000000000 $t
     /tmp/ccilmNhL.s:559    .text.HAL_TIMEx_HallSensor_Start_IT:0000000000000000 HAL_TIMEx_HallSensor_Start_IT
     /tmp/ccilmNhL.s:629    .text.HAL_TIMEx_HallSensor_Stop_IT:0000000000000000 $t
     /tmp/ccilmNhL.s:636    .text.HAL_TIMEx_HallSensor_Stop_IT:0000000000000000 HAL_TIMEx_HallSensor_Stop_IT
     /tmp/ccilmNhL.s:710    .text.HAL_TIMEx_HallSensor_Start_DMA:0000000000000000 $t
     /tmp/ccilmNhL.s:717    .text.HAL_TIMEx_HallSensor_Start_DMA:0000000000000000 HAL_TIMEx_HallSensor_Start_DMA
     /tmp/ccilmNhL.s:864    .text.HAL_TIMEx_HallSensor_Start_DMA:00000000000000c4 $d
     /tmp/ccilmNhL.s:871    .text.HAL_TIMEx_HallSensor_Stop_DMA:0000000000000000 $t
     /tmp/ccilmNhL.s:878    .text.HAL_TIMEx_HallSensor_Stop_DMA:0000000000000000 HAL_TIMEx_HallSensor_Stop_DMA
     /tmp/ccilmNhL.s:957    .text.HAL_TIMEx_OCN_Start:0000000000000000 $t
     /tmp/ccilmNhL.s:964    .text.HAL_TIMEx_OCN_Start:0000000000000000 HAL_TIMEx_OCN_Start
     /tmp/ccilmNhL.s:4294   .text.TIM_CCxNChannelCmd:0000000000000000 TIM_CCxNChannelCmd
     /tmp/ccilmNhL.s:1035   .text.HAL_TIMEx_OCN_Stop:0000000000000000 $t
     /tmp/ccilmNhL.s:1042   .text.HAL_TIMEx_OCN_Stop:0000000000000000 HAL_TIMEx_OCN_Stop
     /tmp/ccilmNhL.s:1134   .text.HAL_TIMEx_OCN_Start_IT:0000000000000000 $t
     /tmp/ccilmNhL.s:1141   .text.HAL_TIMEx_OCN_Start_IT:0000000000000000 HAL_TIMEx_OCN_Start_IT
     /tmp/ccilmNhL.s:1266   .text.HAL_TIMEx_OCN_Stop_IT:0000000000000000 $t
     /tmp/ccilmNhL.s:1273   .text.HAL_TIMEx_OCN_Stop_IT:0000000000000000 HAL_TIMEx_OCN_Stop_IT
     /tmp/ccilmNhL.s:1433   .text.HAL_TIMEx_OCN_Start_DMA:0000000000000000 $t
     /tmp/ccilmNhL.s:1440   .text.HAL_TIMEx_OCN_Start_DMA:0000000000000000 HAL_TIMEx_OCN_Start_DMA
     /tmp/ccilmNhL.s:1711   .text.HAL_TIMEx_OCN_Start_DMA:0000000000000178 $d
     /tmp/ccilmNhL.s:1718   .text.HAL_TIMEx_OCN_Stop_DMA:0000000000000000 $t
     /tmp/ccilmNhL.s:1725   .text.HAL_TIMEx_OCN_Stop_DMA:0000000000000000 HAL_TIMEx_OCN_Stop_DMA
     /tmp/ccilmNhL.s:1882   .text.HAL_TIMEx_PWMN_Start:0000000000000000 $t
     /tmp/ccilmNhL.s:1889   .text.HAL_TIMEx_PWMN_Start:0000000000000000 HAL_TIMEx_PWMN_Start
     /tmp/ccilmNhL.s:1960   .text.HAL_TIMEx_PWMN_Stop:0000000000000000 $t
     /tmp/ccilmNhL.s:1967   .text.HAL_TIMEx_PWMN_Stop:0000000000000000 HAL_TIMEx_PWMN_Stop
     /tmp/ccilmNhL.s:2059   .text.HAL_TIMEx_PWMN_Start_IT:0000000000000000 $t
     /tmp/ccilmNhL.s:2066   .text.HAL_TIMEx_PWMN_Start_IT:0000000000000000 HAL_TIMEx_PWMN_Start_IT
     /tmp/ccilmNhL.s:2191   .text.HAL_TIMEx_PWMN_Stop_IT:0000000000000000 $t
     /tmp/ccilmNhL.s:2198   .text.HAL_TIMEx_PWMN_Stop_IT:0000000000000000 HAL_TIMEx_PWMN_Stop_IT
     /tmp/ccilmNhL.s:2358   .text.HAL_TIMEx_PWMN_Start_DMA:0000000000000000 $t
     /tmp/ccilmNhL.s:2365   .text.HAL_TIMEx_PWMN_Start_DMA:0000000000000000 HAL_TIMEx_PWMN_Start_DMA
     /tmp/ccilmNhL.s:2636   .text.HAL_TIMEx_PWMN_Start_DMA:0000000000000178 $d
     /tmp/ccilmNhL.s:2643   .text.HAL_TIMEx_PWMN_Stop_DMA:0000000000000000 $t
     /tmp/ccilmNhL.s:2650   .text.HAL_TIMEx_PWMN_Stop_DMA:0000000000000000 HAL_TIMEx_PWMN_Stop_DMA
     /tmp/ccilmNhL.s:2807   .text.HAL_TIMEx_OnePulseN_Start:0000000000000000 $t
     /tmp/ccilmNhL.s:2814   .text.HAL_TIMEx_OnePulseN_Start:0000000000000000 HAL_TIMEx_OnePulseN_Start
     /tmp/ccilmNhL.s:2864   .text.HAL_TIMEx_OnePulseN_Stop:0000000000000000 $t
     /tmp/ccilmNhL.s:2871   .text.HAL_TIMEx_OnePulseN_Stop:0000000000000000 HAL_TIMEx_OnePulseN_Stop
     /tmp/ccilmNhL.s:2963   .text.HAL_TIMEx_OnePulseN_Start_IT:0000000000000000 $t
     /tmp/ccilmNhL.s:2970   .text.HAL_TIMEx_OnePulseN_Start_IT:0000000000000000 HAL_TIMEx_OnePulseN_Start_IT
     /tmp/ccilmNhL.s:3036   .text.HAL_TIMEx_OnePulseN_Stop_IT:0000000000000000 $t
ARM GAS  /tmp/ccilmNhL.s 			page 112


     /tmp/ccilmNhL.s:3043   .text.HAL_TIMEx_OnePulseN_Stop_IT:0000000000000000 HAL_TIMEx_OnePulseN_Stop_IT
     /tmp/ccilmNhL.s:3151   .text.HAL_TIMEx_ConfigCommutEvent:0000000000000000 $t
     /tmp/ccilmNhL.s:3158   .text.HAL_TIMEx_ConfigCommutEvent:0000000000000000 HAL_TIMEx_ConfigCommutEvent
     /tmp/ccilmNhL.s:3307   .text.HAL_TIMEx_ConfigCommutEvent_IT:0000000000000000 $t
     /tmp/ccilmNhL.s:3314   .text.HAL_TIMEx_ConfigCommutEvent_IT:0000000000000000 HAL_TIMEx_ConfigCommutEvent_IT
     /tmp/ccilmNhL.s:3463   .text.HAL_TIMEx_ConfigCommutEvent_DMA:0000000000000000 $t
     /tmp/ccilmNhL.s:3470   .text.HAL_TIMEx_ConfigCommutEvent_DMA:0000000000000000 HAL_TIMEx_ConfigCommutEvent_DMA
     /tmp/ccilmNhL.s:3636   .text.HAL_TIMEx_ConfigCommutEvent_DMA:00000000000000d8 $d
     /tmp/ccilmNhL.s:4195   .text.TIMEx_DMACommutationCplt:0000000000000000 TIMEx_DMACommutationCplt
     /tmp/ccilmNhL.s:4245   .text.TIMEx_DMACommutationHalfCplt:0000000000000000 TIMEx_DMACommutationHalfCplt
     /tmp/ccilmNhL.s:3643   .text.HAL_TIMEx_MasterConfigSynchronization:0000000000000000 $t
     /tmp/ccilmNhL.s:3650   .text.HAL_TIMEx_MasterConfigSynchronization:0000000000000000 HAL_TIMEx_MasterConfigSynchronization
     /tmp/ccilmNhL.s:3810   .text.HAL_TIMEx_MasterConfigSynchronization:00000000000000dc $d
     /tmp/ccilmNhL.s:3821   .text.HAL_TIMEx_ConfigBreakDeadTime:0000000000000000 $t
     /tmp/ccilmNhL.s:3828   .text.HAL_TIMEx_ConfigBreakDeadTime:0000000000000000 HAL_TIMEx_ConfigBreakDeadTime
     /tmp/ccilmNhL.s:3943   .text.HAL_TIMEx_RemapConfig:0000000000000000 $t
     /tmp/ccilmNhL.s:3950   .text.HAL_TIMEx_RemapConfig:0000000000000000 HAL_TIMEx_RemapConfig
     /tmp/ccilmNhL.s:4012   .text.HAL_TIMEx_CommutCallback:0000000000000000 $t
     /tmp/ccilmNhL.s:4019   .text.HAL_TIMEx_CommutCallback:0000000000000000 HAL_TIMEx_CommutCallback
     /tmp/ccilmNhL.s:4055   .text.HAL_TIMEx_CommutHalfCpltCallback:0000000000000000 $t
     /tmp/ccilmNhL.s:4062   .text.HAL_TIMEx_CommutHalfCpltCallback:0000000000000000 HAL_TIMEx_CommutHalfCpltCallback
     /tmp/ccilmNhL.s:4098   .text.HAL_TIMEx_BreakCallback:0000000000000000 $t
     /tmp/ccilmNhL.s:4105   .text.HAL_TIMEx_BreakCallback:0000000000000000 HAL_TIMEx_BreakCallback
     /tmp/ccilmNhL.s:4141   .text.HAL_TIMEx_HallSensor_GetState:0000000000000000 $t
     /tmp/ccilmNhL.s:4148   .text.HAL_TIMEx_HallSensor_GetState:0000000000000000 HAL_TIMEx_HallSensor_GetState
     /tmp/ccilmNhL.s:4188   .text.TIMEx_DMACommutationCplt:0000000000000000 $t
     /tmp/ccilmNhL.s:4238   .text.TIMEx_DMACommutationHalfCplt:0000000000000000 $t
     /tmp/ccilmNhL.s:4288   .text.TIM_CCxNChannelCmd:0000000000000000 $t

UNDEFINED SYMBOLS
TIM_Base_SetConfig
TIM_TI1_SetConfig
TIM_OC2_SetConfig
TIM_CCxChannelCmd
HAL_DMA_Start_IT
TIM_DMACaptureCplt
TIM_DMACaptureHalfCplt
TIM_DMAError
HAL_DMA_Abort_IT
TIM_DMADelayPulseCplt
TIM_DMADelayPulseHalfCplt
