ARM GAS  /tmp/ccCA14ZC.s 			page 1


   1              		.cpu cortex-m4
   2              		.eabi_attribute 27, 1
   3              		.eabi_attribute 28, 1
   4              		.eabi_attribute 20, 1
   5              		.eabi_attribute 21, 1
   6              		.eabi_attribute 23, 3
   7              		.eabi_attribute 24, 1
   8              		.eabi_attribute 25, 1
   9              		.eabi_attribute 26, 1
  10              		.eabi_attribute 30, 6
  11              		.eabi_attribute 34, 1
  12              		.eabi_attribute 18, 4
  13              		.file	"timers.c"
  14              		.text
  15              	.Ltext0:
  16              		.cfi_sections	.debug_frame
  17              		.section	.bss.xActiveTimerList1,"aw",%nobits
  18              		.align	2
  21              	xActiveTimerList1:
  22 0000 00000000 		.space	20
  22      00000000 
  22      00000000 
  22      00000000 
  22      00000000 
  23              		.section	.bss.xActiveTimerList2,"aw",%nobits
  24              		.align	2
  27              	xActiveTimerList2:
  28 0000 00000000 		.space	20
  28      00000000 
  28      00000000 
  28      00000000 
  28      00000000 
  29              		.section	.bss.pxCurrentTimerList,"aw",%nobits
  30              		.align	2
  33              	pxCurrentTimerList:
  34 0000 00000000 		.space	4
  35              		.section	.bss.pxOverflowTimerList,"aw",%nobits
  36              		.align	2
  39              	pxOverflowTimerList:
  40 0000 00000000 		.space	4
  41              		.section	.bss.xTimerQueue,"aw",%nobits
  42              		.align	2
  45              	xTimerQueue:
  46 0000 00000000 		.space	4
  47              		.section	.bss.xTimerTaskHandle,"aw",%nobits
  48              		.align	2
  51              	xTimerTaskHandle:
  52 0000 00000000 		.space	4
  53              		.section	.rodata
  54              		.align	2
  55              	.LC0:
  56 0000 546D7220 		.ascii	"Tmr Svc\000"
  56      53766300 
  57              		.section	.text.xTimerCreateTimerTask,"ax",%progbits
  58              		.align	1
  59              		.global	xTimerCreateTimerTask
  60              		.arch armv7e-m
ARM GAS  /tmp/ccCA14ZC.s 			page 2


  61              		.syntax unified
  62              		.thumb
  63              		.thumb_func
  64              		.fpu fpv4-sp-d16
  66              	xTimerCreateTimerTask:
  67              	.LFB4:
  68              		.file 1 "Middlewares/Third_Party/FreeRTOS/Source/timers.c"
   1:Middlewares/Third_Party/FreeRTOS/Source/timers.c **** /*
   2:Middlewares/Third_Party/FreeRTOS/Source/timers.c ****  * FreeRTOS Kernel V10.2.1
   3:Middlewares/Third_Party/FreeRTOS/Source/timers.c ****  * Copyright (C) 2019 Amazon.com, Inc. or its affiliates.  All Rights Reserved.
   4:Middlewares/Third_Party/FreeRTOS/Source/timers.c ****  *
   5:Middlewares/Third_Party/FreeRTOS/Source/timers.c ****  * Permission is hereby granted, free of charge, to any person obtaining a copy of
   6:Middlewares/Third_Party/FreeRTOS/Source/timers.c ****  * this software and associated documentation files (the "Software"), to deal in
   7:Middlewares/Third_Party/FreeRTOS/Source/timers.c ****  * the Software without restriction, including without limitation the rights to
   8:Middlewares/Third_Party/FreeRTOS/Source/timers.c ****  * use, copy, modify, merge, publish, distribute, sublicense, and/or sell copies of
   9:Middlewares/Third_Party/FreeRTOS/Source/timers.c ****  * the Software, and to permit persons to whom the Software is furnished to do so,
  10:Middlewares/Third_Party/FreeRTOS/Source/timers.c ****  * subject to the following conditions:
  11:Middlewares/Third_Party/FreeRTOS/Source/timers.c ****  *
  12:Middlewares/Third_Party/FreeRTOS/Source/timers.c ****  * The above copyright notice and this permission notice shall be included in all
  13:Middlewares/Third_Party/FreeRTOS/Source/timers.c ****  * copies or substantial portions of the Software.
  14:Middlewares/Third_Party/FreeRTOS/Source/timers.c ****  *
  15:Middlewares/Third_Party/FreeRTOS/Source/timers.c ****  * THE SOFTWARE IS PROVIDED "AS IS", WITHOUT WARRANTY OF ANY KIND, EXPRESS OR
  16:Middlewares/Third_Party/FreeRTOS/Source/timers.c ****  * IMPLIED, INCLUDING BUT NOT LIMITED TO THE WARRANTIES OF MERCHANTABILITY, FITNESS
  17:Middlewares/Third_Party/FreeRTOS/Source/timers.c ****  * FOR A PARTICULAR PURPOSE AND NONINFRINGEMENT. IN NO EVENT SHALL THE AUTHORS OR
  18:Middlewares/Third_Party/FreeRTOS/Source/timers.c ****  * COPYRIGHT HOLDERS BE LIABLE FOR ANY CLAIM, DAMAGES OR OTHER LIABILITY, WHETHER
  19:Middlewares/Third_Party/FreeRTOS/Source/timers.c ****  * IN AN ACTION OF CONTRACT, TORT OR OTHERWISE, ARISING FROM, OUT OF OR IN
  20:Middlewares/Third_Party/FreeRTOS/Source/timers.c ****  * CONNECTION WITH THE SOFTWARE OR THE USE OR OTHER DEALINGS IN THE SOFTWARE.
  21:Middlewares/Third_Party/FreeRTOS/Source/timers.c ****  *
  22:Middlewares/Third_Party/FreeRTOS/Source/timers.c ****  * http://www.FreeRTOS.org
  23:Middlewares/Third_Party/FreeRTOS/Source/timers.c ****  * http://aws.amazon.com/freertos
  24:Middlewares/Third_Party/FreeRTOS/Source/timers.c ****  *
  25:Middlewares/Third_Party/FreeRTOS/Source/timers.c ****  * 1 tab == 4 spaces!
  26:Middlewares/Third_Party/FreeRTOS/Source/timers.c ****  */
  27:Middlewares/Third_Party/FreeRTOS/Source/timers.c **** 
  28:Middlewares/Third_Party/FreeRTOS/Source/timers.c **** /* Standard includes. */
  29:Middlewares/Third_Party/FreeRTOS/Source/timers.c **** #include <stdlib.h>
  30:Middlewares/Third_Party/FreeRTOS/Source/timers.c **** 
  31:Middlewares/Third_Party/FreeRTOS/Source/timers.c **** /* Defining MPU_WRAPPERS_INCLUDED_FROM_API_FILE prevents task.h from redefining
  32:Middlewares/Third_Party/FreeRTOS/Source/timers.c **** all the API functions to use the MPU wrappers.  That should only be done when
  33:Middlewares/Third_Party/FreeRTOS/Source/timers.c **** task.h is included from an application file. */
  34:Middlewares/Third_Party/FreeRTOS/Source/timers.c **** #define MPU_WRAPPERS_INCLUDED_FROM_API_FILE
  35:Middlewares/Third_Party/FreeRTOS/Source/timers.c **** 
  36:Middlewares/Third_Party/FreeRTOS/Source/timers.c **** #include "FreeRTOS.h"
  37:Middlewares/Third_Party/FreeRTOS/Source/timers.c **** #include "task.h"
  38:Middlewares/Third_Party/FreeRTOS/Source/timers.c **** #include "queue.h"
  39:Middlewares/Third_Party/FreeRTOS/Source/timers.c **** #include "timers.h"
  40:Middlewares/Third_Party/FreeRTOS/Source/timers.c **** 
  41:Middlewares/Third_Party/FreeRTOS/Source/timers.c **** #if ( INCLUDE_xTimerPendFunctionCall == 1 ) && ( configUSE_TIMERS == 0 )
  42:Middlewares/Third_Party/FreeRTOS/Source/timers.c **** 	#error configUSE_TIMERS must be set to 1 to make the xTimerPendFunctionCall() function available.
  43:Middlewares/Third_Party/FreeRTOS/Source/timers.c **** #endif
  44:Middlewares/Third_Party/FreeRTOS/Source/timers.c **** 
  45:Middlewares/Third_Party/FreeRTOS/Source/timers.c **** /* Lint e9021, e961 and e750 are suppressed as a MISRA exception justified
  46:Middlewares/Third_Party/FreeRTOS/Source/timers.c **** because the MPU ports require MPU_WRAPPERS_INCLUDED_FROM_API_FILE to be defined
  47:Middlewares/Third_Party/FreeRTOS/Source/timers.c **** for the header files above, but not in this file, in order to generate the
  48:Middlewares/Third_Party/FreeRTOS/Source/timers.c **** correct privileged Vs unprivileged linkage and placement. */
  49:Middlewares/Third_Party/FreeRTOS/Source/timers.c **** #undef MPU_WRAPPERS_INCLUDED_FROM_API_FILE /*lint !e9021 !e961 !e750. */
  50:Middlewares/Third_Party/FreeRTOS/Source/timers.c **** 
ARM GAS  /tmp/ccCA14ZC.s 			page 3


  51:Middlewares/Third_Party/FreeRTOS/Source/timers.c **** 
  52:Middlewares/Third_Party/FreeRTOS/Source/timers.c **** /* This entire source file will be skipped if the application is not configured
  53:Middlewares/Third_Party/FreeRTOS/Source/timers.c **** to include software timer functionality.  This #if is closed at the very bottom
  54:Middlewares/Third_Party/FreeRTOS/Source/timers.c **** of this file.  If you want to include software timer functionality then ensure
  55:Middlewares/Third_Party/FreeRTOS/Source/timers.c **** configUSE_TIMERS is set to 1 in FreeRTOSConfig.h. */
  56:Middlewares/Third_Party/FreeRTOS/Source/timers.c **** #if ( configUSE_TIMERS == 1 )
  57:Middlewares/Third_Party/FreeRTOS/Source/timers.c **** 
  58:Middlewares/Third_Party/FreeRTOS/Source/timers.c **** /* Misc definitions. */
  59:Middlewares/Third_Party/FreeRTOS/Source/timers.c **** #define tmrNO_DELAY		( TickType_t ) 0U
  60:Middlewares/Third_Party/FreeRTOS/Source/timers.c **** 
  61:Middlewares/Third_Party/FreeRTOS/Source/timers.c **** /* The name assigned to the timer service task.  This can be overridden by
  62:Middlewares/Third_Party/FreeRTOS/Source/timers.c **** defining trmTIMER_SERVICE_TASK_NAME in FreeRTOSConfig.h. */
  63:Middlewares/Third_Party/FreeRTOS/Source/timers.c **** #ifndef configTIMER_SERVICE_TASK_NAME
  64:Middlewares/Third_Party/FreeRTOS/Source/timers.c **** 	#define configTIMER_SERVICE_TASK_NAME "Tmr Svc"
  65:Middlewares/Third_Party/FreeRTOS/Source/timers.c **** #endif
  66:Middlewares/Third_Party/FreeRTOS/Source/timers.c **** 
  67:Middlewares/Third_Party/FreeRTOS/Source/timers.c **** /* Bit definitions used in the ucStatus member of a timer structure. */
  68:Middlewares/Third_Party/FreeRTOS/Source/timers.c **** #define tmrSTATUS_IS_ACTIVE					( ( uint8_t ) 0x01 )
  69:Middlewares/Third_Party/FreeRTOS/Source/timers.c **** #define tmrSTATUS_IS_STATICALLY_ALLOCATED	( ( uint8_t ) 0x02 )
  70:Middlewares/Third_Party/FreeRTOS/Source/timers.c **** #define tmrSTATUS_IS_AUTORELOAD				( ( uint8_t ) 0x04 )
  71:Middlewares/Third_Party/FreeRTOS/Source/timers.c **** 
  72:Middlewares/Third_Party/FreeRTOS/Source/timers.c **** /* The definition of the timers themselves. */
  73:Middlewares/Third_Party/FreeRTOS/Source/timers.c **** typedef struct tmrTimerControl /* The old naming convention is used to prevent breaking kernel awar
  74:Middlewares/Third_Party/FreeRTOS/Source/timers.c **** {
  75:Middlewares/Third_Party/FreeRTOS/Source/timers.c **** 	const char				*pcTimerName;		/*<< Text name.  This is not used by the kernel, it is included simpl
  76:Middlewares/Third_Party/FreeRTOS/Source/timers.c **** 	ListItem_t				xTimerListItem;		/*<< Standard linked list item as used by all kernel features for e
  77:Middlewares/Third_Party/FreeRTOS/Source/timers.c **** 	TickType_t				xTimerPeriodInTicks;/*<< How quickly and often the timer expires. */
  78:Middlewares/Third_Party/FreeRTOS/Source/timers.c **** 	void 					*pvTimerID;			/*<< An ID to identify the timer.  This allows the timer to be identified 
  79:Middlewares/Third_Party/FreeRTOS/Source/timers.c **** 	TimerCallbackFunction_t	pxCallbackFunction;	/*<< The function that will be called when the timer e
  80:Middlewares/Third_Party/FreeRTOS/Source/timers.c **** 	#if( configUSE_TRACE_FACILITY == 1 )
  81:Middlewares/Third_Party/FreeRTOS/Source/timers.c **** 		UBaseType_t			uxTimerNumber;		/*<< An ID assigned by trace tools such as FreeRTOS+Trace */
  82:Middlewares/Third_Party/FreeRTOS/Source/timers.c **** 	#endif
  83:Middlewares/Third_Party/FreeRTOS/Source/timers.c **** 	uint8_t 				ucStatus;			/*<< Holds bits to say if the timer was statically allocated or not, and i
  84:Middlewares/Third_Party/FreeRTOS/Source/timers.c **** } xTIMER;
  85:Middlewares/Third_Party/FreeRTOS/Source/timers.c **** 
  86:Middlewares/Third_Party/FreeRTOS/Source/timers.c **** /* The old xTIMER name is maintained above then typedefed to the new Timer_t
  87:Middlewares/Third_Party/FreeRTOS/Source/timers.c **** name below to enable the use of older kernel aware debuggers. */
  88:Middlewares/Third_Party/FreeRTOS/Source/timers.c **** typedef xTIMER Timer_t;
  89:Middlewares/Third_Party/FreeRTOS/Source/timers.c **** 
  90:Middlewares/Third_Party/FreeRTOS/Source/timers.c **** /* The definition of messages that can be sent and received on the timer queue.
  91:Middlewares/Third_Party/FreeRTOS/Source/timers.c **** Two types of message can be queued - messages that manipulate a software timer,
  92:Middlewares/Third_Party/FreeRTOS/Source/timers.c **** and messages that request the execution of a non-timer related callback.  The
  93:Middlewares/Third_Party/FreeRTOS/Source/timers.c **** two message types are defined in two separate structures, xTimerParametersType
  94:Middlewares/Third_Party/FreeRTOS/Source/timers.c **** and xCallbackParametersType respectively. */
  95:Middlewares/Third_Party/FreeRTOS/Source/timers.c **** typedef struct tmrTimerParameters
  96:Middlewares/Third_Party/FreeRTOS/Source/timers.c **** {
  97:Middlewares/Third_Party/FreeRTOS/Source/timers.c **** 	TickType_t			xMessageValue;		/*<< An optional value used by a subset of commands, for example, whe
  98:Middlewares/Third_Party/FreeRTOS/Source/timers.c **** 	Timer_t *			pxTimer;			/*<< The timer to which the command will be applied. */
  99:Middlewares/Third_Party/FreeRTOS/Source/timers.c **** } TimerParameter_t;
 100:Middlewares/Third_Party/FreeRTOS/Source/timers.c **** 
 101:Middlewares/Third_Party/FreeRTOS/Source/timers.c **** 
 102:Middlewares/Third_Party/FreeRTOS/Source/timers.c **** typedef struct tmrCallbackParameters
 103:Middlewares/Third_Party/FreeRTOS/Source/timers.c **** {
 104:Middlewares/Third_Party/FreeRTOS/Source/timers.c **** 	PendedFunction_t	pxCallbackFunction;	/* << The callback function to execute. */
 105:Middlewares/Third_Party/FreeRTOS/Source/timers.c **** 	void *pvParameter1;						/* << The value that will be used as the callback functions first paramet
 106:Middlewares/Third_Party/FreeRTOS/Source/timers.c **** 	uint32_t ulParameter2;					/* << The value that will be used as the callback functions second para
 107:Middlewares/Third_Party/FreeRTOS/Source/timers.c **** } CallbackParameters_t;
ARM GAS  /tmp/ccCA14ZC.s 			page 4


 108:Middlewares/Third_Party/FreeRTOS/Source/timers.c **** 
 109:Middlewares/Third_Party/FreeRTOS/Source/timers.c **** /* The structure that contains the two message types, along with an identifier
 110:Middlewares/Third_Party/FreeRTOS/Source/timers.c **** that is used to determine which message type is valid. */
 111:Middlewares/Third_Party/FreeRTOS/Source/timers.c **** typedef struct tmrTimerQueueMessage
 112:Middlewares/Third_Party/FreeRTOS/Source/timers.c **** {
 113:Middlewares/Third_Party/FreeRTOS/Source/timers.c **** 	BaseType_t			xMessageID;			/*<< The command being sent to the timer service task. */
 114:Middlewares/Third_Party/FreeRTOS/Source/timers.c **** 	union
 115:Middlewares/Third_Party/FreeRTOS/Source/timers.c **** 	{
 116:Middlewares/Third_Party/FreeRTOS/Source/timers.c **** 		TimerParameter_t xTimerParameters;
 117:Middlewares/Third_Party/FreeRTOS/Source/timers.c **** 
 118:Middlewares/Third_Party/FreeRTOS/Source/timers.c **** 		/* Don't include xCallbackParameters if it is not going to be used as
 119:Middlewares/Third_Party/FreeRTOS/Source/timers.c **** 		it makes the structure (and therefore the timer queue) larger. */
 120:Middlewares/Third_Party/FreeRTOS/Source/timers.c **** 		#if ( INCLUDE_xTimerPendFunctionCall == 1 )
 121:Middlewares/Third_Party/FreeRTOS/Source/timers.c **** 			CallbackParameters_t xCallbackParameters;
 122:Middlewares/Third_Party/FreeRTOS/Source/timers.c **** 		#endif /* INCLUDE_xTimerPendFunctionCall */
 123:Middlewares/Third_Party/FreeRTOS/Source/timers.c **** 	} u;
 124:Middlewares/Third_Party/FreeRTOS/Source/timers.c **** } DaemonTaskMessage_t;
 125:Middlewares/Third_Party/FreeRTOS/Source/timers.c **** 
 126:Middlewares/Third_Party/FreeRTOS/Source/timers.c **** /*lint -save -e956 A manual analysis and inspection has been used to determine
 127:Middlewares/Third_Party/FreeRTOS/Source/timers.c **** which static variables must be declared volatile. */
 128:Middlewares/Third_Party/FreeRTOS/Source/timers.c **** 
 129:Middlewares/Third_Party/FreeRTOS/Source/timers.c **** /* The list in which active timers are stored.  Timers are referenced in expire
 130:Middlewares/Third_Party/FreeRTOS/Source/timers.c **** time order, with the nearest expiry time at the front of the list.  Only the
 131:Middlewares/Third_Party/FreeRTOS/Source/timers.c **** timer service task is allowed to access these lists.
 132:Middlewares/Third_Party/FreeRTOS/Source/timers.c **** xActiveTimerList1 and xActiveTimerList2 could be at function scope but that
 133:Middlewares/Third_Party/FreeRTOS/Source/timers.c **** breaks some kernel aware debuggers, and debuggers that reply on removing the
 134:Middlewares/Third_Party/FreeRTOS/Source/timers.c **** static qualifier. */
 135:Middlewares/Third_Party/FreeRTOS/Source/timers.c **** PRIVILEGED_DATA static List_t xActiveTimerList1 = { 0 };
 136:Middlewares/Third_Party/FreeRTOS/Source/timers.c **** PRIVILEGED_DATA static List_t xActiveTimerList2 = { 0 };
 137:Middlewares/Third_Party/FreeRTOS/Source/timers.c **** PRIVILEGED_DATA static List_t *pxCurrentTimerList = NULL;
 138:Middlewares/Third_Party/FreeRTOS/Source/timers.c **** PRIVILEGED_DATA static List_t *pxOverflowTimerList = NULL;
 139:Middlewares/Third_Party/FreeRTOS/Source/timers.c **** 
 140:Middlewares/Third_Party/FreeRTOS/Source/timers.c **** /* A queue that is used to send commands to the timer service task. */
 141:Middlewares/Third_Party/FreeRTOS/Source/timers.c **** PRIVILEGED_DATA static QueueHandle_t xTimerQueue = NULL;
 142:Middlewares/Third_Party/FreeRTOS/Source/timers.c **** PRIVILEGED_DATA static TaskHandle_t xTimerTaskHandle = NULL;
 143:Middlewares/Third_Party/FreeRTOS/Source/timers.c **** 
 144:Middlewares/Third_Party/FreeRTOS/Source/timers.c **** /*lint -restore */
 145:Middlewares/Third_Party/FreeRTOS/Source/timers.c **** 
 146:Middlewares/Third_Party/FreeRTOS/Source/timers.c **** /*-----------------------------------------------------------*/
 147:Middlewares/Third_Party/FreeRTOS/Source/timers.c **** 
 148:Middlewares/Third_Party/FreeRTOS/Source/timers.c **** #if( configSUPPORT_STATIC_ALLOCATION == 1 )
 149:Middlewares/Third_Party/FreeRTOS/Source/timers.c **** 
 150:Middlewares/Third_Party/FreeRTOS/Source/timers.c **** 	/* If static allocation is supported then the application must provide the
 151:Middlewares/Third_Party/FreeRTOS/Source/timers.c **** 	following callback function - which enables the application to optionally
 152:Middlewares/Third_Party/FreeRTOS/Source/timers.c **** 	provide the memory that will be used by the timer task as the task's stack
 153:Middlewares/Third_Party/FreeRTOS/Source/timers.c **** 	and TCB. */
 154:Middlewares/Third_Party/FreeRTOS/Source/timers.c **** 	extern void vApplicationGetTimerTaskMemory( StaticTask_t **ppxTimerTaskTCBBuffer, StackType_t **pp
 155:Middlewares/Third_Party/FreeRTOS/Source/timers.c **** 
 156:Middlewares/Third_Party/FreeRTOS/Source/timers.c **** #endif
 157:Middlewares/Third_Party/FreeRTOS/Source/timers.c **** 
 158:Middlewares/Third_Party/FreeRTOS/Source/timers.c **** /*
 159:Middlewares/Third_Party/FreeRTOS/Source/timers.c ****  * Initialise the infrastructure used by the timer service task if it has not
 160:Middlewares/Third_Party/FreeRTOS/Source/timers.c ****  * been initialised already.
 161:Middlewares/Third_Party/FreeRTOS/Source/timers.c ****  */
 162:Middlewares/Third_Party/FreeRTOS/Source/timers.c **** static void prvCheckForValidListAndQueue( void ) PRIVILEGED_FUNCTION;
 163:Middlewares/Third_Party/FreeRTOS/Source/timers.c **** 
 164:Middlewares/Third_Party/FreeRTOS/Source/timers.c **** /*
ARM GAS  /tmp/ccCA14ZC.s 			page 5


 165:Middlewares/Third_Party/FreeRTOS/Source/timers.c ****  * The timer service task (daemon).  Timer functionality is controlled by this
 166:Middlewares/Third_Party/FreeRTOS/Source/timers.c ****  * task.  Other tasks communicate with the timer service task using the
 167:Middlewares/Third_Party/FreeRTOS/Source/timers.c ****  * xTimerQueue queue.
 168:Middlewares/Third_Party/FreeRTOS/Source/timers.c ****  */
 169:Middlewares/Third_Party/FreeRTOS/Source/timers.c **** static portTASK_FUNCTION_PROTO( prvTimerTask, pvParameters ) PRIVILEGED_FUNCTION;
 170:Middlewares/Third_Party/FreeRTOS/Source/timers.c **** 
 171:Middlewares/Third_Party/FreeRTOS/Source/timers.c **** /*
 172:Middlewares/Third_Party/FreeRTOS/Source/timers.c ****  * Called by the timer service task to interpret and process a command it
 173:Middlewares/Third_Party/FreeRTOS/Source/timers.c ****  * received on the timer queue.
 174:Middlewares/Third_Party/FreeRTOS/Source/timers.c ****  */
 175:Middlewares/Third_Party/FreeRTOS/Source/timers.c **** static void prvProcessReceivedCommands( void ) PRIVILEGED_FUNCTION;
 176:Middlewares/Third_Party/FreeRTOS/Source/timers.c **** 
 177:Middlewares/Third_Party/FreeRTOS/Source/timers.c **** /*
 178:Middlewares/Third_Party/FreeRTOS/Source/timers.c ****  * Insert the timer into either xActiveTimerList1, or xActiveTimerList2,
 179:Middlewares/Third_Party/FreeRTOS/Source/timers.c ****  * depending on if the expire time causes a timer counter overflow.
 180:Middlewares/Third_Party/FreeRTOS/Source/timers.c ****  */
 181:Middlewares/Third_Party/FreeRTOS/Source/timers.c **** static BaseType_t prvInsertTimerInActiveList( Timer_t * const pxTimer, const TickType_t xNextExpiry
 182:Middlewares/Third_Party/FreeRTOS/Source/timers.c **** 
 183:Middlewares/Third_Party/FreeRTOS/Source/timers.c **** /*
 184:Middlewares/Third_Party/FreeRTOS/Source/timers.c ****  * An active timer has reached its expire time.  Reload the timer if it is an
 185:Middlewares/Third_Party/FreeRTOS/Source/timers.c ****  * auto reload timer, then call its callback.
 186:Middlewares/Third_Party/FreeRTOS/Source/timers.c ****  */
 187:Middlewares/Third_Party/FreeRTOS/Source/timers.c **** static void prvProcessExpiredTimer( const TickType_t xNextExpireTime, const TickType_t xTimeNow ) P
 188:Middlewares/Third_Party/FreeRTOS/Source/timers.c **** 
 189:Middlewares/Third_Party/FreeRTOS/Source/timers.c **** /*
 190:Middlewares/Third_Party/FreeRTOS/Source/timers.c ****  * The tick count has overflowed.  Switch the timer lists after ensuring the
 191:Middlewares/Third_Party/FreeRTOS/Source/timers.c ****  * current timer list does not still reference some timers.
 192:Middlewares/Third_Party/FreeRTOS/Source/timers.c ****  */
 193:Middlewares/Third_Party/FreeRTOS/Source/timers.c **** static void prvSwitchTimerLists( void ) PRIVILEGED_FUNCTION;
 194:Middlewares/Third_Party/FreeRTOS/Source/timers.c **** 
 195:Middlewares/Third_Party/FreeRTOS/Source/timers.c **** /*
 196:Middlewares/Third_Party/FreeRTOS/Source/timers.c ****  * Obtain the current tick count, setting *pxTimerListsWereSwitched to pdTRUE
 197:Middlewares/Third_Party/FreeRTOS/Source/timers.c ****  * if a tick count overflow occurred since prvSampleTimeNow() was last called.
 198:Middlewares/Third_Party/FreeRTOS/Source/timers.c ****  */
 199:Middlewares/Third_Party/FreeRTOS/Source/timers.c **** static TickType_t prvSampleTimeNow( BaseType_t * const pxTimerListsWereSwitched ) PRIVILEGED_FUNCTI
 200:Middlewares/Third_Party/FreeRTOS/Source/timers.c **** 
 201:Middlewares/Third_Party/FreeRTOS/Source/timers.c **** /*
 202:Middlewares/Third_Party/FreeRTOS/Source/timers.c ****  * If the timer list contains any active timers then return the expire time of
 203:Middlewares/Third_Party/FreeRTOS/Source/timers.c ****  * the timer that will expire first and set *pxListWasEmpty to false.  If the
 204:Middlewares/Third_Party/FreeRTOS/Source/timers.c ****  * timer list does not contain any timers then return 0 and set *pxListWasEmpty
 205:Middlewares/Third_Party/FreeRTOS/Source/timers.c ****  * to pdTRUE.
 206:Middlewares/Third_Party/FreeRTOS/Source/timers.c ****  */
 207:Middlewares/Third_Party/FreeRTOS/Source/timers.c **** static TickType_t prvGetNextExpireTime( BaseType_t * const pxListWasEmpty ) PRIVILEGED_FUNCTION;
 208:Middlewares/Third_Party/FreeRTOS/Source/timers.c **** 
 209:Middlewares/Third_Party/FreeRTOS/Source/timers.c **** /*
 210:Middlewares/Third_Party/FreeRTOS/Source/timers.c ****  * If a timer has expired, process it.  Otherwise, block the timer service task
 211:Middlewares/Third_Party/FreeRTOS/Source/timers.c ****  * until either a timer does expire or a command is received.
 212:Middlewares/Third_Party/FreeRTOS/Source/timers.c ****  */
 213:Middlewares/Third_Party/FreeRTOS/Source/timers.c **** static void prvProcessTimerOrBlockTask( const TickType_t xNextExpireTime, BaseType_t xListWasEmpty 
 214:Middlewares/Third_Party/FreeRTOS/Source/timers.c **** 
 215:Middlewares/Third_Party/FreeRTOS/Source/timers.c **** /*
 216:Middlewares/Third_Party/FreeRTOS/Source/timers.c ****  * Called after a Timer_t structure has been allocated either statically or
 217:Middlewares/Third_Party/FreeRTOS/Source/timers.c ****  * dynamically to fill in the structure's members.
 218:Middlewares/Third_Party/FreeRTOS/Source/timers.c ****  */
 219:Middlewares/Third_Party/FreeRTOS/Source/timers.c **** static void prvInitialiseNewTimer(	const char * const pcTimerName,			/*lint !e971 Unqualified char 
 220:Middlewares/Third_Party/FreeRTOS/Source/timers.c **** 									const TickType_t xTimerPeriodInTicks,
 221:Middlewares/Third_Party/FreeRTOS/Source/timers.c **** 									const UBaseType_t uxAutoReload,
ARM GAS  /tmp/ccCA14ZC.s 			page 6


 222:Middlewares/Third_Party/FreeRTOS/Source/timers.c **** 									void * const pvTimerID,
 223:Middlewares/Third_Party/FreeRTOS/Source/timers.c **** 									TimerCallbackFunction_t pxCallbackFunction,
 224:Middlewares/Third_Party/FreeRTOS/Source/timers.c **** 									Timer_t *pxNewTimer ) PRIVILEGED_FUNCTION;
 225:Middlewares/Third_Party/FreeRTOS/Source/timers.c **** /*-----------------------------------------------------------*/
 226:Middlewares/Third_Party/FreeRTOS/Source/timers.c **** 
 227:Middlewares/Third_Party/FreeRTOS/Source/timers.c **** BaseType_t xTimerCreateTimerTask( void )
 228:Middlewares/Third_Party/FreeRTOS/Source/timers.c **** {
  69              		.loc 1 228 1
  70              		.cfi_startproc
  71              		@ args = 0, pretend = 0, frame = 24
  72              		@ frame_needed = 1, uses_anonymous_args = 0
  73 0000 80B5     		push	{r7, lr}
  74              	.LCFI0:
  75              		.cfi_def_cfa_offset 8
  76              		.cfi_offset 7, -8
  77              		.cfi_offset 14, -4
  78 0002 8AB0     		sub	sp, sp, #40
  79              	.LCFI1:
  80              		.cfi_def_cfa_offset 48
  81 0004 04AF     		add	r7, sp, #16
  82              	.LCFI2:
  83              		.cfi_def_cfa 7, 32
 229:Middlewares/Third_Party/FreeRTOS/Source/timers.c **** BaseType_t xReturn = pdFAIL;
  84              		.loc 1 229 12
  85 0006 0023     		movs	r3, #0
  86 0008 7B61     		str	r3, [r7, #20]
 230:Middlewares/Third_Party/FreeRTOS/Source/timers.c **** 
 231:Middlewares/Third_Party/FreeRTOS/Source/timers.c **** 	/* This function is called when the scheduler is started if
 232:Middlewares/Third_Party/FreeRTOS/Source/timers.c **** 	configUSE_TIMERS is set to 1.  Check that the infrastructure used by the
 233:Middlewares/Third_Party/FreeRTOS/Source/timers.c **** 	timer service task has been created/initialised.  If timers have already
 234:Middlewares/Third_Party/FreeRTOS/Source/timers.c **** 	been created then the initialisation will already have been performed. */
 235:Middlewares/Third_Party/FreeRTOS/Source/timers.c **** 	prvCheckForValidListAndQueue();
  87              		.loc 1 235 2
  88 000a FFF7FEFF 		bl	prvCheckForValidListAndQueue
 236:Middlewares/Third_Party/FreeRTOS/Source/timers.c **** 
 237:Middlewares/Third_Party/FreeRTOS/Source/timers.c **** 	if( xTimerQueue != NULL )
  89              		.loc 1 237 18
  90 000e 1C4B     		ldr	r3, .L7
  91 0010 1B68     		ldr	r3, [r3]
  92              		.loc 1 237 4
  93 0012 002B     		cmp	r3, #0
  94 0014 21D0     		beq	.L2
  95              	.LBB43:
 238:Middlewares/Third_Party/FreeRTOS/Source/timers.c **** 	{
 239:Middlewares/Third_Party/FreeRTOS/Source/timers.c **** 		#if( configSUPPORT_STATIC_ALLOCATION == 1 )
 240:Middlewares/Third_Party/FreeRTOS/Source/timers.c **** 		{
 241:Middlewares/Third_Party/FreeRTOS/Source/timers.c **** 			StaticTask_t *pxTimerTaskTCBBuffer = NULL;
  96              		.loc 1 241 18
  97 0016 0023     		movs	r3, #0
  98 0018 FB60     		str	r3, [r7, #12]
 242:Middlewares/Third_Party/FreeRTOS/Source/timers.c **** 			StackType_t *pxTimerTaskStackBuffer = NULL;
  99              		.loc 1 242 17
 100 001a 0023     		movs	r3, #0
 101 001c BB60     		str	r3, [r7, #8]
 243:Middlewares/Third_Party/FreeRTOS/Source/timers.c **** 			uint32_t ulTimerTaskStackSize;
 244:Middlewares/Third_Party/FreeRTOS/Source/timers.c **** 
 245:Middlewares/Third_Party/FreeRTOS/Source/timers.c **** 			vApplicationGetTimerTaskMemory( &pxTimerTaskTCBBuffer, &pxTimerTaskStackBuffer, &ulTimerTaskStac
ARM GAS  /tmp/ccCA14ZC.s 			page 7


 102              		.loc 1 245 4
 103 001e 3A1D     		adds	r2, r7, #4
 104 0020 07F10801 		add	r1, r7, #8
 105 0024 07F10C03 		add	r3, r7, #12
 106 0028 1846     		mov	r0, r3
 107 002a FFF7FEFF 		bl	vApplicationGetTimerTaskMemory
 246:Middlewares/Third_Party/FreeRTOS/Source/timers.c **** 			xTimerTaskHandle = xTaskCreateStatic(	prvTimerTask,
 108              		.loc 1 246 23
 109 002e 7968     		ldr	r1, [r7, #4]
 110 0030 BB68     		ldr	r3, [r7, #8]
 111 0032 FA68     		ldr	r2, [r7, #12]
 112 0034 0292     		str	r2, [sp, #8]
 113 0036 0193     		str	r3, [sp, #4]
 114 0038 0223     		movs	r3, #2
 115 003a 0093     		str	r3, [sp]
 116 003c 0023     		movs	r3, #0
 117 003e 0A46     		mov	r2, r1
 118 0040 1049     		ldr	r1, .L7+4
 119 0042 1148     		ldr	r0, .L7+8
 120 0044 FFF7FEFF 		bl	xTaskCreateStatic
 121 0048 0246     		mov	r2, r0
 122              		.loc 1 246 21
 123 004a 104B     		ldr	r3, .L7+12
 124 004c 1A60     		str	r2, [r3]
 247:Middlewares/Third_Party/FreeRTOS/Source/timers.c **** 													configTIMER_SERVICE_TASK_NAME,
 248:Middlewares/Third_Party/FreeRTOS/Source/timers.c **** 													ulTimerTaskStackSize,
 249:Middlewares/Third_Party/FreeRTOS/Source/timers.c **** 													NULL,
 250:Middlewares/Third_Party/FreeRTOS/Source/timers.c **** 													( ( UBaseType_t ) configTIMER_TASK_PRIORITY ) | portPRIVILEGE_BIT,
 251:Middlewares/Third_Party/FreeRTOS/Source/timers.c **** 													pxTimerTaskStackBuffer,
 252:Middlewares/Third_Party/FreeRTOS/Source/timers.c **** 													pxTimerTaskTCBBuffer );
 253:Middlewares/Third_Party/FreeRTOS/Source/timers.c **** 
 254:Middlewares/Third_Party/FreeRTOS/Source/timers.c **** 			if( xTimerTaskHandle != NULL )
 125              		.loc 1 254 25
 126 004e 0F4B     		ldr	r3, .L7+12
 127 0050 1B68     		ldr	r3, [r3]
 128              		.loc 1 254 6
 129 0052 002B     		cmp	r3, #0
 130 0054 01D0     		beq	.L2
 255:Middlewares/Third_Party/FreeRTOS/Source/timers.c **** 			{
 256:Middlewares/Third_Party/FreeRTOS/Source/timers.c **** 				xReturn = pdPASS;
 131              		.loc 1 256 13
 132 0056 0123     		movs	r3, #1
 133 0058 7B61     		str	r3, [r7, #20]
 134              	.L2:
 135              	.LBE43:
 257:Middlewares/Third_Party/FreeRTOS/Source/timers.c **** 			}
 258:Middlewares/Third_Party/FreeRTOS/Source/timers.c **** 		}
 259:Middlewares/Third_Party/FreeRTOS/Source/timers.c **** 		#else
 260:Middlewares/Third_Party/FreeRTOS/Source/timers.c **** 		{
 261:Middlewares/Third_Party/FreeRTOS/Source/timers.c **** 			xReturn = xTaskCreate(	prvTimerTask,
 262:Middlewares/Third_Party/FreeRTOS/Source/timers.c **** 									configTIMER_SERVICE_TASK_NAME,
 263:Middlewares/Third_Party/FreeRTOS/Source/timers.c **** 									configTIMER_TASK_STACK_DEPTH,
 264:Middlewares/Third_Party/FreeRTOS/Source/timers.c **** 									NULL,
 265:Middlewares/Third_Party/FreeRTOS/Source/timers.c **** 									( ( UBaseType_t ) configTIMER_TASK_PRIORITY ) | portPRIVILEGE_BIT,
 266:Middlewares/Third_Party/FreeRTOS/Source/timers.c **** 									&xTimerTaskHandle );
 267:Middlewares/Third_Party/FreeRTOS/Source/timers.c **** 		}
 268:Middlewares/Third_Party/FreeRTOS/Source/timers.c **** 		#endif /* configSUPPORT_STATIC_ALLOCATION */
ARM GAS  /tmp/ccCA14ZC.s 			page 8


 269:Middlewares/Third_Party/FreeRTOS/Source/timers.c **** 	}
 270:Middlewares/Third_Party/FreeRTOS/Source/timers.c **** 	else
 271:Middlewares/Third_Party/FreeRTOS/Source/timers.c **** 	{
 272:Middlewares/Third_Party/FreeRTOS/Source/timers.c **** 		mtCOVERAGE_TEST_MARKER();
 273:Middlewares/Third_Party/FreeRTOS/Source/timers.c **** 	}
 274:Middlewares/Third_Party/FreeRTOS/Source/timers.c **** 
 275:Middlewares/Third_Party/FreeRTOS/Source/timers.c **** 	configASSERT( xReturn );
 136              		.loc 1 275 2
 137 005a 7B69     		ldr	r3, [r7, #20]
 138 005c 002B     		cmp	r3, #0
 139 005e 09D1     		bne	.L4
 140              	.LBB44:
 141              	.LBB45:
 142              		.file 2 "Middlewares/Third_Party/FreeRTOS/Source/portable/GCC/ARM_CM4F/portmacro.h"
   1:Middlewares/Third_Party/FreeRTOS/Source/portable/GCC/ARM_CM4F/portmacro.h **** /*
   2:Middlewares/Third_Party/FreeRTOS/Source/portable/GCC/ARM_CM4F/portmacro.h ****  * FreeRTOS Kernel V10.2.1
   3:Middlewares/Third_Party/FreeRTOS/Source/portable/GCC/ARM_CM4F/portmacro.h ****  * Copyright (C) 2019 Amazon.com, Inc. or its affiliates.  All Rights Reserved.
   4:Middlewares/Third_Party/FreeRTOS/Source/portable/GCC/ARM_CM4F/portmacro.h ****  *
   5:Middlewares/Third_Party/FreeRTOS/Source/portable/GCC/ARM_CM4F/portmacro.h ****  * Permission is hereby granted, free of charge, to any person obtaining a copy of
   6:Middlewares/Third_Party/FreeRTOS/Source/portable/GCC/ARM_CM4F/portmacro.h ****  * this software and associated documentation files (the "Software"), to deal in
   7:Middlewares/Third_Party/FreeRTOS/Source/portable/GCC/ARM_CM4F/portmacro.h ****  * the Software without restriction, including without limitation the rights to
   8:Middlewares/Third_Party/FreeRTOS/Source/portable/GCC/ARM_CM4F/portmacro.h ****  * use, copy, modify, merge, publish, distribute, sublicense, and/or sell copies of
   9:Middlewares/Third_Party/FreeRTOS/Source/portable/GCC/ARM_CM4F/portmacro.h ****  * the Software, and to permit persons to whom the Software is furnished to do so,
  10:Middlewares/Third_Party/FreeRTOS/Source/portable/GCC/ARM_CM4F/portmacro.h ****  * subject to the following conditions:
  11:Middlewares/Third_Party/FreeRTOS/Source/portable/GCC/ARM_CM4F/portmacro.h ****  *
  12:Middlewares/Third_Party/FreeRTOS/Source/portable/GCC/ARM_CM4F/portmacro.h ****  * The above copyright notice and this permission notice shall be included in all
  13:Middlewares/Third_Party/FreeRTOS/Source/portable/GCC/ARM_CM4F/portmacro.h ****  * copies or substantial portions of the Software.
  14:Middlewares/Third_Party/FreeRTOS/Source/portable/GCC/ARM_CM4F/portmacro.h ****  *
  15:Middlewares/Third_Party/FreeRTOS/Source/portable/GCC/ARM_CM4F/portmacro.h ****  * THE SOFTWARE IS PROVIDED "AS IS", WITHOUT WARRANTY OF ANY KIND, EXPRESS OR
  16:Middlewares/Third_Party/FreeRTOS/Source/portable/GCC/ARM_CM4F/portmacro.h ****  * IMPLIED, INCLUDING BUT NOT LIMITED TO THE WARRANTIES OF MERCHANTABILITY, FITNESS
  17:Middlewares/Third_Party/FreeRTOS/Source/portable/GCC/ARM_CM4F/portmacro.h ****  * FOR A PARTICULAR PURPOSE AND NONINFRINGEMENT. IN NO EVENT SHALL THE AUTHORS OR
  18:Middlewares/Third_Party/FreeRTOS/Source/portable/GCC/ARM_CM4F/portmacro.h ****  * COPYRIGHT HOLDERS BE LIABLE FOR ANY CLAIM, DAMAGES OR OTHER LIABILITY, WHETHER
  19:Middlewares/Third_Party/FreeRTOS/Source/portable/GCC/ARM_CM4F/portmacro.h ****  * IN AN ACTION OF CONTRACT, TORT OR OTHERWISE, ARISING FROM, OUT OF OR IN
  20:Middlewares/Third_Party/FreeRTOS/Source/portable/GCC/ARM_CM4F/portmacro.h ****  * CONNECTION WITH THE SOFTWARE OR THE USE OR OTHER DEALINGS IN THE SOFTWARE.
  21:Middlewares/Third_Party/FreeRTOS/Source/portable/GCC/ARM_CM4F/portmacro.h ****  *
  22:Middlewares/Third_Party/FreeRTOS/Source/portable/GCC/ARM_CM4F/portmacro.h ****  * http://www.FreeRTOS.org
  23:Middlewares/Third_Party/FreeRTOS/Source/portable/GCC/ARM_CM4F/portmacro.h ****  * http://aws.amazon.com/freertos
  24:Middlewares/Third_Party/FreeRTOS/Source/portable/GCC/ARM_CM4F/portmacro.h ****  *
  25:Middlewares/Third_Party/FreeRTOS/Source/portable/GCC/ARM_CM4F/portmacro.h ****  * 1 tab == 4 spaces!
  26:Middlewares/Third_Party/FreeRTOS/Source/portable/GCC/ARM_CM4F/portmacro.h ****  */
  27:Middlewares/Third_Party/FreeRTOS/Source/portable/GCC/ARM_CM4F/portmacro.h **** 
  28:Middlewares/Third_Party/FreeRTOS/Source/portable/GCC/ARM_CM4F/portmacro.h **** 
  29:Middlewares/Third_Party/FreeRTOS/Source/portable/GCC/ARM_CM4F/portmacro.h **** #ifndef PORTMACRO_H
  30:Middlewares/Third_Party/FreeRTOS/Source/portable/GCC/ARM_CM4F/portmacro.h **** #define PORTMACRO_H
  31:Middlewares/Third_Party/FreeRTOS/Source/portable/GCC/ARM_CM4F/portmacro.h **** 
  32:Middlewares/Third_Party/FreeRTOS/Source/portable/GCC/ARM_CM4F/portmacro.h **** #ifdef __cplusplus
  33:Middlewares/Third_Party/FreeRTOS/Source/portable/GCC/ARM_CM4F/portmacro.h **** extern "C" {
  34:Middlewares/Third_Party/FreeRTOS/Source/portable/GCC/ARM_CM4F/portmacro.h **** #endif
  35:Middlewares/Third_Party/FreeRTOS/Source/portable/GCC/ARM_CM4F/portmacro.h **** 
  36:Middlewares/Third_Party/FreeRTOS/Source/portable/GCC/ARM_CM4F/portmacro.h **** /*-----------------------------------------------------------
  37:Middlewares/Third_Party/FreeRTOS/Source/portable/GCC/ARM_CM4F/portmacro.h ****  * Port specific definitions.
  38:Middlewares/Third_Party/FreeRTOS/Source/portable/GCC/ARM_CM4F/portmacro.h ****  *
  39:Middlewares/Third_Party/FreeRTOS/Source/portable/GCC/ARM_CM4F/portmacro.h ****  * The settings in this file configure FreeRTOS correctly for the
  40:Middlewares/Third_Party/FreeRTOS/Source/portable/GCC/ARM_CM4F/portmacro.h ****  * given hardware and compiler.
  41:Middlewares/Third_Party/FreeRTOS/Source/portable/GCC/ARM_CM4F/portmacro.h ****  *
  42:Middlewares/Third_Party/FreeRTOS/Source/portable/GCC/ARM_CM4F/portmacro.h ****  * These settings should not be altered.
  43:Middlewares/Third_Party/FreeRTOS/Source/portable/GCC/ARM_CM4F/portmacro.h ****  *-----------------------------------------------------------
ARM GAS  /tmp/ccCA14ZC.s 			page 9


  44:Middlewares/Third_Party/FreeRTOS/Source/portable/GCC/ARM_CM4F/portmacro.h ****  */
  45:Middlewares/Third_Party/FreeRTOS/Source/portable/GCC/ARM_CM4F/portmacro.h **** 
  46:Middlewares/Third_Party/FreeRTOS/Source/portable/GCC/ARM_CM4F/portmacro.h **** /* Type definitions. */
  47:Middlewares/Third_Party/FreeRTOS/Source/portable/GCC/ARM_CM4F/portmacro.h **** #define portCHAR		char
  48:Middlewares/Third_Party/FreeRTOS/Source/portable/GCC/ARM_CM4F/portmacro.h **** #define portFLOAT		float
  49:Middlewares/Third_Party/FreeRTOS/Source/portable/GCC/ARM_CM4F/portmacro.h **** #define portDOUBLE		double
  50:Middlewares/Third_Party/FreeRTOS/Source/portable/GCC/ARM_CM4F/portmacro.h **** #define portLONG		long
  51:Middlewares/Third_Party/FreeRTOS/Source/portable/GCC/ARM_CM4F/portmacro.h **** #define portSHORT		short
  52:Middlewares/Third_Party/FreeRTOS/Source/portable/GCC/ARM_CM4F/portmacro.h **** #define portSTACK_TYPE	uint32_t
  53:Middlewares/Third_Party/FreeRTOS/Source/portable/GCC/ARM_CM4F/portmacro.h **** #define portBASE_TYPE	long
  54:Middlewares/Third_Party/FreeRTOS/Source/portable/GCC/ARM_CM4F/portmacro.h **** 
  55:Middlewares/Third_Party/FreeRTOS/Source/portable/GCC/ARM_CM4F/portmacro.h **** typedef portSTACK_TYPE StackType_t;
  56:Middlewares/Third_Party/FreeRTOS/Source/portable/GCC/ARM_CM4F/portmacro.h **** typedef long BaseType_t;
  57:Middlewares/Third_Party/FreeRTOS/Source/portable/GCC/ARM_CM4F/portmacro.h **** typedef unsigned long UBaseType_t;
  58:Middlewares/Third_Party/FreeRTOS/Source/portable/GCC/ARM_CM4F/portmacro.h **** 
  59:Middlewares/Third_Party/FreeRTOS/Source/portable/GCC/ARM_CM4F/portmacro.h **** #if( configUSE_16_BIT_TICKS == 1 )
  60:Middlewares/Third_Party/FreeRTOS/Source/portable/GCC/ARM_CM4F/portmacro.h **** 	typedef uint16_t TickType_t;
  61:Middlewares/Third_Party/FreeRTOS/Source/portable/GCC/ARM_CM4F/portmacro.h **** 	#define portMAX_DELAY ( TickType_t ) 0xffff
  62:Middlewares/Third_Party/FreeRTOS/Source/portable/GCC/ARM_CM4F/portmacro.h **** #else
  63:Middlewares/Third_Party/FreeRTOS/Source/portable/GCC/ARM_CM4F/portmacro.h **** 	typedef uint32_t TickType_t;
  64:Middlewares/Third_Party/FreeRTOS/Source/portable/GCC/ARM_CM4F/portmacro.h **** 	#define portMAX_DELAY ( TickType_t ) 0xffffffffUL
  65:Middlewares/Third_Party/FreeRTOS/Source/portable/GCC/ARM_CM4F/portmacro.h **** 
  66:Middlewares/Third_Party/FreeRTOS/Source/portable/GCC/ARM_CM4F/portmacro.h **** 	/* 32-bit tick type on a 32-bit architecture, so reads of the tick count do
  67:Middlewares/Third_Party/FreeRTOS/Source/portable/GCC/ARM_CM4F/portmacro.h **** 	not need to be guarded with a critical section. */
  68:Middlewares/Third_Party/FreeRTOS/Source/portable/GCC/ARM_CM4F/portmacro.h **** 	#define portTICK_TYPE_IS_ATOMIC 1
  69:Middlewares/Third_Party/FreeRTOS/Source/portable/GCC/ARM_CM4F/portmacro.h **** #endif
  70:Middlewares/Third_Party/FreeRTOS/Source/portable/GCC/ARM_CM4F/portmacro.h **** /*-----------------------------------------------------------*/
  71:Middlewares/Third_Party/FreeRTOS/Source/portable/GCC/ARM_CM4F/portmacro.h **** 
  72:Middlewares/Third_Party/FreeRTOS/Source/portable/GCC/ARM_CM4F/portmacro.h **** /* Architecture specifics. */
  73:Middlewares/Third_Party/FreeRTOS/Source/portable/GCC/ARM_CM4F/portmacro.h **** #define portSTACK_GROWTH			( -1 )
  74:Middlewares/Third_Party/FreeRTOS/Source/portable/GCC/ARM_CM4F/portmacro.h **** #define portTICK_PERIOD_MS			( ( TickType_t ) 1000 / configTICK_RATE_HZ )
  75:Middlewares/Third_Party/FreeRTOS/Source/portable/GCC/ARM_CM4F/portmacro.h **** #define portBYTE_ALIGNMENT			8
  76:Middlewares/Third_Party/FreeRTOS/Source/portable/GCC/ARM_CM4F/portmacro.h **** /*-----------------------------------------------------------*/
  77:Middlewares/Third_Party/FreeRTOS/Source/portable/GCC/ARM_CM4F/portmacro.h **** 
  78:Middlewares/Third_Party/FreeRTOS/Source/portable/GCC/ARM_CM4F/portmacro.h **** /* Scheduler utilities. */
  79:Middlewares/Third_Party/FreeRTOS/Source/portable/GCC/ARM_CM4F/portmacro.h **** #define portYIELD() 															\
  80:Middlewares/Third_Party/FreeRTOS/Source/portable/GCC/ARM_CM4F/portmacro.h **** {																				\
  81:Middlewares/Third_Party/FreeRTOS/Source/portable/GCC/ARM_CM4F/portmacro.h **** 	/* Set a PendSV to request a context switch. */								\
  82:Middlewares/Third_Party/FreeRTOS/Source/portable/GCC/ARM_CM4F/portmacro.h **** 	portNVIC_INT_CTRL_REG = portNVIC_PENDSVSET_BIT;								\
  83:Middlewares/Third_Party/FreeRTOS/Source/portable/GCC/ARM_CM4F/portmacro.h **** 																				\
  84:Middlewares/Third_Party/FreeRTOS/Source/portable/GCC/ARM_CM4F/portmacro.h **** 	/* Barriers are normally not required but do ensure the code is completely	\
  85:Middlewares/Third_Party/FreeRTOS/Source/portable/GCC/ARM_CM4F/portmacro.h **** 	within the specified behaviour for the architecture. */						\
  86:Middlewares/Third_Party/FreeRTOS/Source/portable/GCC/ARM_CM4F/portmacro.h **** 	__asm volatile( "dsb" ::: "memory" );										\
  87:Middlewares/Third_Party/FreeRTOS/Source/portable/GCC/ARM_CM4F/portmacro.h **** 	__asm volatile( "isb" );													\
  88:Middlewares/Third_Party/FreeRTOS/Source/portable/GCC/ARM_CM4F/portmacro.h **** }
  89:Middlewares/Third_Party/FreeRTOS/Source/portable/GCC/ARM_CM4F/portmacro.h **** 
  90:Middlewares/Third_Party/FreeRTOS/Source/portable/GCC/ARM_CM4F/portmacro.h **** #define portNVIC_INT_CTRL_REG		( * ( ( volatile uint32_t * ) 0xe000ed04 ) )
  91:Middlewares/Third_Party/FreeRTOS/Source/portable/GCC/ARM_CM4F/portmacro.h **** #define portNVIC_PENDSVSET_BIT		( 1UL << 28UL )
  92:Middlewares/Third_Party/FreeRTOS/Source/portable/GCC/ARM_CM4F/portmacro.h **** #define portEND_SWITCHING_ISR( xSwitchRequired ) if( xSwitchRequired != pdFALSE ) portYIELD()
  93:Middlewares/Third_Party/FreeRTOS/Source/portable/GCC/ARM_CM4F/portmacro.h **** #define portYIELD_FROM_ISR( x ) portEND_SWITCHING_ISR( x )
  94:Middlewares/Third_Party/FreeRTOS/Source/portable/GCC/ARM_CM4F/portmacro.h **** /*-----------------------------------------------------------*/
  95:Middlewares/Third_Party/FreeRTOS/Source/portable/GCC/ARM_CM4F/portmacro.h **** 
  96:Middlewares/Third_Party/FreeRTOS/Source/portable/GCC/ARM_CM4F/portmacro.h **** /* Critical section management. */
  97:Middlewares/Third_Party/FreeRTOS/Source/portable/GCC/ARM_CM4F/portmacro.h **** extern void vPortEnterCritical( void );
  98:Middlewares/Third_Party/FreeRTOS/Source/portable/GCC/ARM_CM4F/portmacro.h **** extern void vPortExitCritical( void );
  99:Middlewares/Third_Party/FreeRTOS/Source/portable/GCC/ARM_CM4F/portmacro.h **** #define portSET_INTERRUPT_MASK_FROM_ISR()		ulPortRaiseBASEPRI()
 100:Middlewares/Third_Party/FreeRTOS/Source/portable/GCC/ARM_CM4F/portmacro.h **** #define portCLEAR_INTERRUPT_MASK_FROM_ISR(x)	vPortSetBASEPRI(x)
ARM GAS  /tmp/ccCA14ZC.s 			page 10


 101:Middlewares/Third_Party/FreeRTOS/Source/portable/GCC/ARM_CM4F/portmacro.h **** #define portDISABLE_INTERRUPTS()				vPortRaiseBASEPRI()
 102:Middlewares/Third_Party/FreeRTOS/Source/portable/GCC/ARM_CM4F/portmacro.h **** #define portENABLE_INTERRUPTS()					vPortSetBASEPRI(0)
 103:Middlewares/Third_Party/FreeRTOS/Source/portable/GCC/ARM_CM4F/portmacro.h **** #define portENTER_CRITICAL()					vPortEnterCritical()
 104:Middlewares/Third_Party/FreeRTOS/Source/portable/GCC/ARM_CM4F/portmacro.h **** #define portEXIT_CRITICAL()						vPortExitCritical()
 105:Middlewares/Third_Party/FreeRTOS/Source/portable/GCC/ARM_CM4F/portmacro.h **** 
 106:Middlewares/Third_Party/FreeRTOS/Source/portable/GCC/ARM_CM4F/portmacro.h **** /*-----------------------------------------------------------*/
 107:Middlewares/Third_Party/FreeRTOS/Source/portable/GCC/ARM_CM4F/portmacro.h **** 
 108:Middlewares/Third_Party/FreeRTOS/Source/portable/GCC/ARM_CM4F/portmacro.h **** /* Task function macros as described on the FreeRTOS.org WEB site.  These are
 109:Middlewares/Third_Party/FreeRTOS/Source/portable/GCC/ARM_CM4F/portmacro.h **** not necessary for to use this port.  They are defined so the common demo files
 110:Middlewares/Third_Party/FreeRTOS/Source/portable/GCC/ARM_CM4F/portmacro.h **** (which build with all the ports) will build. */
 111:Middlewares/Third_Party/FreeRTOS/Source/portable/GCC/ARM_CM4F/portmacro.h **** #define portTASK_FUNCTION_PROTO( vFunction, pvParameters ) void vFunction( void *pvParameters )
 112:Middlewares/Third_Party/FreeRTOS/Source/portable/GCC/ARM_CM4F/portmacro.h **** #define portTASK_FUNCTION( vFunction, pvParameters ) void vFunction( void *pvParameters )
 113:Middlewares/Third_Party/FreeRTOS/Source/portable/GCC/ARM_CM4F/portmacro.h **** /*-----------------------------------------------------------*/
 114:Middlewares/Third_Party/FreeRTOS/Source/portable/GCC/ARM_CM4F/portmacro.h **** 
 115:Middlewares/Third_Party/FreeRTOS/Source/portable/GCC/ARM_CM4F/portmacro.h **** /* Tickless idle/low power functionality. */
 116:Middlewares/Third_Party/FreeRTOS/Source/portable/GCC/ARM_CM4F/portmacro.h **** #ifndef portSUPPRESS_TICKS_AND_SLEEP
 117:Middlewares/Third_Party/FreeRTOS/Source/portable/GCC/ARM_CM4F/portmacro.h **** 	extern void vPortSuppressTicksAndSleep( TickType_t xExpectedIdleTime );
 118:Middlewares/Third_Party/FreeRTOS/Source/portable/GCC/ARM_CM4F/portmacro.h **** 	#define portSUPPRESS_TICKS_AND_SLEEP( xExpectedIdleTime ) vPortSuppressTicksAndSleep( xExpectedIdl
 119:Middlewares/Third_Party/FreeRTOS/Source/portable/GCC/ARM_CM4F/portmacro.h **** #endif
 120:Middlewares/Third_Party/FreeRTOS/Source/portable/GCC/ARM_CM4F/portmacro.h **** /*-----------------------------------------------------------*/
 121:Middlewares/Third_Party/FreeRTOS/Source/portable/GCC/ARM_CM4F/portmacro.h **** 
 122:Middlewares/Third_Party/FreeRTOS/Source/portable/GCC/ARM_CM4F/portmacro.h **** /* Architecture specific optimisations. */
 123:Middlewares/Third_Party/FreeRTOS/Source/portable/GCC/ARM_CM4F/portmacro.h **** #ifndef configUSE_PORT_OPTIMISED_TASK_SELECTION
 124:Middlewares/Third_Party/FreeRTOS/Source/portable/GCC/ARM_CM4F/portmacro.h **** 	#define configUSE_PORT_OPTIMISED_TASK_SELECTION 1
 125:Middlewares/Third_Party/FreeRTOS/Source/portable/GCC/ARM_CM4F/portmacro.h **** #endif
 126:Middlewares/Third_Party/FreeRTOS/Source/portable/GCC/ARM_CM4F/portmacro.h **** 
 127:Middlewares/Third_Party/FreeRTOS/Source/portable/GCC/ARM_CM4F/portmacro.h **** #if configUSE_PORT_OPTIMISED_TASK_SELECTION == 1
 128:Middlewares/Third_Party/FreeRTOS/Source/portable/GCC/ARM_CM4F/portmacro.h **** 
 129:Middlewares/Third_Party/FreeRTOS/Source/portable/GCC/ARM_CM4F/portmacro.h **** 	/* Generic helper function. */
 130:Middlewares/Third_Party/FreeRTOS/Source/portable/GCC/ARM_CM4F/portmacro.h **** 	__attribute__( ( always_inline ) ) static inline uint8_t ucPortCountLeadingZeros( uint32_t ulBitma
 131:Middlewares/Third_Party/FreeRTOS/Source/portable/GCC/ARM_CM4F/portmacro.h **** 	{
 132:Middlewares/Third_Party/FreeRTOS/Source/portable/GCC/ARM_CM4F/portmacro.h **** 	uint8_t ucReturn;
 133:Middlewares/Third_Party/FreeRTOS/Source/portable/GCC/ARM_CM4F/portmacro.h **** 
 134:Middlewares/Third_Party/FreeRTOS/Source/portable/GCC/ARM_CM4F/portmacro.h **** 		__asm volatile ( "clz %0, %1" : "=r" ( ucReturn ) : "r" ( ulBitmap ) : "memory" );
 135:Middlewares/Third_Party/FreeRTOS/Source/portable/GCC/ARM_CM4F/portmacro.h **** 		return ucReturn;
 136:Middlewares/Third_Party/FreeRTOS/Source/portable/GCC/ARM_CM4F/portmacro.h **** 	}
 137:Middlewares/Third_Party/FreeRTOS/Source/portable/GCC/ARM_CM4F/portmacro.h **** 
 138:Middlewares/Third_Party/FreeRTOS/Source/portable/GCC/ARM_CM4F/portmacro.h **** 	/* Check the configuration. */
 139:Middlewares/Third_Party/FreeRTOS/Source/portable/GCC/ARM_CM4F/portmacro.h **** 	#if( configMAX_PRIORITIES > 32 )
 140:Middlewares/Third_Party/FreeRTOS/Source/portable/GCC/ARM_CM4F/portmacro.h **** 		#error configUSE_PORT_OPTIMISED_TASK_SELECTION can only be set to 1 when configMAX_PRIORITIES is 
 141:Middlewares/Third_Party/FreeRTOS/Source/portable/GCC/ARM_CM4F/portmacro.h **** 	#endif
 142:Middlewares/Third_Party/FreeRTOS/Source/portable/GCC/ARM_CM4F/portmacro.h **** 
 143:Middlewares/Third_Party/FreeRTOS/Source/portable/GCC/ARM_CM4F/portmacro.h **** 	/* Store/clear the ready priorities in a bit map. */
 144:Middlewares/Third_Party/FreeRTOS/Source/portable/GCC/ARM_CM4F/portmacro.h **** 	#define portRECORD_READY_PRIORITY( uxPriority, uxReadyPriorities ) ( uxReadyPriorities ) |= ( 1UL 
 145:Middlewares/Third_Party/FreeRTOS/Source/portable/GCC/ARM_CM4F/portmacro.h **** 	#define portRESET_READY_PRIORITY( uxPriority, uxReadyPriorities ) ( uxReadyPriorities ) &= ~( 1UL 
 146:Middlewares/Third_Party/FreeRTOS/Source/portable/GCC/ARM_CM4F/portmacro.h **** 
 147:Middlewares/Third_Party/FreeRTOS/Source/portable/GCC/ARM_CM4F/portmacro.h **** 	/*-----------------------------------------------------------*/
 148:Middlewares/Third_Party/FreeRTOS/Source/portable/GCC/ARM_CM4F/portmacro.h **** 
 149:Middlewares/Third_Party/FreeRTOS/Source/portable/GCC/ARM_CM4F/portmacro.h **** 	#define portGET_HIGHEST_PRIORITY( uxTopPriority, uxReadyPriorities ) uxTopPriority = ( 31UL - ( ui
 150:Middlewares/Third_Party/FreeRTOS/Source/portable/GCC/ARM_CM4F/portmacro.h **** 
 151:Middlewares/Third_Party/FreeRTOS/Source/portable/GCC/ARM_CM4F/portmacro.h **** #endif /* configUSE_PORT_OPTIMISED_TASK_SELECTION */
 152:Middlewares/Third_Party/FreeRTOS/Source/portable/GCC/ARM_CM4F/portmacro.h **** 
 153:Middlewares/Third_Party/FreeRTOS/Source/portable/GCC/ARM_CM4F/portmacro.h **** /*-----------------------------------------------------------*/
 154:Middlewares/Third_Party/FreeRTOS/Source/portable/GCC/ARM_CM4F/portmacro.h **** 
 155:Middlewares/Third_Party/FreeRTOS/Source/portable/GCC/ARM_CM4F/portmacro.h **** #ifdef configASSERT
 156:Middlewares/Third_Party/FreeRTOS/Source/portable/GCC/ARM_CM4F/portmacro.h **** 	void vPortValidateInterruptPriority( void );
 157:Middlewares/Third_Party/FreeRTOS/Source/portable/GCC/ARM_CM4F/portmacro.h **** 	#define portASSERT_IF_INTERRUPT_PRIORITY_INVALID() 	vPortValidateInterruptPriority()
ARM GAS  /tmp/ccCA14ZC.s 			page 11


 158:Middlewares/Third_Party/FreeRTOS/Source/portable/GCC/ARM_CM4F/portmacro.h **** #endif
 159:Middlewares/Third_Party/FreeRTOS/Source/portable/GCC/ARM_CM4F/portmacro.h **** 
 160:Middlewares/Third_Party/FreeRTOS/Source/portable/GCC/ARM_CM4F/portmacro.h **** /* portNOP() is not required by this port. */
 161:Middlewares/Third_Party/FreeRTOS/Source/portable/GCC/ARM_CM4F/portmacro.h **** #define portNOP()
 162:Middlewares/Third_Party/FreeRTOS/Source/portable/GCC/ARM_CM4F/portmacro.h **** 
 163:Middlewares/Third_Party/FreeRTOS/Source/portable/GCC/ARM_CM4F/portmacro.h **** #define portINLINE	__inline
 164:Middlewares/Third_Party/FreeRTOS/Source/portable/GCC/ARM_CM4F/portmacro.h **** 
 165:Middlewares/Third_Party/FreeRTOS/Source/portable/GCC/ARM_CM4F/portmacro.h **** #ifndef portFORCE_INLINE
 166:Middlewares/Third_Party/FreeRTOS/Source/portable/GCC/ARM_CM4F/portmacro.h **** 	#define portFORCE_INLINE inline __attribute__(( always_inline))
 167:Middlewares/Third_Party/FreeRTOS/Source/portable/GCC/ARM_CM4F/portmacro.h **** #endif
 168:Middlewares/Third_Party/FreeRTOS/Source/portable/GCC/ARM_CM4F/portmacro.h **** 
 169:Middlewares/Third_Party/FreeRTOS/Source/portable/GCC/ARM_CM4F/portmacro.h **** portFORCE_INLINE static BaseType_t xPortIsInsideInterrupt( void )
 170:Middlewares/Third_Party/FreeRTOS/Source/portable/GCC/ARM_CM4F/portmacro.h **** {
 171:Middlewares/Third_Party/FreeRTOS/Source/portable/GCC/ARM_CM4F/portmacro.h **** uint32_t ulCurrentInterrupt;
 172:Middlewares/Third_Party/FreeRTOS/Source/portable/GCC/ARM_CM4F/portmacro.h **** BaseType_t xReturn;
 173:Middlewares/Third_Party/FreeRTOS/Source/portable/GCC/ARM_CM4F/portmacro.h **** 
 174:Middlewares/Third_Party/FreeRTOS/Source/portable/GCC/ARM_CM4F/portmacro.h **** 	/* Obtain the number of the currently executing interrupt. */
 175:Middlewares/Third_Party/FreeRTOS/Source/portable/GCC/ARM_CM4F/portmacro.h **** 	__asm volatile( "mrs %0, ipsr" : "=r"( ulCurrentInterrupt ) :: "memory" );
 176:Middlewares/Third_Party/FreeRTOS/Source/portable/GCC/ARM_CM4F/portmacro.h **** 
 177:Middlewares/Third_Party/FreeRTOS/Source/portable/GCC/ARM_CM4F/portmacro.h **** 	if( ulCurrentInterrupt == 0 )
 178:Middlewares/Third_Party/FreeRTOS/Source/portable/GCC/ARM_CM4F/portmacro.h **** 	{
 179:Middlewares/Third_Party/FreeRTOS/Source/portable/GCC/ARM_CM4F/portmacro.h **** 		xReturn = pdFALSE;
 180:Middlewares/Third_Party/FreeRTOS/Source/portable/GCC/ARM_CM4F/portmacro.h **** 	}
 181:Middlewares/Third_Party/FreeRTOS/Source/portable/GCC/ARM_CM4F/portmacro.h **** 	else
 182:Middlewares/Third_Party/FreeRTOS/Source/portable/GCC/ARM_CM4F/portmacro.h **** 	{
 183:Middlewares/Third_Party/FreeRTOS/Source/portable/GCC/ARM_CM4F/portmacro.h **** 		xReturn = pdTRUE;
 184:Middlewares/Third_Party/FreeRTOS/Source/portable/GCC/ARM_CM4F/portmacro.h **** 	}
 185:Middlewares/Third_Party/FreeRTOS/Source/portable/GCC/ARM_CM4F/portmacro.h **** 
 186:Middlewares/Third_Party/FreeRTOS/Source/portable/GCC/ARM_CM4F/portmacro.h **** 	return xReturn;
 187:Middlewares/Third_Party/FreeRTOS/Source/portable/GCC/ARM_CM4F/portmacro.h **** }
 188:Middlewares/Third_Party/FreeRTOS/Source/portable/GCC/ARM_CM4F/portmacro.h **** 
 189:Middlewares/Third_Party/FreeRTOS/Source/portable/GCC/ARM_CM4F/portmacro.h **** /*-----------------------------------------------------------*/
 190:Middlewares/Third_Party/FreeRTOS/Source/portable/GCC/ARM_CM4F/portmacro.h **** 
 191:Middlewares/Third_Party/FreeRTOS/Source/portable/GCC/ARM_CM4F/portmacro.h **** portFORCE_INLINE static void vPortRaiseBASEPRI( void )
 192:Middlewares/Third_Party/FreeRTOS/Source/portable/GCC/ARM_CM4F/portmacro.h **** {
 193:Middlewares/Third_Party/FreeRTOS/Source/portable/GCC/ARM_CM4F/portmacro.h **** uint32_t ulNewBASEPRI;
 194:Middlewares/Third_Party/FreeRTOS/Source/portable/GCC/ARM_CM4F/portmacro.h **** 
 195:Middlewares/Third_Party/FreeRTOS/Source/portable/GCC/ARM_CM4F/portmacro.h **** 	__asm volatile
 143              		.loc 2 195 2 discriminator 1
 144              		.syntax unified
 145              	@ 195 "Middlewares/Third_Party/FreeRTOS/Source/portable/GCC/ARM_CM4F/portmacro.h" 1
 146 0060 4FF05003 			mov r3, #80												
 147 0064 83F31188 		msr basepri, r3											
 148 0068 BFF36F8F 		isb														
 149 006c BFF34F8F 		dsb														
 150              	
 151              	@ 0 "" 2
 152              		.thumb
 153              		.syntax unified
 154 0070 3B61     		str	r3, [r7, #16]
 155              	.L5:
 156              	.LBE45:
 157              	.LBE44:
 158              		.loc 1 275 2 discriminator 1
 159 0072 FEE7     		b	.L5
 160              	.L4:
 276:Middlewares/Third_Party/FreeRTOS/Source/timers.c **** 	return xReturn;
ARM GAS  /tmp/ccCA14ZC.s 			page 12


 161              		.loc 1 276 9
 162 0074 7B69     		ldr	r3, [r7, #20]
 277:Middlewares/Third_Party/FreeRTOS/Source/timers.c **** }
 163              		.loc 1 277 1
 164 0076 1846     		mov	r0, r3
 165 0078 1837     		adds	r7, r7, #24
 166              	.LCFI3:
 167              		.cfi_def_cfa_offset 8
 168 007a BD46     		mov	sp, r7
 169              	.LCFI4:
 170              		.cfi_def_cfa_register 13
 171              		@ sp needed
 172 007c 80BD     		pop	{r7, pc}
 173              	.L8:
 174 007e 00BF     		.align	2
 175              	.L7:
 176 0080 00000000 		.word	xTimerQueue
 177 0084 00000000 		.word	.LC0
 178 0088 00000000 		.word	prvTimerTask
 179 008c 00000000 		.word	xTimerTaskHandle
 180              		.cfi_endproc
 181              	.LFE4:
 183              		.section	.text.xTimerCreate,"ax",%progbits
 184              		.align	1
 185              		.global	xTimerCreate
 186              		.syntax unified
 187              		.thumb
 188              		.thumb_func
 189              		.fpu fpv4-sp-d16
 191              	xTimerCreate:
 192              	.LFB5:
 278:Middlewares/Third_Party/FreeRTOS/Source/timers.c **** /*-----------------------------------------------------------*/
 279:Middlewares/Third_Party/FreeRTOS/Source/timers.c **** 
 280:Middlewares/Third_Party/FreeRTOS/Source/timers.c **** #if( configSUPPORT_DYNAMIC_ALLOCATION == 1 )
 281:Middlewares/Third_Party/FreeRTOS/Source/timers.c **** 
 282:Middlewares/Third_Party/FreeRTOS/Source/timers.c **** 	TimerHandle_t xTimerCreate(	const char * const pcTimerName,			/*lint !e971 Unqualified char types 
 283:Middlewares/Third_Party/FreeRTOS/Source/timers.c **** 								const TickType_t xTimerPeriodInTicks,
 284:Middlewares/Third_Party/FreeRTOS/Source/timers.c **** 								const UBaseType_t uxAutoReload,
 285:Middlewares/Third_Party/FreeRTOS/Source/timers.c **** 								void * const pvTimerID,
 286:Middlewares/Third_Party/FreeRTOS/Source/timers.c **** 								TimerCallbackFunction_t pxCallbackFunction )
 287:Middlewares/Third_Party/FreeRTOS/Source/timers.c **** 	{
 193              		.loc 1 287 2
 194              		.cfi_startproc
 195              		@ args = 4, pretend = 0, frame = 24
 196              		@ frame_needed = 1, uses_anonymous_args = 0
 197 0000 80B5     		push	{r7, lr}
 198              	.LCFI5:
 199              		.cfi_def_cfa_offset 8
 200              		.cfi_offset 7, -8
 201              		.cfi_offset 14, -4
 202 0002 88B0     		sub	sp, sp, #32
 203              	.LCFI6:
 204              		.cfi_def_cfa_offset 40
 205 0004 02AF     		add	r7, sp, #8
 206              	.LCFI7:
 207              		.cfi_def_cfa 7, 32
 208 0006 F860     		str	r0, [r7, #12]
ARM GAS  /tmp/ccCA14ZC.s 			page 13


 209 0008 B960     		str	r1, [r7, #8]
 210 000a 7A60     		str	r2, [r7, #4]
 211 000c 3B60     		str	r3, [r7]
 288:Middlewares/Third_Party/FreeRTOS/Source/timers.c **** 	Timer_t *pxNewTimer;
 289:Middlewares/Third_Party/FreeRTOS/Source/timers.c **** 
 290:Middlewares/Third_Party/FreeRTOS/Source/timers.c **** 		pxNewTimer = ( Timer_t * ) pvPortMalloc( sizeof( Timer_t ) ); /*lint !e9087 !e9079 All values ret
 212              		.loc 1 290 30
 213 000e 2C20     		movs	r0, #44
 214 0010 FFF7FEFF 		bl	pvPortMalloc
 215 0014 7861     		str	r0, [r7, #20]
 291:Middlewares/Third_Party/FreeRTOS/Source/timers.c **** 
 292:Middlewares/Third_Party/FreeRTOS/Source/timers.c **** 		if( pxNewTimer != NULL )
 216              		.loc 1 292 5
 217 0016 7B69     		ldr	r3, [r7, #20]
 218 0018 002B     		cmp	r3, #0
 219 001a 0DD0     		beq	.L10
 293:Middlewares/Third_Party/FreeRTOS/Source/timers.c **** 		{
 294:Middlewares/Third_Party/FreeRTOS/Source/timers.c **** 			/* Status is thus far zero as the timer is not created statically
 295:Middlewares/Third_Party/FreeRTOS/Source/timers.c **** 			and has not been started.  The autoreload bit may get set in
 296:Middlewares/Third_Party/FreeRTOS/Source/timers.c **** 			prvInitialiseNewTimer. */
 297:Middlewares/Third_Party/FreeRTOS/Source/timers.c **** 			pxNewTimer->ucStatus = 0x00;
 220              		.loc 1 297 25
 221 001c 7B69     		ldr	r3, [r7, #20]
 222 001e 0022     		movs	r2, #0
 223 0020 83F82820 		strb	r2, [r3, #40]
 298:Middlewares/Third_Party/FreeRTOS/Source/timers.c **** 			prvInitialiseNewTimer( pcTimerName, xTimerPeriodInTicks, uxAutoReload, pvTimerID, pxCallbackFunc
 224              		.loc 1 298 4
 225 0024 7B69     		ldr	r3, [r7, #20]
 226 0026 0193     		str	r3, [sp, #4]
 227 0028 3B6A     		ldr	r3, [r7, #32]
 228 002a 0093     		str	r3, [sp]
 229 002c 3B68     		ldr	r3, [r7]
 230 002e 7A68     		ldr	r2, [r7, #4]
 231 0030 B968     		ldr	r1, [r7, #8]
 232 0032 F868     		ldr	r0, [r7, #12]
 233 0034 FFF7FEFF 		bl	prvInitialiseNewTimer
 234              	.L10:
 299:Middlewares/Third_Party/FreeRTOS/Source/timers.c **** 		}
 300:Middlewares/Third_Party/FreeRTOS/Source/timers.c **** 
 301:Middlewares/Third_Party/FreeRTOS/Source/timers.c **** 		return pxNewTimer;
 235              		.loc 1 301 10
 236 0038 7B69     		ldr	r3, [r7, #20]
 302:Middlewares/Third_Party/FreeRTOS/Source/timers.c **** 	}
 237              		.loc 1 302 2
 238 003a 1846     		mov	r0, r3
 239 003c 1837     		adds	r7, r7, #24
 240              	.LCFI8:
 241              		.cfi_def_cfa_offset 8
 242 003e BD46     		mov	sp, r7
 243              	.LCFI9:
 244              		.cfi_def_cfa_register 13
 245              		@ sp needed
 246 0040 80BD     		pop	{r7, pc}
 247              		.cfi_endproc
 248              	.LFE5:
 250              		.section	.text.xTimerCreateStatic,"ax",%progbits
 251              		.align	1
ARM GAS  /tmp/ccCA14ZC.s 			page 14


 252              		.global	xTimerCreateStatic
 253              		.syntax unified
 254              		.thumb
 255              		.thumb_func
 256              		.fpu fpv4-sp-d16
 258              	xTimerCreateStatic:
 259              	.LFB6:
 303:Middlewares/Third_Party/FreeRTOS/Source/timers.c **** 
 304:Middlewares/Third_Party/FreeRTOS/Source/timers.c **** #endif /* configSUPPORT_DYNAMIC_ALLOCATION */
 305:Middlewares/Third_Party/FreeRTOS/Source/timers.c **** /*-----------------------------------------------------------*/
 306:Middlewares/Third_Party/FreeRTOS/Source/timers.c **** 
 307:Middlewares/Third_Party/FreeRTOS/Source/timers.c **** #if( configSUPPORT_STATIC_ALLOCATION == 1 )
 308:Middlewares/Third_Party/FreeRTOS/Source/timers.c **** 
 309:Middlewares/Third_Party/FreeRTOS/Source/timers.c **** 	TimerHandle_t xTimerCreateStatic(	const char * const pcTimerName,		/*lint !e971 Unqualified char t
 310:Middlewares/Third_Party/FreeRTOS/Source/timers.c **** 										const TickType_t xTimerPeriodInTicks,
 311:Middlewares/Third_Party/FreeRTOS/Source/timers.c **** 										const UBaseType_t uxAutoReload,
 312:Middlewares/Third_Party/FreeRTOS/Source/timers.c **** 										void * const pvTimerID,
 313:Middlewares/Third_Party/FreeRTOS/Source/timers.c **** 										TimerCallbackFunction_t pxCallbackFunction,
 314:Middlewares/Third_Party/FreeRTOS/Source/timers.c **** 										StaticTimer_t *pxTimerBuffer )
 315:Middlewares/Third_Party/FreeRTOS/Source/timers.c **** 	{
 260              		.loc 1 315 2
 261              		.cfi_startproc
 262              		@ args = 8, pretend = 0, frame = 32
 263              		@ frame_needed = 1, uses_anonymous_args = 0
 264 0000 80B5     		push	{r7, lr}
 265              	.LCFI10:
 266              		.cfi_def_cfa_offset 8
 267              		.cfi_offset 7, -8
 268              		.cfi_offset 14, -4
 269 0002 8AB0     		sub	sp, sp, #40
 270              	.LCFI11:
 271              		.cfi_def_cfa_offset 48
 272 0004 02AF     		add	r7, sp, #8
 273              	.LCFI12:
 274              		.cfi_def_cfa 7, 40
 275 0006 F860     		str	r0, [r7, #12]
 276 0008 B960     		str	r1, [r7, #8]
 277 000a 7A60     		str	r2, [r7, #4]
 278 000c 3B60     		str	r3, [r7]
 279              	.LBB46:
 316:Middlewares/Third_Party/FreeRTOS/Source/timers.c **** 	Timer_t *pxNewTimer;
 317:Middlewares/Third_Party/FreeRTOS/Source/timers.c **** 
 318:Middlewares/Third_Party/FreeRTOS/Source/timers.c **** 		#if( configASSERT_DEFINED == 1 )
 319:Middlewares/Third_Party/FreeRTOS/Source/timers.c **** 		{
 320:Middlewares/Third_Party/FreeRTOS/Source/timers.c **** 			/* Sanity check that the size of the structure used to declare a
 321:Middlewares/Third_Party/FreeRTOS/Source/timers.c **** 			variable of type StaticTimer_t equals the size of the real timer
 322:Middlewares/Third_Party/FreeRTOS/Source/timers.c **** 			structure. */
 323:Middlewares/Third_Party/FreeRTOS/Source/timers.c **** 			volatile size_t xSize = sizeof( StaticTimer_t );
 280              		.loc 1 323 20
 281 000e 2C23     		movs	r3, #44
 282 0010 3B61     		str	r3, [r7, #16]
 324:Middlewares/Third_Party/FreeRTOS/Source/timers.c **** 			configASSERT( xSize == sizeof( Timer_t ) );
 283              		.loc 1 324 4
 284 0012 3B69     		ldr	r3, [r7, #16]
 285 0014 2C2B     		cmp	r3, #44
 286 0016 09D0     		beq	.L13
 287              	.LBB47:
ARM GAS  /tmp/ccCA14ZC.s 			page 15


 288              	.LBB48:
 289              		.loc 2 195 2 discriminator 1
 290              		.syntax unified
 291              	@ 195 "Middlewares/Third_Party/FreeRTOS/Source/portable/GCC/ARM_CM4F/portmacro.h" 1
 292 0018 4FF05003 			mov r3, #80												
 293 001c 83F31188 		msr basepri, r3											
 294 0020 BFF36F8F 		isb														
 295 0024 BFF34F8F 		dsb														
 296              	
 297              	@ 0 "" 2
 298              		.thumb
 299              		.syntax unified
 300 0028 BB61     		str	r3, [r7, #24]
 301              	.L14:
 302              	.LBE48:
 303              	.LBE47:
 304              		.loc 1 324 4 discriminator 1
 305 002a FEE7     		b	.L14
 306              	.L13:
 325:Middlewares/Third_Party/FreeRTOS/Source/timers.c **** 			( void ) xSize; /* Keeps lint quiet when configASSERT() is not defined. */
 307              		.loc 1 325 4
 308 002c 3B69     		ldr	r3, [r7, #16]
 309              	.LBE46:
 326:Middlewares/Third_Party/FreeRTOS/Source/timers.c **** 		}
 327:Middlewares/Third_Party/FreeRTOS/Source/timers.c **** 		#endif /* configASSERT_DEFINED */
 328:Middlewares/Third_Party/FreeRTOS/Source/timers.c **** 
 329:Middlewares/Third_Party/FreeRTOS/Source/timers.c **** 		/* A pointer to a StaticTimer_t structure MUST be provided, use it. */
 330:Middlewares/Third_Party/FreeRTOS/Source/timers.c **** 		configASSERT( pxTimerBuffer );
 310              		.loc 1 330 3
 311 002e FB6A     		ldr	r3, [r7, #44]
 312 0030 002B     		cmp	r3, #0
 313 0032 09D1     		bne	.L15
 314              	.LBB49:
 315              	.LBB50:
 316              		.loc 2 195 2 discriminator 1
 317              		.syntax unified
 318              	@ 195 "Middlewares/Third_Party/FreeRTOS/Source/portable/GCC/ARM_CM4F/portmacro.h" 1
 319 0034 4FF05003 			mov r3, #80												
 320 0038 83F31188 		msr basepri, r3											
 321 003c BFF36F8F 		isb														
 322 0040 BFF34F8F 		dsb														
 323              	
 324              	@ 0 "" 2
 325              		.thumb
 326              		.syntax unified
 327 0044 7B61     		str	r3, [r7, #20]
 328              	.L16:
 329              	.LBE50:
 330              	.LBE49:
 331              		.loc 1 330 3 discriminator 2
 332 0046 FEE7     		b	.L16
 333              	.L15:
 331:Middlewares/Third_Party/FreeRTOS/Source/timers.c **** 		pxNewTimer = ( Timer_t * ) pxTimerBuffer; /*lint !e740 !e9087 StaticTimer_t is a pointer to a Tim
 334              		.loc 1 331 14
 335 0048 FB6A     		ldr	r3, [r7, #44]
 336 004a FB61     		str	r3, [r7, #28]
 332:Middlewares/Third_Party/FreeRTOS/Source/timers.c **** 
ARM GAS  /tmp/ccCA14ZC.s 			page 16


 333:Middlewares/Third_Party/FreeRTOS/Source/timers.c **** 		if( pxNewTimer != NULL )
 337              		.loc 1 333 5
 338 004c FB69     		ldr	r3, [r7, #28]
 339 004e 002B     		cmp	r3, #0
 340 0050 0DD0     		beq	.L17
 334:Middlewares/Third_Party/FreeRTOS/Source/timers.c **** 		{
 335:Middlewares/Third_Party/FreeRTOS/Source/timers.c **** 			/* Timers can be created statically or dynamically so note this
 336:Middlewares/Third_Party/FreeRTOS/Source/timers.c **** 			timer was created statically in case it is later deleted.  The
 337:Middlewares/Third_Party/FreeRTOS/Source/timers.c **** 			autoreload bit may get set in prvInitialiseNewTimer(). */
 338:Middlewares/Third_Party/FreeRTOS/Source/timers.c **** 			pxNewTimer->ucStatus = tmrSTATUS_IS_STATICALLY_ALLOCATED;
 341              		.loc 1 338 25
 342 0052 FB69     		ldr	r3, [r7, #28]
 343 0054 0222     		movs	r2, #2
 344 0056 83F82820 		strb	r2, [r3, #40]
 339:Middlewares/Third_Party/FreeRTOS/Source/timers.c **** 
 340:Middlewares/Third_Party/FreeRTOS/Source/timers.c **** 			prvInitialiseNewTimer( pcTimerName, xTimerPeriodInTicks, uxAutoReload, pvTimerID, pxCallbackFunc
 345              		.loc 1 340 4
 346 005a FB69     		ldr	r3, [r7, #28]
 347 005c 0193     		str	r3, [sp, #4]
 348 005e BB6A     		ldr	r3, [r7, #40]
 349 0060 0093     		str	r3, [sp]
 350 0062 3B68     		ldr	r3, [r7]
 351 0064 7A68     		ldr	r2, [r7, #4]
 352 0066 B968     		ldr	r1, [r7, #8]
 353 0068 F868     		ldr	r0, [r7, #12]
 354 006a FFF7FEFF 		bl	prvInitialiseNewTimer
 355              	.L17:
 341:Middlewares/Third_Party/FreeRTOS/Source/timers.c **** 		}
 342:Middlewares/Third_Party/FreeRTOS/Source/timers.c **** 
 343:Middlewares/Third_Party/FreeRTOS/Source/timers.c **** 		return pxNewTimer;
 356              		.loc 1 343 10
 357 006e FB69     		ldr	r3, [r7, #28]
 344:Middlewares/Third_Party/FreeRTOS/Source/timers.c **** 	}
 358              		.loc 1 344 2
 359 0070 1846     		mov	r0, r3
 360 0072 2037     		adds	r7, r7, #32
 361              	.LCFI13:
 362              		.cfi_def_cfa_offset 8
 363 0074 BD46     		mov	sp, r7
 364              	.LCFI14:
 365              		.cfi_def_cfa_register 13
 366              		@ sp needed
 367 0076 80BD     		pop	{r7, pc}
 368              		.cfi_endproc
 369              	.LFE6:
 371              		.section	.text.prvInitialiseNewTimer,"ax",%progbits
 372              		.align	1
 373              		.syntax unified
 374              		.thumb
 375              		.thumb_func
 376              		.fpu fpv4-sp-d16
 378              	prvInitialiseNewTimer:
 379              	.LFB7:
 345:Middlewares/Third_Party/FreeRTOS/Source/timers.c **** 
 346:Middlewares/Third_Party/FreeRTOS/Source/timers.c **** #endif /* configSUPPORT_STATIC_ALLOCATION */
 347:Middlewares/Third_Party/FreeRTOS/Source/timers.c **** /*-----------------------------------------------------------*/
 348:Middlewares/Third_Party/FreeRTOS/Source/timers.c **** 
ARM GAS  /tmp/ccCA14ZC.s 			page 17


 349:Middlewares/Third_Party/FreeRTOS/Source/timers.c **** static void prvInitialiseNewTimer(	const char * const pcTimerName,			/*lint !e971 Unqualified char 
 350:Middlewares/Third_Party/FreeRTOS/Source/timers.c **** 									const TickType_t xTimerPeriodInTicks,
 351:Middlewares/Third_Party/FreeRTOS/Source/timers.c **** 									const UBaseType_t uxAutoReload,
 352:Middlewares/Third_Party/FreeRTOS/Source/timers.c **** 									void * const pvTimerID,
 353:Middlewares/Third_Party/FreeRTOS/Source/timers.c **** 									TimerCallbackFunction_t pxCallbackFunction,
 354:Middlewares/Third_Party/FreeRTOS/Source/timers.c **** 									Timer_t *pxNewTimer )
 355:Middlewares/Third_Party/FreeRTOS/Source/timers.c **** {
 380              		.loc 1 355 1
 381              		.cfi_startproc
 382              		@ args = 8, pretend = 0, frame = 24
 383              		@ frame_needed = 1, uses_anonymous_args = 0
 384 0000 80B5     		push	{r7, lr}
 385              	.LCFI15:
 386              		.cfi_def_cfa_offset 8
 387              		.cfi_offset 7, -8
 388              		.cfi_offset 14, -4
 389 0002 86B0     		sub	sp, sp, #24
 390              	.LCFI16:
 391              		.cfi_def_cfa_offset 32
 392 0004 00AF     		add	r7, sp, #0
 393              	.LCFI17:
 394              		.cfi_def_cfa_register 7
 395 0006 F860     		str	r0, [r7, #12]
 396 0008 B960     		str	r1, [r7, #8]
 397 000a 7A60     		str	r2, [r7, #4]
 398 000c 3B60     		str	r3, [r7]
 356:Middlewares/Third_Party/FreeRTOS/Source/timers.c **** 	/* 0 is not a valid value for xTimerPeriodInTicks. */
 357:Middlewares/Third_Party/FreeRTOS/Source/timers.c **** 	configASSERT( ( xTimerPeriodInTicks > 0 ) );
 399              		.loc 1 357 2
 400 000e BB68     		ldr	r3, [r7, #8]
 401 0010 002B     		cmp	r3, #0
 402 0012 09D1     		bne	.L20
 403              	.LBB51:
 404              	.LBB52:
 405              		.loc 2 195 2 discriminator 1
 406              		.syntax unified
 407              	@ 195 "Middlewares/Third_Party/FreeRTOS/Source/portable/GCC/ARM_CM4F/portmacro.h" 1
 408 0014 4FF05003 			mov r3, #80												
 409 0018 83F31188 		msr basepri, r3											
 410 001c BFF36F8F 		isb														
 411 0020 BFF34F8F 		dsb														
 412              	
 413              	@ 0 "" 2
 414              		.thumb
 415              		.syntax unified
 416 0024 7B61     		str	r3, [r7, #20]
 417              	.L21:
 418              	.LBE52:
 419              	.LBE51:
 420              		.loc 1 357 2 discriminator 1
 421 0026 FEE7     		b	.L21
 422              	.L20:
 358:Middlewares/Third_Party/FreeRTOS/Source/timers.c **** 
 359:Middlewares/Third_Party/FreeRTOS/Source/timers.c **** 	if( pxNewTimer != NULL )
 423              		.loc 1 359 4
 424 0028 7B6A     		ldr	r3, [r7, #36]
 425 002a 002B     		cmp	r3, #0
ARM GAS  /tmp/ccCA14ZC.s 			page 18


 426 002c 1ED0     		beq	.L23
 360:Middlewares/Third_Party/FreeRTOS/Source/timers.c **** 	{
 361:Middlewares/Third_Party/FreeRTOS/Source/timers.c **** 		/* Ensure the infrastructure used by the timer service task has been
 362:Middlewares/Third_Party/FreeRTOS/Source/timers.c **** 		created/initialised. */
 363:Middlewares/Third_Party/FreeRTOS/Source/timers.c **** 		prvCheckForValidListAndQueue();
 427              		.loc 1 363 3
 428 002e FFF7FEFF 		bl	prvCheckForValidListAndQueue
 364:Middlewares/Third_Party/FreeRTOS/Source/timers.c **** 
 365:Middlewares/Third_Party/FreeRTOS/Source/timers.c **** 		/* Initialise the timer structure members using the function
 366:Middlewares/Third_Party/FreeRTOS/Source/timers.c **** 		parameters. */
 367:Middlewares/Third_Party/FreeRTOS/Source/timers.c **** 		pxNewTimer->pcTimerName = pcTimerName;
 429              		.loc 1 367 27
 430 0032 7B6A     		ldr	r3, [r7, #36]
 431 0034 FA68     		ldr	r2, [r7, #12]
 432 0036 1A60     		str	r2, [r3]
 368:Middlewares/Third_Party/FreeRTOS/Source/timers.c **** 		pxNewTimer->xTimerPeriodInTicks = xTimerPeriodInTicks;
 433              		.loc 1 368 35
 434 0038 7B6A     		ldr	r3, [r7, #36]
 435 003a BA68     		ldr	r2, [r7, #8]
 436 003c 9A61     		str	r2, [r3, #24]
 369:Middlewares/Third_Party/FreeRTOS/Source/timers.c **** 		pxNewTimer->pvTimerID = pvTimerID;
 437              		.loc 1 369 25
 438 003e 7B6A     		ldr	r3, [r7, #36]
 439 0040 3A68     		ldr	r2, [r7]
 440 0042 DA61     		str	r2, [r3, #28]
 370:Middlewares/Third_Party/FreeRTOS/Source/timers.c **** 		pxNewTimer->pxCallbackFunction = pxCallbackFunction;
 441              		.loc 1 370 34
 442 0044 7B6A     		ldr	r3, [r7, #36]
 443 0046 3A6A     		ldr	r2, [r7, #32]
 444 0048 1A62     		str	r2, [r3, #32]
 371:Middlewares/Third_Party/FreeRTOS/Source/timers.c **** 		vListInitialiseItem( &( pxNewTimer->xTimerListItem ) );
 445              		.loc 1 371 3
 446 004a 7B6A     		ldr	r3, [r7, #36]
 447 004c 0433     		adds	r3, r3, #4
 448 004e 1846     		mov	r0, r3
 449 0050 FFF7FEFF 		bl	vListInitialiseItem
 372:Middlewares/Third_Party/FreeRTOS/Source/timers.c **** 		if( uxAutoReload != pdFALSE )
 450              		.loc 1 372 5
 451 0054 7B68     		ldr	r3, [r7, #4]
 452 0056 002B     		cmp	r3, #0
 453 0058 08D0     		beq	.L23
 373:Middlewares/Third_Party/FreeRTOS/Source/timers.c **** 		{
 374:Middlewares/Third_Party/FreeRTOS/Source/timers.c **** 			pxNewTimer->ucStatus |= tmrSTATUS_IS_AUTORELOAD;
 454              		.loc 1 374 25
 455 005a 7B6A     		ldr	r3, [r7, #36]
 456 005c 93F82830 		ldrb	r3, [r3, #40]	@ zero_extendqisi2
 457 0060 43F00403 		orr	r3, r3, #4
 458 0064 DAB2     		uxtb	r2, r3
 459 0066 7B6A     		ldr	r3, [r7, #36]
 460 0068 83F82820 		strb	r2, [r3, #40]
 461              	.L23:
 375:Middlewares/Third_Party/FreeRTOS/Source/timers.c **** 		}
 376:Middlewares/Third_Party/FreeRTOS/Source/timers.c **** 		traceTIMER_CREATE( pxNewTimer );
 377:Middlewares/Third_Party/FreeRTOS/Source/timers.c **** 	}
 378:Middlewares/Third_Party/FreeRTOS/Source/timers.c **** }
 462              		.loc 1 378 1
 463 006c 00BF     		nop
ARM GAS  /tmp/ccCA14ZC.s 			page 19


 464 006e 1837     		adds	r7, r7, #24
 465              	.LCFI18:
 466              		.cfi_def_cfa_offset 8
 467 0070 BD46     		mov	sp, r7
 468              	.LCFI19:
 469              		.cfi_def_cfa_register 13
 470              		@ sp needed
 471 0072 80BD     		pop	{r7, pc}
 472              		.cfi_endproc
 473              	.LFE7:
 475              		.section	.text.xTimerGenericCommand,"ax",%progbits
 476              		.align	1
 477              		.global	xTimerGenericCommand
 478              		.syntax unified
 479              		.thumb
 480              		.thumb_func
 481              		.fpu fpv4-sp-d16
 483              	xTimerGenericCommand:
 484              	.LFB8:
 379:Middlewares/Third_Party/FreeRTOS/Source/timers.c **** /*-----------------------------------------------------------*/
 380:Middlewares/Third_Party/FreeRTOS/Source/timers.c **** 
 381:Middlewares/Third_Party/FreeRTOS/Source/timers.c **** BaseType_t xTimerGenericCommand( TimerHandle_t xTimer, const BaseType_t xCommandID, const TickType_
 382:Middlewares/Third_Party/FreeRTOS/Source/timers.c **** {
 485              		.loc 1 382 1
 486              		.cfi_startproc
 487              		@ args = 4, pretend = 0, frame = 40
 488              		@ frame_needed = 1, uses_anonymous_args = 0
 489 0000 80B5     		push	{r7, lr}
 490              	.LCFI20:
 491              		.cfi_def_cfa_offset 8
 492              		.cfi_offset 7, -8
 493              		.cfi_offset 14, -4
 494 0002 8AB0     		sub	sp, sp, #40
 495              	.LCFI21:
 496              		.cfi_def_cfa_offset 48
 497 0004 00AF     		add	r7, sp, #0
 498              	.LCFI22:
 499              		.cfi_def_cfa_register 7
 500 0006 F860     		str	r0, [r7, #12]
 501 0008 B960     		str	r1, [r7, #8]
 502 000a 7A60     		str	r2, [r7, #4]
 503 000c 3B60     		str	r3, [r7]
 383:Middlewares/Third_Party/FreeRTOS/Source/timers.c **** BaseType_t xReturn = pdFAIL;
 504              		.loc 1 383 12
 505 000e 0023     		movs	r3, #0
 506 0010 7B62     		str	r3, [r7, #36]
 384:Middlewares/Third_Party/FreeRTOS/Source/timers.c **** DaemonTaskMessage_t xMessage;
 385:Middlewares/Third_Party/FreeRTOS/Source/timers.c **** 
 386:Middlewares/Third_Party/FreeRTOS/Source/timers.c **** 	configASSERT( xTimer );
 507              		.loc 1 386 2
 508 0012 FB68     		ldr	r3, [r7, #12]
 509 0014 002B     		cmp	r3, #0
 510 0016 09D1     		bne	.L25
 511              	.LBB53:
 512              	.LBB54:
 513              		.loc 2 195 2 discriminator 1
 514              		.syntax unified
ARM GAS  /tmp/ccCA14ZC.s 			page 20


 515              	@ 195 "Middlewares/Third_Party/FreeRTOS/Source/portable/GCC/ARM_CM4F/portmacro.h" 1
 516 0018 4FF05003 			mov r3, #80												
 517 001c 83F31188 		msr basepri, r3											
 518 0020 BFF36F8F 		isb														
 519 0024 BFF34F8F 		dsb														
 520              	
 521              	@ 0 "" 2
 522              		.thumb
 523              		.syntax unified
 524 0028 3B62     		str	r3, [r7, #32]
 525              	.L26:
 526              	.LBE54:
 527              	.LBE53:
 528              		.loc 1 386 2 discriminator 1
 529 002a FEE7     		b	.L26
 530              	.L25:
 387:Middlewares/Third_Party/FreeRTOS/Source/timers.c **** 
 388:Middlewares/Third_Party/FreeRTOS/Source/timers.c **** 	/* Send a message to the timer service task to perform a particular action
 389:Middlewares/Third_Party/FreeRTOS/Source/timers.c **** 	on a particular timer definition. */
 390:Middlewares/Third_Party/FreeRTOS/Source/timers.c **** 	if( xTimerQueue != NULL )
 531              		.loc 1 390 18
 532 002c 194B     		ldr	r3, .L33
 533 002e 1B68     		ldr	r3, [r3]
 534              		.loc 1 390 4
 535 0030 002B     		cmp	r3, #0
 536 0032 2AD0     		beq	.L27
 391:Middlewares/Third_Party/FreeRTOS/Source/timers.c **** 	{
 392:Middlewares/Third_Party/FreeRTOS/Source/timers.c **** 		/* Send a command to the timer service task to start the xTimer timer. */
 393:Middlewares/Third_Party/FreeRTOS/Source/timers.c **** 		xMessage.xMessageID = xCommandID;
 537              		.loc 1 393 23
 538 0034 BB68     		ldr	r3, [r7, #8]
 539 0036 3B61     		str	r3, [r7, #16]
 394:Middlewares/Third_Party/FreeRTOS/Source/timers.c **** 		xMessage.u.xTimerParameters.xMessageValue = xOptionalValue;
 540              		.loc 1 394 45
 541 0038 7B68     		ldr	r3, [r7, #4]
 542 003a 7B61     		str	r3, [r7, #20]
 395:Middlewares/Third_Party/FreeRTOS/Source/timers.c **** 		xMessage.u.xTimerParameters.pxTimer = xTimer;
 543              		.loc 1 395 39
 544 003c FB68     		ldr	r3, [r7, #12]
 545 003e BB61     		str	r3, [r7, #24]
 396:Middlewares/Third_Party/FreeRTOS/Source/timers.c **** 
 397:Middlewares/Third_Party/FreeRTOS/Source/timers.c **** 		if( xCommandID < tmrFIRST_FROM_ISR_COMMAND )
 546              		.loc 1 397 5
 547 0040 BB68     		ldr	r3, [r7, #8]
 548 0042 052B     		cmp	r3, #5
 549 0044 18DC     		bgt	.L28
 398:Middlewares/Third_Party/FreeRTOS/Source/timers.c **** 		{
 399:Middlewares/Third_Party/FreeRTOS/Source/timers.c **** 			if( xTaskGetSchedulerState() == taskSCHEDULER_RUNNING )
 550              		.loc 1 399 8
 551 0046 FFF7FEFF 		bl	xTaskGetSchedulerState
 552 004a 0346     		mov	r3, r0
 553              		.loc 1 399 6
 554 004c 022B     		cmp	r3, #2
 555 004e 09D1     		bne	.L29
 400:Middlewares/Third_Party/FreeRTOS/Source/timers.c **** 			{
 401:Middlewares/Third_Party/FreeRTOS/Source/timers.c **** 				xReturn = xQueueSendToBack( xTimerQueue, &xMessage, xTicksToWait );
 556              		.loc 1 401 15
ARM GAS  /tmp/ccCA14ZC.s 			page 21


 557 0050 104B     		ldr	r3, .L33
 558 0052 1868     		ldr	r0, [r3]
 559 0054 07F11001 		add	r1, r7, #16
 560 0058 0023     		movs	r3, #0
 561 005a 3A6B     		ldr	r2, [r7, #48]
 562 005c FFF7FEFF 		bl	xQueueGenericSend
 563 0060 7862     		str	r0, [r7, #36]
 564 0062 12E0     		b	.L27
 565              	.L29:
 402:Middlewares/Third_Party/FreeRTOS/Source/timers.c **** 			}
 403:Middlewares/Third_Party/FreeRTOS/Source/timers.c **** 			else
 404:Middlewares/Third_Party/FreeRTOS/Source/timers.c **** 			{
 405:Middlewares/Third_Party/FreeRTOS/Source/timers.c **** 				xReturn = xQueueSendToBack( xTimerQueue, &xMessage, tmrNO_DELAY );
 566              		.loc 1 405 15
 567 0064 0B4B     		ldr	r3, .L33
 568 0066 1868     		ldr	r0, [r3]
 569 0068 07F11001 		add	r1, r7, #16
 570 006c 0023     		movs	r3, #0
 571 006e 0022     		movs	r2, #0
 572 0070 FFF7FEFF 		bl	xQueueGenericSend
 573 0074 7862     		str	r0, [r7, #36]
 574 0076 08E0     		b	.L27
 575              	.L28:
 406:Middlewares/Third_Party/FreeRTOS/Source/timers.c **** 			}
 407:Middlewares/Third_Party/FreeRTOS/Source/timers.c **** 		}
 408:Middlewares/Third_Party/FreeRTOS/Source/timers.c **** 		else
 409:Middlewares/Third_Party/FreeRTOS/Source/timers.c **** 		{
 410:Middlewares/Third_Party/FreeRTOS/Source/timers.c **** 			xReturn = xQueueSendToBackFromISR( xTimerQueue, &xMessage, pxHigherPriorityTaskWoken );
 576              		.loc 1 410 14
 577 0078 064B     		ldr	r3, .L33
 578 007a 1868     		ldr	r0, [r3]
 579 007c 07F11001 		add	r1, r7, #16
 580 0080 0023     		movs	r3, #0
 581 0082 3A68     		ldr	r2, [r7]
 582 0084 FFF7FEFF 		bl	xQueueGenericSendFromISR
 583 0088 7862     		str	r0, [r7, #36]
 584              	.L27:
 411:Middlewares/Third_Party/FreeRTOS/Source/timers.c **** 		}
 412:Middlewares/Third_Party/FreeRTOS/Source/timers.c **** 
 413:Middlewares/Third_Party/FreeRTOS/Source/timers.c **** 		traceTIMER_COMMAND_SEND( xTimer, xCommandID, xOptionalValue, xReturn );
 414:Middlewares/Third_Party/FreeRTOS/Source/timers.c **** 	}
 415:Middlewares/Third_Party/FreeRTOS/Source/timers.c **** 	else
 416:Middlewares/Third_Party/FreeRTOS/Source/timers.c **** 	{
 417:Middlewares/Third_Party/FreeRTOS/Source/timers.c **** 		mtCOVERAGE_TEST_MARKER();
 418:Middlewares/Third_Party/FreeRTOS/Source/timers.c **** 	}
 419:Middlewares/Third_Party/FreeRTOS/Source/timers.c **** 
 420:Middlewares/Third_Party/FreeRTOS/Source/timers.c **** 	return xReturn;
 585              		.loc 1 420 9
 586 008a 7B6A     		ldr	r3, [r7, #36]
 421:Middlewares/Third_Party/FreeRTOS/Source/timers.c **** }
 587              		.loc 1 421 1
 588 008c 1846     		mov	r0, r3
 589 008e 2837     		adds	r7, r7, #40
 590              	.LCFI23:
 591              		.cfi_def_cfa_offset 8
 592 0090 BD46     		mov	sp, r7
 593              	.LCFI24:
ARM GAS  /tmp/ccCA14ZC.s 			page 22


 594              		.cfi_def_cfa_register 13
 595              		@ sp needed
 596 0092 80BD     		pop	{r7, pc}
 597              	.L34:
 598              		.align	2
 599              	.L33:
 600 0094 00000000 		.word	xTimerQueue
 601              		.cfi_endproc
 602              	.LFE8:
 604              		.section	.text.xTimerGetTimerDaemonTaskHandle,"ax",%progbits
 605              		.align	1
 606              		.global	xTimerGetTimerDaemonTaskHandle
 607              		.syntax unified
 608              		.thumb
 609              		.thumb_func
 610              		.fpu fpv4-sp-d16
 612              	xTimerGetTimerDaemonTaskHandle:
 613              	.LFB9:
 422:Middlewares/Third_Party/FreeRTOS/Source/timers.c **** /*-----------------------------------------------------------*/
 423:Middlewares/Third_Party/FreeRTOS/Source/timers.c **** 
 424:Middlewares/Third_Party/FreeRTOS/Source/timers.c **** TaskHandle_t xTimerGetTimerDaemonTaskHandle( void )
 425:Middlewares/Third_Party/FreeRTOS/Source/timers.c **** {
 614              		.loc 1 425 1
 615              		.cfi_startproc
 616              		@ args = 0, pretend = 0, frame = 8
 617              		@ frame_needed = 1, uses_anonymous_args = 0
 618              		@ link register save eliminated.
 619 0000 80B4     		push	{r7}
 620              	.LCFI25:
 621              		.cfi_def_cfa_offset 4
 622              		.cfi_offset 7, -4
 623 0002 83B0     		sub	sp, sp, #12
 624              	.LCFI26:
 625              		.cfi_def_cfa_offset 16
 626 0004 00AF     		add	r7, sp, #0
 627              	.LCFI27:
 628              		.cfi_def_cfa_register 7
 426:Middlewares/Third_Party/FreeRTOS/Source/timers.c **** 	/* If xTimerGetTimerDaemonTaskHandle() is called before the scheduler has been
 427:Middlewares/Third_Party/FreeRTOS/Source/timers.c **** 	started, then xTimerTaskHandle will be NULL. */
 428:Middlewares/Third_Party/FreeRTOS/Source/timers.c **** 	configASSERT( ( xTimerTaskHandle != NULL ) );
 629              		.loc 1 428 2
 630 0006 0B4B     		ldr	r3, .L39
 631 0008 1B68     		ldr	r3, [r3]
 632 000a 002B     		cmp	r3, #0
 633 000c 09D1     		bne	.L36
 634              	.LBB55:
 635              	.LBB56:
 636              		.loc 2 195 2 discriminator 1
 637              		.syntax unified
 638              	@ 195 "Middlewares/Third_Party/FreeRTOS/Source/portable/GCC/ARM_CM4F/portmacro.h" 1
 639 000e 4FF05003 			mov r3, #80												
 640 0012 83F31188 		msr basepri, r3											
 641 0016 BFF36F8F 		isb														
 642 001a BFF34F8F 		dsb														
 643              	
 644              	@ 0 "" 2
 645              		.thumb
ARM GAS  /tmp/ccCA14ZC.s 			page 23


 646              		.syntax unified
 647 001e 7B60     		str	r3, [r7, #4]
 648              	.L37:
 649              	.LBE56:
 650              	.LBE55:
 651              		.loc 1 428 2 discriminator 1
 652 0020 FEE7     		b	.L37
 653              	.L36:
 429:Middlewares/Third_Party/FreeRTOS/Source/timers.c **** 	return xTimerTaskHandle;
 654              		.loc 1 429 9
 655 0022 044B     		ldr	r3, .L39
 656 0024 1B68     		ldr	r3, [r3]
 430:Middlewares/Third_Party/FreeRTOS/Source/timers.c **** }
 657              		.loc 1 430 1
 658 0026 1846     		mov	r0, r3
 659 0028 0C37     		adds	r7, r7, #12
 660              	.LCFI28:
 661              		.cfi_def_cfa_offset 4
 662 002a BD46     		mov	sp, r7
 663              	.LCFI29:
 664              		.cfi_def_cfa_register 13
 665              		@ sp needed
 666 002c 5DF8047B 		ldr	r7, [sp], #4
 667              	.LCFI30:
 668              		.cfi_restore 7
 669              		.cfi_def_cfa_offset 0
 670 0030 7047     		bx	lr
 671              	.L40:
 672 0032 00BF     		.align	2
 673              	.L39:
 674 0034 00000000 		.word	xTimerTaskHandle
 675              		.cfi_endproc
 676              	.LFE9:
 678              		.section	.text.xTimerGetPeriod,"ax",%progbits
 679              		.align	1
 680              		.global	xTimerGetPeriod
 681              		.syntax unified
 682              		.thumb
 683              		.thumb_func
 684              		.fpu fpv4-sp-d16
 686              	xTimerGetPeriod:
 687              	.LFB10:
 431:Middlewares/Third_Party/FreeRTOS/Source/timers.c **** /*-----------------------------------------------------------*/
 432:Middlewares/Third_Party/FreeRTOS/Source/timers.c **** 
 433:Middlewares/Third_Party/FreeRTOS/Source/timers.c **** TickType_t xTimerGetPeriod( TimerHandle_t xTimer )
 434:Middlewares/Third_Party/FreeRTOS/Source/timers.c **** {
 688              		.loc 1 434 1
 689              		.cfi_startproc
 690              		@ args = 0, pretend = 0, frame = 16
 691              		@ frame_needed = 1, uses_anonymous_args = 0
 692              		@ link register save eliminated.
 693 0000 80B4     		push	{r7}
 694              	.LCFI31:
 695              		.cfi_def_cfa_offset 4
 696              		.cfi_offset 7, -4
 697 0002 85B0     		sub	sp, sp, #20
 698              	.LCFI32:
ARM GAS  /tmp/ccCA14ZC.s 			page 24


 699              		.cfi_def_cfa_offset 24
 700 0004 00AF     		add	r7, sp, #0
 701              	.LCFI33:
 702              		.cfi_def_cfa_register 7
 703 0006 7860     		str	r0, [r7, #4]
 435:Middlewares/Third_Party/FreeRTOS/Source/timers.c **** Timer_t *pxTimer = xTimer;
 704              		.loc 1 435 10
 705 0008 7B68     		ldr	r3, [r7, #4]
 706 000a FB60     		str	r3, [r7, #12]
 436:Middlewares/Third_Party/FreeRTOS/Source/timers.c **** 
 437:Middlewares/Third_Party/FreeRTOS/Source/timers.c **** 	configASSERT( xTimer );
 707              		.loc 1 437 2
 708 000c 7B68     		ldr	r3, [r7, #4]
 709 000e 002B     		cmp	r3, #0
 710 0010 09D1     		bne	.L42
 711              	.LBB57:
 712              	.LBB58:
 713              		.loc 2 195 2 discriminator 1
 714              		.syntax unified
 715              	@ 195 "Middlewares/Third_Party/FreeRTOS/Source/portable/GCC/ARM_CM4F/portmacro.h" 1
 716 0012 4FF05003 			mov r3, #80												
 717 0016 83F31188 		msr basepri, r3											
 718 001a BFF36F8F 		isb														
 719 001e BFF34F8F 		dsb														
 720              	
 721              	@ 0 "" 2
 722              		.thumb
 723              		.syntax unified
 724 0022 BB60     		str	r3, [r7, #8]
 725              	.L43:
 726              	.LBE58:
 727              	.LBE57:
 728              		.loc 1 437 2 discriminator 1
 729 0024 FEE7     		b	.L43
 730              	.L42:
 438:Middlewares/Third_Party/FreeRTOS/Source/timers.c **** 	return pxTimer->xTimerPeriodInTicks;
 731              		.loc 1 438 16
 732 0026 FB68     		ldr	r3, [r7, #12]
 733 0028 9B69     		ldr	r3, [r3, #24]
 439:Middlewares/Third_Party/FreeRTOS/Source/timers.c **** }
 734              		.loc 1 439 1
 735 002a 1846     		mov	r0, r3
 736 002c 1437     		adds	r7, r7, #20
 737              	.LCFI34:
 738              		.cfi_def_cfa_offset 4
 739 002e BD46     		mov	sp, r7
 740              	.LCFI35:
 741              		.cfi_def_cfa_register 13
 742              		@ sp needed
 743 0030 5DF8047B 		ldr	r7, [sp], #4
 744              	.LCFI36:
 745              		.cfi_restore 7
 746              		.cfi_def_cfa_offset 0
 747 0034 7047     		bx	lr
 748              		.cfi_endproc
 749              	.LFE10:
 751              		.section	.text.vTimerSetReloadMode,"ax",%progbits
ARM GAS  /tmp/ccCA14ZC.s 			page 25


 752              		.align	1
 753              		.global	vTimerSetReloadMode
 754              		.syntax unified
 755              		.thumb
 756              		.thumb_func
 757              		.fpu fpv4-sp-d16
 759              	vTimerSetReloadMode:
 760              	.LFB11:
 440:Middlewares/Third_Party/FreeRTOS/Source/timers.c **** /*-----------------------------------------------------------*/
 441:Middlewares/Third_Party/FreeRTOS/Source/timers.c **** 
 442:Middlewares/Third_Party/FreeRTOS/Source/timers.c **** void vTimerSetReloadMode( TimerHandle_t xTimer, const UBaseType_t uxAutoReload )
 443:Middlewares/Third_Party/FreeRTOS/Source/timers.c **** {
 761              		.loc 1 443 1
 762              		.cfi_startproc
 763              		@ args = 0, pretend = 0, frame = 16
 764              		@ frame_needed = 1, uses_anonymous_args = 0
 765 0000 80B5     		push	{r7, lr}
 766              	.LCFI37:
 767              		.cfi_def_cfa_offset 8
 768              		.cfi_offset 7, -8
 769              		.cfi_offset 14, -4
 770 0002 84B0     		sub	sp, sp, #16
 771              	.LCFI38:
 772              		.cfi_def_cfa_offset 24
 773 0004 00AF     		add	r7, sp, #0
 774              	.LCFI39:
 775              		.cfi_def_cfa_register 7
 776 0006 7860     		str	r0, [r7, #4]
 777 0008 3960     		str	r1, [r7]
 444:Middlewares/Third_Party/FreeRTOS/Source/timers.c **** Timer_t * pxTimer =  xTimer;
 778              		.loc 1 444 11
 779 000a 7B68     		ldr	r3, [r7, #4]
 780 000c FB60     		str	r3, [r7, #12]
 445:Middlewares/Third_Party/FreeRTOS/Source/timers.c **** 
 446:Middlewares/Third_Party/FreeRTOS/Source/timers.c **** 	configASSERT( xTimer );
 781              		.loc 1 446 2
 782 000e 7B68     		ldr	r3, [r7, #4]
 783 0010 002B     		cmp	r3, #0
 784 0012 09D1     		bne	.L46
 785              	.LBB59:
 786              	.LBB60:
 787              		.loc 2 195 2 discriminator 1
 788              		.syntax unified
 789              	@ 195 "Middlewares/Third_Party/FreeRTOS/Source/portable/GCC/ARM_CM4F/portmacro.h" 1
 790 0014 4FF05003 			mov r3, #80												
 791 0018 83F31188 		msr basepri, r3											
 792 001c BFF36F8F 		isb														
 793 0020 BFF34F8F 		dsb														
 794              	
 795              	@ 0 "" 2
 796              		.thumb
 797              		.syntax unified
 798 0024 BB60     		str	r3, [r7, #8]
 799              	.L47:
 800              	.LBE60:
 801              	.LBE59:
 802              		.loc 1 446 2 discriminator 1
ARM GAS  /tmp/ccCA14ZC.s 			page 26


 803 0026 FEE7     		b	.L47
 804              	.L46:
 447:Middlewares/Third_Party/FreeRTOS/Source/timers.c **** 	taskENTER_CRITICAL();
 805              		.loc 1 447 2
 806 0028 FFF7FEFF 		bl	vPortEnterCritical
 448:Middlewares/Third_Party/FreeRTOS/Source/timers.c **** 	{
 449:Middlewares/Third_Party/FreeRTOS/Source/timers.c **** 		if( uxAutoReload != pdFALSE )
 807              		.loc 1 449 5
 808 002c 3B68     		ldr	r3, [r7]
 809 002e 002B     		cmp	r3, #0
 810 0030 09D0     		beq	.L48
 450:Middlewares/Third_Party/FreeRTOS/Source/timers.c **** 		{
 451:Middlewares/Third_Party/FreeRTOS/Source/timers.c **** 			pxTimer->ucStatus |= tmrSTATUS_IS_AUTORELOAD;
 811              		.loc 1 451 22
 812 0032 FB68     		ldr	r3, [r7, #12]
 813 0034 93F82830 		ldrb	r3, [r3, #40]	@ zero_extendqisi2
 814 0038 43F00403 		orr	r3, r3, #4
 815 003c DAB2     		uxtb	r2, r3
 816 003e FB68     		ldr	r3, [r7, #12]
 817 0040 83F82820 		strb	r2, [r3, #40]
 818 0044 08E0     		b	.L49
 819              	.L48:
 452:Middlewares/Third_Party/FreeRTOS/Source/timers.c **** 		}
 453:Middlewares/Third_Party/FreeRTOS/Source/timers.c **** 		else
 454:Middlewares/Third_Party/FreeRTOS/Source/timers.c **** 		{
 455:Middlewares/Third_Party/FreeRTOS/Source/timers.c **** 			pxTimer->ucStatus &= ~tmrSTATUS_IS_AUTORELOAD;
 820              		.loc 1 455 22
 821 0046 FB68     		ldr	r3, [r7, #12]
 822 0048 93F82830 		ldrb	r3, [r3, #40]	@ zero_extendqisi2
 823 004c 23F00403 		bic	r3, r3, #4
 824 0050 DAB2     		uxtb	r2, r3
 825 0052 FB68     		ldr	r3, [r7, #12]
 826 0054 83F82820 		strb	r2, [r3, #40]
 827              	.L49:
 456:Middlewares/Third_Party/FreeRTOS/Source/timers.c **** 		}
 457:Middlewares/Third_Party/FreeRTOS/Source/timers.c **** 	}
 458:Middlewares/Third_Party/FreeRTOS/Source/timers.c **** 	taskEXIT_CRITICAL();
 828              		.loc 1 458 2
 829 0058 FFF7FEFF 		bl	vPortExitCritical
 459:Middlewares/Third_Party/FreeRTOS/Source/timers.c **** }
 830              		.loc 1 459 1
 831 005c 00BF     		nop
 832 005e 1037     		adds	r7, r7, #16
 833              	.LCFI40:
 834              		.cfi_def_cfa_offset 8
 835 0060 BD46     		mov	sp, r7
 836              	.LCFI41:
 837              		.cfi_def_cfa_register 13
 838              		@ sp needed
 839 0062 80BD     		pop	{r7, pc}
 840              		.cfi_endproc
 841              	.LFE11:
 843              		.section	.text.xTimerGetExpiryTime,"ax",%progbits
 844              		.align	1
 845              		.global	xTimerGetExpiryTime
 846              		.syntax unified
 847              		.thumb
ARM GAS  /tmp/ccCA14ZC.s 			page 27


 848              		.thumb_func
 849              		.fpu fpv4-sp-d16
 851              	xTimerGetExpiryTime:
 852              	.LFB12:
 460:Middlewares/Third_Party/FreeRTOS/Source/timers.c **** /*-----------------------------------------------------------*/
 461:Middlewares/Third_Party/FreeRTOS/Source/timers.c **** 
 462:Middlewares/Third_Party/FreeRTOS/Source/timers.c **** TickType_t xTimerGetExpiryTime( TimerHandle_t xTimer )
 463:Middlewares/Third_Party/FreeRTOS/Source/timers.c **** {
 853              		.loc 1 463 1
 854              		.cfi_startproc
 855              		@ args = 0, pretend = 0, frame = 24
 856              		@ frame_needed = 1, uses_anonymous_args = 0
 857              		@ link register save eliminated.
 858 0000 80B4     		push	{r7}
 859              	.LCFI42:
 860              		.cfi_def_cfa_offset 4
 861              		.cfi_offset 7, -4
 862 0002 87B0     		sub	sp, sp, #28
 863              	.LCFI43:
 864              		.cfi_def_cfa_offset 32
 865 0004 00AF     		add	r7, sp, #0
 866              	.LCFI44:
 867              		.cfi_def_cfa_register 7
 868 0006 7860     		str	r0, [r7, #4]
 464:Middlewares/Third_Party/FreeRTOS/Source/timers.c **** Timer_t * pxTimer =  xTimer;
 869              		.loc 1 464 11
 870 0008 7B68     		ldr	r3, [r7, #4]
 871 000a 7B61     		str	r3, [r7, #20]
 465:Middlewares/Third_Party/FreeRTOS/Source/timers.c **** TickType_t xReturn;
 466:Middlewares/Third_Party/FreeRTOS/Source/timers.c **** 
 467:Middlewares/Third_Party/FreeRTOS/Source/timers.c **** 	configASSERT( xTimer );
 872              		.loc 1 467 2
 873 000c 7B68     		ldr	r3, [r7, #4]
 874 000e 002B     		cmp	r3, #0
 875 0010 09D1     		bne	.L51
 876              	.LBB61:
 877              	.LBB62:
 878              		.loc 2 195 2 discriminator 1
 879              		.syntax unified
 880              	@ 195 "Middlewares/Third_Party/FreeRTOS/Source/portable/GCC/ARM_CM4F/portmacro.h" 1
 881 0012 4FF05003 			mov r3, #80												
 882 0016 83F31188 		msr basepri, r3											
 883 001a BFF36F8F 		isb														
 884 001e BFF34F8F 		dsb														
 885              	
 886              	@ 0 "" 2
 887              		.thumb
 888              		.syntax unified
 889 0022 FB60     		str	r3, [r7, #12]
 890              	.L52:
 891              	.LBE62:
 892              	.LBE61:
 893              		.loc 1 467 2 discriminator 1
 894 0024 FEE7     		b	.L52
 895              	.L51:
 468:Middlewares/Third_Party/FreeRTOS/Source/timers.c **** 	xReturn = listGET_LIST_ITEM_VALUE( &( pxTimer->xTimerListItem ) );
 896              		.loc 1 468 10
ARM GAS  /tmp/ccCA14ZC.s 			page 28


 897 0026 7B69     		ldr	r3, [r7, #20]
 898 0028 5B68     		ldr	r3, [r3, #4]
 899 002a 3B61     		str	r3, [r7, #16]
 469:Middlewares/Third_Party/FreeRTOS/Source/timers.c **** 	return xReturn;
 900              		.loc 1 469 9
 901 002c 3B69     		ldr	r3, [r7, #16]
 470:Middlewares/Third_Party/FreeRTOS/Source/timers.c **** }
 902              		.loc 1 470 1
 903 002e 1846     		mov	r0, r3
 904 0030 1C37     		adds	r7, r7, #28
 905              	.LCFI45:
 906              		.cfi_def_cfa_offset 4
 907 0032 BD46     		mov	sp, r7
 908              	.LCFI46:
 909              		.cfi_def_cfa_register 13
 910              		@ sp needed
 911 0034 5DF8047B 		ldr	r7, [sp], #4
 912              	.LCFI47:
 913              		.cfi_restore 7
 914              		.cfi_def_cfa_offset 0
 915 0038 7047     		bx	lr
 916              		.cfi_endproc
 917              	.LFE12:
 919              		.section	.text.pcTimerGetName,"ax",%progbits
 920              		.align	1
 921              		.global	pcTimerGetName
 922              		.syntax unified
 923              		.thumb
 924              		.thumb_func
 925              		.fpu fpv4-sp-d16
 927              	pcTimerGetName:
 928              	.LFB13:
 471:Middlewares/Third_Party/FreeRTOS/Source/timers.c **** /*-----------------------------------------------------------*/
 472:Middlewares/Third_Party/FreeRTOS/Source/timers.c **** 
 473:Middlewares/Third_Party/FreeRTOS/Source/timers.c **** const char * pcTimerGetName( TimerHandle_t xTimer ) /*lint !e971 Unqualified char types are allowed
 474:Middlewares/Third_Party/FreeRTOS/Source/timers.c **** {
 929              		.loc 1 474 1
 930              		.cfi_startproc
 931              		@ args = 0, pretend = 0, frame = 16
 932              		@ frame_needed = 1, uses_anonymous_args = 0
 933              		@ link register save eliminated.
 934 0000 80B4     		push	{r7}
 935              	.LCFI48:
 936              		.cfi_def_cfa_offset 4
 937              		.cfi_offset 7, -4
 938 0002 85B0     		sub	sp, sp, #20
 939              	.LCFI49:
 940              		.cfi_def_cfa_offset 24
 941 0004 00AF     		add	r7, sp, #0
 942              	.LCFI50:
 943              		.cfi_def_cfa_register 7
 944 0006 7860     		str	r0, [r7, #4]
 475:Middlewares/Third_Party/FreeRTOS/Source/timers.c **** Timer_t *pxTimer = xTimer;
 945              		.loc 1 475 10
 946 0008 7B68     		ldr	r3, [r7, #4]
 947 000a FB60     		str	r3, [r7, #12]
 476:Middlewares/Third_Party/FreeRTOS/Source/timers.c **** 
ARM GAS  /tmp/ccCA14ZC.s 			page 29


 477:Middlewares/Third_Party/FreeRTOS/Source/timers.c **** 	configASSERT( xTimer );
 948              		.loc 1 477 2
 949 000c 7B68     		ldr	r3, [r7, #4]
 950 000e 002B     		cmp	r3, #0
 951 0010 09D1     		bne	.L55
 952              	.LBB63:
 953              	.LBB64:
 954              		.loc 2 195 2 discriminator 1
 955              		.syntax unified
 956              	@ 195 "Middlewares/Third_Party/FreeRTOS/Source/portable/GCC/ARM_CM4F/portmacro.h" 1
 957 0012 4FF05003 			mov r3, #80												
 958 0016 83F31188 		msr basepri, r3											
 959 001a BFF36F8F 		isb														
 960 001e BFF34F8F 		dsb														
 961              	
 962              	@ 0 "" 2
 963              		.thumb
 964              		.syntax unified
 965 0022 BB60     		str	r3, [r7, #8]
 966              	.L56:
 967              	.LBE64:
 968              	.LBE63:
 969              		.loc 1 477 2 discriminator 1
 970 0024 FEE7     		b	.L56
 971              	.L55:
 478:Middlewares/Third_Party/FreeRTOS/Source/timers.c **** 	return pxTimer->pcTimerName;
 972              		.loc 1 478 16
 973 0026 FB68     		ldr	r3, [r7, #12]
 974 0028 1B68     		ldr	r3, [r3]
 479:Middlewares/Third_Party/FreeRTOS/Source/timers.c **** }
 975              		.loc 1 479 1
 976 002a 1846     		mov	r0, r3
 977 002c 1437     		adds	r7, r7, #20
 978              	.LCFI51:
 979              		.cfi_def_cfa_offset 4
 980 002e BD46     		mov	sp, r7
 981              	.LCFI52:
 982              		.cfi_def_cfa_register 13
 983              		@ sp needed
 984 0030 5DF8047B 		ldr	r7, [sp], #4
 985              	.LCFI53:
 986              		.cfi_restore 7
 987              		.cfi_def_cfa_offset 0
 988 0034 7047     		bx	lr
 989              		.cfi_endproc
 990              	.LFE13:
 992              		.section	.text.prvProcessExpiredTimer,"ax",%progbits
 993              		.align	1
 994              		.syntax unified
 995              		.thumb
 996              		.thumb_func
 997              		.fpu fpv4-sp-d16
 999              	prvProcessExpiredTimer:
 1000              	.LFB14:
 480:Middlewares/Third_Party/FreeRTOS/Source/timers.c **** /*-----------------------------------------------------------*/
 481:Middlewares/Third_Party/FreeRTOS/Source/timers.c **** 
 482:Middlewares/Third_Party/FreeRTOS/Source/timers.c **** static void prvProcessExpiredTimer( const TickType_t xNextExpireTime, const TickType_t xTimeNow )
ARM GAS  /tmp/ccCA14ZC.s 			page 30


 483:Middlewares/Third_Party/FreeRTOS/Source/timers.c **** {
 1001              		.loc 1 483 1
 1002              		.cfi_startproc
 1003              		@ args = 0, pretend = 0, frame = 24
 1004              		@ frame_needed = 1, uses_anonymous_args = 0
 1005 0000 80B5     		push	{r7, lr}
 1006              	.LCFI54:
 1007              		.cfi_def_cfa_offset 8
 1008              		.cfi_offset 7, -8
 1009              		.cfi_offset 14, -4
 1010 0002 88B0     		sub	sp, sp, #32
 1011              	.LCFI55:
 1012              		.cfi_def_cfa_offset 40
 1013 0004 02AF     		add	r7, sp, #8
 1014              	.LCFI56:
 1015              		.cfi_def_cfa 7, 32
 1016 0006 7860     		str	r0, [r7, #4]
 1017 0008 3960     		str	r1, [r7]
 484:Middlewares/Third_Party/FreeRTOS/Source/timers.c **** BaseType_t xResult;
 485:Middlewares/Third_Party/FreeRTOS/Source/timers.c **** Timer_t * const pxTimer = ( Timer_t * ) listGET_OWNER_OF_HEAD_ENTRY( pxCurrentTimerList ); /*lint !
 1018              		.loc 1 485 41
 1019 000a 224B     		ldr	r3, .L62
 1020 000c 1B68     		ldr	r3, [r3]
 1021 000e DB68     		ldr	r3, [r3, #12]
 1022              		.loc 1 485 17
 1023 0010 DB68     		ldr	r3, [r3, #12]
 1024 0012 7B61     		str	r3, [r7, #20]
 486:Middlewares/Third_Party/FreeRTOS/Source/timers.c **** 
 487:Middlewares/Third_Party/FreeRTOS/Source/timers.c **** 	/* Remove the timer from the list of active timers.  A check has already
 488:Middlewares/Third_Party/FreeRTOS/Source/timers.c **** 	been performed to ensure the list is not empty. */
 489:Middlewares/Third_Party/FreeRTOS/Source/timers.c **** 	( void ) uxListRemove( &( pxTimer->xTimerListItem ) );
 1025              		.loc 1 489 11
 1026 0014 7B69     		ldr	r3, [r7, #20]
 1027 0016 0433     		adds	r3, r3, #4
 1028 0018 1846     		mov	r0, r3
 1029 001a FFF7FEFF 		bl	uxListRemove
 490:Middlewares/Third_Party/FreeRTOS/Source/timers.c **** 	traceTIMER_EXPIRED( pxTimer );
 491:Middlewares/Third_Party/FreeRTOS/Source/timers.c **** 
 492:Middlewares/Third_Party/FreeRTOS/Source/timers.c **** 	/* If the timer is an auto reload timer then calculate the next
 493:Middlewares/Third_Party/FreeRTOS/Source/timers.c **** 	expiry time and re-insert the timer in the list of active timers. */
 494:Middlewares/Third_Party/FreeRTOS/Source/timers.c **** 	if( ( pxTimer->ucStatus & tmrSTATUS_IS_AUTORELOAD ) != 0 )
 1030              		.loc 1 494 15
 1031 001e 7B69     		ldr	r3, [r7, #20]
 1032 0020 93F82830 		ldrb	r3, [r3, #40]	@ zero_extendqisi2
 1033              		.loc 1 494 26
 1034 0024 03F00403 		and	r3, r3, #4
 1035              		.loc 1 494 4
 1036 0028 002B     		cmp	r3, #0
 1037 002a 21D0     		beq	.L59
 495:Middlewares/Third_Party/FreeRTOS/Source/timers.c **** 	{
 496:Middlewares/Third_Party/FreeRTOS/Source/timers.c **** 		/* The timer is inserted into a list using a time relative to anything
 497:Middlewares/Third_Party/FreeRTOS/Source/timers.c **** 		other than the current time.  It will therefore be inserted into the
 498:Middlewares/Third_Party/FreeRTOS/Source/timers.c **** 		correct list relative to the time this task thinks it is now. */
 499:Middlewares/Third_Party/FreeRTOS/Source/timers.c **** 		if( prvInsertTimerInActiveList( pxTimer, ( xNextExpireTime + pxTimer->xTimerPeriodInTicks ), xTim
 1038              		.loc 1 499 71
 1039 002c 7B69     		ldr	r3, [r7, #20]
 1040 002e 9A69     		ldr	r2, [r3, #24]
ARM GAS  /tmp/ccCA14ZC.s 			page 31


 1041              		.loc 1 499 7
 1042 0030 7B68     		ldr	r3, [r7, #4]
 1043 0032 D118     		adds	r1, r2, r3
 1044 0034 7B68     		ldr	r3, [r7, #4]
 1045 0036 3A68     		ldr	r2, [r7]
 1046 0038 7869     		ldr	r0, [r7, #20]
 1047 003a FFF7FEFF 		bl	prvInsertTimerInActiveList
 1048 003e 0346     		mov	r3, r0
 1049              		.loc 1 499 5
 1050 0040 002B     		cmp	r3, #0
 1051 0042 1ED0     		beq	.L60
 500:Middlewares/Third_Party/FreeRTOS/Source/timers.c **** 		{
 501:Middlewares/Third_Party/FreeRTOS/Source/timers.c **** 			/* The timer expired before it was added to the active timer
 502:Middlewares/Third_Party/FreeRTOS/Source/timers.c **** 			list.  Reload it now.  */
 503:Middlewares/Third_Party/FreeRTOS/Source/timers.c **** 			xResult = xTimerGenericCommand( pxTimer, tmrCOMMAND_START_DONT_TRACE, xNextExpireTime, NULL, tmr
 1052              		.loc 1 503 14
 1053 0044 0023     		movs	r3, #0
 1054 0046 0093     		str	r3, [sp]
 1055 0048 0023     		movs	r3, #0
 1056 004a 7A68     		ldr	r2, [r7, #4]
 1057 004c 0021     		movs	r1, #0
 1058 004e 7869     		ldr	r0, [r7, #20]
 1059 0050 FFF7FEFF 		bl	xTimerGenericCommand
 1060 0054 3861     		str	r0, [r7, #16]
 504:Middlewares/Third_Party/FreeRTOS/Source/timers.c **** 			configASSERT( xResult );
 1061              		.loc 1 504 4
 1062 0056 3B69     		ldr	r3, [r7, #16]
 1063 0058 002B     		cmp	r3, #0
 1064 005a 12D1     		bne	.L60
 1065              	.LBB65:
 1066              	.LBB66:
 1067              		.loc 2 195 2 discriminator 1
 1068              		.syntax unified
 1069              	@ 195 "Middlewares/Third_Party/FreeRTOS/Source/portable/GCC/ARM_CM4F/portmacro.h" 1
 1070 005c 4FF05003 			mov r3, #80												
 1071 0060 83F31188 		msr basepri, r3											
 1072 0064 BFF36F8F 		isb														
 1073 0068 BFF34F8F 		dsb														
 1074              	
 1075              	@ 0 "" 2
 1076              		.thumb
 1077              		.syntax unified
 1078 006c FB60     		str	r3, [r7, #12]
 1079              	.L61:
 1080              	.LBE66:
 1081              	.LBE65:
 1082              		.loc 1 504 4 discriminator 1
 1083 006e FEE7     		b	.L61
 1084              	.L59:
 505:Middlewares/Third_Party/FreeRTOS/Source/timers.c **** 			( void ) xResult;
 506:Middlewares/Third_Party/FreeRTOS/Source/timers.c **** 		}
 507:Middlewares/Third_Party/FreeRTOS/Source/timers.c **** 		else
 508:Middlewares/Third_Party/FreeRTOS/Source/timers.c **** 		{
 509:Middlewares/Third_Party/FreeRTOS/Source/timers.c **** 			mtCOVERAGE_TEST_MARKER();
 510:Middlewares/Third_Party/FreeRTOS/Source/timers.c **** 		}
 511:Middlewares/Third_Party/FreeRTOS/Source/timers.c **** 	}
 512:Middlewares/Third_Party/FreeRTOS/Source/timers.c **** 	else
ARM GAS  /tmp/ccCA14ZC.s 			page 32


 513:Middlewares/Third_Party/FreeRTOS/Source/timers.c **** 	{
 514:Middlewares/Third_Party/FreeRTOS/Source/timers.c **** 		pxTimer->ucStatus &= ~tmrSTATUS_IS_ACTIVE;
 1085              		.loc 1 514 21
 1086 0070 7B69     		ldr	r3, [r7, #20]
 1087 0072 93F82830 		ldrb	r3, [r3, #40]	@ zero_extendqisi2
 1088 0076 23F00103 		bic	r3, r3, #1
 1089 007a DAB2     		uxtb	r2, r3
 1090 007c 7B69     		ldr	r3, [r7, #20]
 1091 007e 83F82820 		strb	r2, [r3, #40]
 1092              	.L60:
 515:Middlewares/Third_Party/FreeRTOS/Source/timers.c **** 		mtCOVERAGE_TEST_MARKER();
 516:Middlewares/Third_Party/FreeRTOS/Source/timers.c **** 	}
 517:Middlewares/Third_Party/FreeRTOS/Source/timers.c **** 
 518:Middlewares/Third_Party/FreeRTOS/Source/timers.c **** 	/* Call the timer callback. */
 519:Middlewares/Third_Party/FreeRTOS/Source/timers.c **** 	pxTimer->pxCallbackFunction( ( TimerHandle_t ) pxTimer );
 1093              		.loc 1 519 9
 1094 0082 7B69     		ldr	r3, [r7, #20]
 1095 0084 1B6A     		ldr	r3, [r3, #32]
 1096              		.loc 1 519 2
 1097 0086 7869     		ldr	r0, [r7, #20]
 1098 0088 9847     		blx	r3
 1099              	.LVL0:
 520:Middlewares/Third_Party/FreeRTOS/Source/timers.c **** }
 1100              		.loc 1 520 1
 1101 008a 00BF     		nop
 1102 008c 1837     		adds	r7, r7, #24
 1103              	.LCFI57:
 1104              		.cfi_def_cfa_offset 8
 1105 008e BD46     		mov	sp, r7
 1106              	.LCFI58:
 1107              		.cfi_def_cfa_register 13
 1108              		@ sp needed
 1109 0090 80BD     		pop	{r7, pc}
 1110              	.L63:
 1111 0092 00BF     		.align	2
 1112              	.L62:
 1113 0094 00000000 		.word	pxCurrentTimerList
 1114              		.cfi_endproc
 1115              	.LFE14:
 1117              		.section	.text.prvTimerTask,"ax",%progbits
 1118              		.align	1
 1119              		.syntax unified
 1120              		.thumb
 1121              		.thumb_func
 1122              		.fpu fpv4-sp-d16
 1124              	prvTimerTask:
 1125              	.LFB15:
 521:Middlewares/Third_Party/FreeRTOS/Source/timers.c **** /*-----------------------------------------------------------*/
 522:Middlewares/Third_Party/FreeRTOS/Source/timers.c **** 
 523:Middlewares/Third_Party/FreeRTOS/Source/timers.c **** static portTASK_FUNCTION( prvTimerTask, pvParameters )
 524:Middlewares/Third_Party/FreeRTOS/Source/timers.c **** {
 1126              		.loc 1 524 1
 1127              		.cfi_startproc
 1128              		@ args = 0, pretend = 0, frame = 16
 1129              		@ frame_needed = 1, uses_anonymous_args = 0
 1130 0000 80B5     		push	{r7, lr}
 1131              	.LCFI59:
ARM GAS  /tmp/ccCA14ZC.s 			page 33


 1132              		.cfi_def_cfa_offset 8
 1133              		.cfi_offset 7, -8
 1134              		.cfi_offset 14, -4
 1135 0002 84B0     		sub	sp, sp, #16
 1136              	.LCFI60:
 1137              		.cfi_def_cfa_offset 24
 1138 0004 00AF     		add	r7, sp, #0
 1139              	.LCFI61:
 1140              		.cfi_def_cfa_register 7
 1141 0006 7860     		str	r0, [r7, #4]
 1142              	.L65:
 525:Middlewares/Third_Party/FreeRTOS/Source/timers.c **** TickType_t xNextExpireTime;
 526:Middlewares/Third_Party/FreeRTOS/Source/timers.c **** BaseType_t xListWasEmpty;
 527:Middlewares/Third_Party/FreeRTOS/Source/timers.c **** 
 528:Middlewares/Third_Party/FreeRTOS/Source/timers.c **** 	/* Just to avoid compiler warnings. */
 529:Middlewares/Third_Party/FreeRTOS/Source/timers.c **** 	( void ) pvParameters;
 530:Middlewares/Third_Party/FreeRTOS/Source/timers.c **** 
 531:Middlewares/Third_Party/FreeRTOS/Source/timers.c **** 	#if( configUSE_DAEMON_TASK_STARTUP_HOOK == 1 )
 532:Middlewares/Third_Party/FreeRTOS/Source/timers.c **** 	{
 533:Middlewares/Third_Party/FreeRTOS/Source/timers.c **** 		extern void vApplicationDaemonTaskStartupHook( void );
 534:Middlewares/Third_Party/FreeRTOS/Source/timers.c **** 
 535:Middlewares/Third_Party/FreeRTOS/Source/timers.c **** 		/* Allow the application writer to execute some code in the context of
 536:Middlewares/Third_Party/FreeRTOS/Source/timers.c **** 		this task at the point the task starts executing.  This is useful if the
 537:Middlewares/Third_Party/FreeRTOS/Source/timers.c **** 		application includes initialisation code that would benefit from
 538:Middlewares/Third_Party/FreeRTOS/Source/timers.c **** 		executing after the scheduler has been started. */
 539:Middlewares/Third_Party/FreeRTOS/Source/timers.c **** 		vApplicationDaemonTaskStartupHook();
 540:Middlewares/Third_Party/FreeRTOS/Source/timers.c **** 	}
 541:Middlewares/Third_Party/FreeRTOS/Source/timers.c **** 	#endif /* configUSE_DAEMON_TASK_STARTUP_HOOK */
 542:Middlewares/Third_Party/FreeRTOS/Source/timers.c **** 
 543:Middlewares/Third_Party/FreeRTOS/Source/timers.c **** 	for( ;; )
 544:Middlewares/Third_Party/FreeRTOS/Source/timers.c **** 	{
 545:Middlewares/Third_Party/FreeRTOS/Source/timers.c **** 		/* Query the timers list to see if it contains any timers, and if so,
 546:Middlewares/Third_Party/FreeRTOS/Source/timers.c **** 		obtain the time at which the next timer will expire. */
 547:Middlewares/Third_Party/FreeRTOS/Source/timers.c **** 		xNextExpireTime = prvGetNextExpireTime( &xListWasEmpty );
 1143              		.loc 1 547 21 discriminator 1
 1144 0008 07F10803 		add	r3, r7, #8
 1145 000c 1846     		mov	r0, r3
 1146 000e FFF7FEFF 		bl	prvGetNextExpireTime
 1147 0012 F860     		str	r0, [r7, #12]
 548:Middlewares/Third_Party/FreeRTOS/Source/timers.c **** 
 549:Middlewares/Third_Party/FreeRTOS/Source/timers.c **** 		/* If a timer has expired, process it.  Otherwise, block this task
 550:Middlewares/Third_Party/FreeRTOS/Source/timers.c **** 		until either a timer does expire, or a command is received. */
 551:Middlewares/Third_Party/FreeRTOS/Source/timers.c **** 		prvProcessTimerOrBlockTask( xNextExpireTime, xListWasEmpty );
 1148              		.loc 1 551 3 discriminator 1
 1149 0014 BB68     		ldr	r3, [r7, #8]
 1150 0016 1946     		mov	r1, r3
 1151 0018 F868     		ldr	r0, [r7, #12]
 1152 001a FFF7FEFF 		bl	prvProcessTimerOrBlockTask
 552:Middlewares/Third_Party/FreeRTOS/Source/timers.c **** 
 553:Middlewares/Third_Party/FreeRTOS/Source/timers.c **** 		/* Empty the command queue. */
 554:Middlewares/Third_Party/FreeRTOS/Source/timers.c **** 		prvProcessReceivedCommands();
 1153              		.loc 1 554 3 discriminator 1
 1154 001e FFF7FEFF 		bl	prvProcessReceivedCommands
 547:Middlewares/Third_Party/FreeRTOS/Source/timers.c **** 
 1155              		.loc 1 547 19 discriminator 1
 1156 0022 F1E7     		b	.L65
 1157              		.cfi_endproc
ARM GAS  /tmp/ccCA14ZC.s 			page 34


 1158              	.LFE15:
 1160              		.section	.text.prvProcessTimerOrBlockTask,"ax",%progbits
 1161              		.align	1
 1162              		.syntax unified
 1163              		.thumb
 1164              		.thumb_func
 1165              		.fpu fpv4-sp-d16
 1167              	prvProcessTimerOrBlockTask:
 1168              	.LFB16:
 555:Middlewares/Third_Party/FreeRTOS/Source/timers.c **** 	}
 556:Middlewares/Third_Party/FreeRTOS/Source/timers.c **** }
 557:Middlewares/Third_Party/FreeRTOS/Source/timers.c **** /*-----------------------------------------------------------*/
 558:Middlewares/Third_Party/FreeRTOS/Source/timers.c **** 
 559:Middlewares/Third_Party/FreeRTOS/Source/timers.c **** static void prvProcessTimerOrBlockTask( const TickType_t xNextExpireTime, BaseType_t xListWasEmpty 
 560:Middlewares/Third_Party/FreeRTOS/Source/timers.c **** {
 1169              		.loc 1 560 1
 1170              		.cfi_startproc
 1171              		@ args = 0, pretend = 0, frame = 16
 1172              		@ frame_needed = 1, uses_anonymous_args = 0
 1173 0000 80B5     		push	{r7, lr}
 1174              	.LCFI62:
 1175              		.cfi_def_cfa_offset 8
 1176              		.cfi_offset 7, -8
 1177              		.cfi_offset 14, -4
 1178 0002 84B0     		sub	sp, sp, #16
 1179              	.LCFI63:
 1180              		.cfi_def_cfa_offset 24
 1181 0004 00AF     		add	r7, sp, #0
 1182              	.LCFI64:
 1183              		.cfi_def_cfa_register 7
 1184 0006 7860     		str	r0, [r7, #4]
 1185 0008 3960     		str	r1, [r7]
 561:Middlewares/Third_Party/FreeRTOS/Source/timers.c **** TickType_t xTimeNow;
 562:Middlewares/Third_Party/FreeRTOS/Source/timers.c **** BaseType_t xTimerListsWereSwitched;
 563:Middlewares/Third_Party/FreeRTOS/Source/timers.c **** 
 564:Middlewares/Third_Party/FreeRTOS/Source/timers.c **** 	vTaskSuspendAll();
 1186              		.loc 1 564 2
 1187 000a FFF7FEFF 		bl	vTaskSuspendAll
 565:Middlewares/Third_Party/FreeRTOS/Source/timers.c **** 	{
 566:Middlewares/Third_Party/FreeRTOS/Source/timers.c **** 		/* Obtain the time now to make an assessment as to whether the timer
 567:Middlewares/Third_Party/FreeRTOS/Source/timers.c **** 		has expired or not.  If obtaining the time causes the lists to switch
 568:Middlewares/Third_Party/FreeRTOS/Source/timers.c **** 		then don't process this timer as any timers that remained in the list
 569:Middlewares/Third_Party/FreeRTOS/Source/timers.c **** 		when the lists were switched will have been processed within the
 570:Middlewares/Third_Party/FreeRTOS/Source/timers.c **** 		prvSampleTimeNow() function. */
 571:Middlewares/Third_Party/FreeRTOS/Source/timers.c **** 		xTimeNow = prvSampleTimeNow( &xTimerListsWereSwitched );
 1188              		.loc 1 571 14
 1189 000e 07F10803 		add	r3, r7, #8
 1190 0012 1846     		mov	r0, r3
 1191 0014 FFF7FEFF 		bl	prvSampleTimeNow
 1192 0018 F860     		str	r0, [r7, #12]
 572:Middlewares/Third_Party/FreeRTOS/Source/timers.c **** 		if( xTimerListsWereSwitched == pdFALSE )
 1193              		.loc 1 572 31
 1194 001a BB68     		ldr	r3, [r7, #8]
 1195              		.loc 1 572 5
 1196 001c 002B     		cmp	r3, #0
 1197 001e 30D1     		bne	.L67
 573:Middlewares/Third_Party/FreeRTOS/Source/timers.c **** 		{
ARM GAS  /tmp/ccCA14ZC.s 			page 35


 574:Middlewares/Third_Party/FreeRTOS/Source/timers.c **** 			/* The tick count has not overflowed, has the timer expired? */
 575:Middlewares/Third_Party/FreeRTOS/Source/timers.c **** 			if( ( xListWasEmpty == pdFALSE ) && ( xNextExpireTime <= xTimeNow ) )
 1198              		.loc 1 575 6
 1199 0020 3B68     		ldr	r3, [r7]
 1200 0022 002B     		cmp	r3, #0
 1201 0024 0AD1     		bne	.L68
 1202              		.loc 1 575 37 discriminator 1
 1203 0026 7A68     		ldr	r2, [r7, #4]
 1204 0028 FB68     		ldr	r3, [r7, #12]
 1205 002a 9A42     		cmp	r2, r3
 1206 002c 06D8     		bhi	.L68
 576:Middlewares/Third_Party/FreeRTOS/Source/timers.c **** 			{
 577:Middlewares/Third_Party/FreeRTOS/Source/timers.c **** 				( void ) xTaskResumeAll();
 1207              		.loc 1 577 14
 1208 002e FFF7FEFF 		bl	xTaskResumeAll
 578:Middlewares/Third_Party/FreeRTOS/Source/timers.c **** 				prvProcessExpiredTimer( xNextExpireTime, xTimeNow );
 1209              		.loc 1 578 5
 1210 0032 F968     		ldr	r1, [r7, #12]
 1211 0034 7868     		ldr	r0, [r7, #4]
 1212 0036 FFF7FEFF 		bl	prvProcessExpiredTimer
 579:Middlewares/Third_Party/FreeRTOS/Source/timers.c **** 			}
 580:Middlewares/Third_Party/FreeRTOS/Source/timers.c **** 			else
 581:Middlewares/Third_Party/FreeRTOS/Source/timers.c **** 			{
 582:Middlewares/Third_Party/FreeRTOS/Source/timers.c **** 				/* The tick count has not overflowed, and the next expire
 583:Middlewares/Third_Party/FreeRTOS/Source/timers.c **** 				time has not been reached yet.  This task should therefore
 584:Middlewares/Third_Party/FreeRTOS/Source/timers.c **** 				block to wait for the next expire time or a command to be
 585:Middlewares/Third_Party/FreeRTOS/Source/timers.c **** 				received - whichever comes first.  The following line cannot
 586:Middlewares/Third_Party/FreeRTOS/Source/timers.c **** 				be reached unless xNextExpireTime > xTimeNow, except in the
 587:Middlewares/Third_Party/FreeRTOS/Source/timers.c **** 				case when the current timer list is empty. */
 588:Middlewares/Third_Party/FreeRTOS/Source/timers.c **** 				if( xListWasEmpty != pdFALSE )
 589:Middlewares/Third_Party/FreeRTOS/Source/timers.c **** 				{
 590:Middlewares/Third_Party/FreeRTOS/Source/timers.c **** 					/* The current timer list is empty - is the overflow list
 591:Middlewares/Third_Party/FreeRTOS/Source/timers.c **** 					also empty? */
 592:Middlewares/Third_Party/FreeRTOS/Source/timers.c **** 					xListWasEmpty = listLIST_IS_EMPTY( pxOverflowTimerList );
 593:Middlewares/Third_Party/FreeRTOS/Source/timers.c **** 				}
 594:Middlewares/Third_Party/FreeRTOS/Source/timers.c **** 
 595:Middlewares/Third_Party/FreeRTOS/Source/timers.c **** 				vQueueWaitForMessageRestricted( xTimerQueue, ( xNextExpireTime - xTimeNow ), xListWasEmpty );
 596:Middlewares/Third_Party/FreeRTOS/Source/timers.c **** 
 597:Middlewares/Third_Party/FreeRTOS/Source/timers.c **** 				if( xTaskResumeAll() == pdFALSE )
 598:Middlewares/Third_Party/FreeRTOS/Source/timers.c **** 				{
 599:Middlewares/Third_Party/FreeRTOS/Source/timers.c **** 					/* Yield to wait for either a command to arrive, or the
 600:Middlewares/Third_Party/FreeRTOS/Source/timers.c **** 					block time to expire.  If a command arrived between the
 601:Middlewares/Third_Party/FreeRTOS/Source/timers.c **** 					critical section being exited and this yield then the yield
 602:Middlewares/Third_Party/FreeRTOS/Source/timers.c **** 					will not cause the task to block. */
 603:Middlewares/Third_Party/FreeRTOS/Source/timers.c **** 					portYIELD_WITHIN_API();
 604:Middlewares/Third_Party/FreeRTOS/Source/timers.c **** 				}
 605:Middlewares/Third_Party/FreeRTOS/Source/timers.c **** 				else
 606:Middlewares/Third_Party/FreeRTOS/Source/timers.c **** 				{
 607:Middlewares/Third_Party/FreeRTOS/Source/timers.c **** 					mtCOVERAGE_TEST_MARKER();
 608:Middlewares/Third_Party/FreeRTOS/Source/timers.c **** 				}
 609:Middlewares/Third_Party/FreeRTOS/Source/timers.c **** 			}
 610:Middlewares/Third_Party/FreeRTOS/Source/timers.c **** 		}
 611:Middlewares/Third_Party/FreeRTOS/Source/timers.c **** 		else
 612:Middlewares/Third_Party/FreeRTOS/Source/timers.c **** 		{
 613:Middlewares/Third_Party/FreeRTOS/Source/timers.c **** 			( void ) xTaskResumeAll();
 614:Middlewares/Third_Party/FreeRTOS/Source/timers.c **** 		}
 615:Middlewares/Third_Party/FreeRTOS/Source/timers.c **** 	}
ARM GAS  /tmp/ccCA14ZC.s 			page 36


 616:Middlewares/Third_Party/FreeRTOS/Source/timers.c **** }
 1213              		.loc 1 616 1
 1214 003a 24E0     		b	.L74
 1215              	.L68:
 588:Middlewares/Third_Party/FreeRTOS/Source/timers.c **** 				{
 1216              		.loc 1 588 7
 1217 003c 3B68     		ldr	r3, [r7]
 1218 003e 002B     		cmp	r3, #0
 1219 0040 08D0     		beq	.L70
 592:Middlewares/Third_Party/FreeRTOS/Source/timers.c **** 				}
 1220              		.loc 1 592 22
 1221 0042 134B     		ldr	r3, .L75
 1222 0044 1B68     		ldr	r3, [r3]
 1223 0046 1B68     		ldr	r3, [r3]
 1224 0048 002B     		cmp	r3, #0
 1225 004a 01D1     		bne	.L71
 592:Middlewares/Third_Party/FreeRTOS/Source/timers.c **** 				}
 1226              		.loc 1 592 22 is_stmt 0 discriminator 1
 1227 004c 0123     		movs	r3, #1
 1228 004e 00E0     		b	.L72
 1229              	.L71:
 592:Middlewares/Third_Party/FreeRTOS/Source/timers.c **** 				}
 1230              		.loc 1 592 22 discriminator 2
 1231 0050 0023     		movs	r3, #0
 1232              	.L72:
 592:Middlewares/Third_Party/FreeRTOS/Source/timers.c **** 				}
 1233              		.loc 1 592 20 is_stmt 1 discriminator 4
 1234 0052 3B60     		str	r3, [r7]
 1235              	.L70:
 595:Middlewares/Third_Party/FreeRTOS/Source/timers.c **** 
 1236              		.loc 1 595 5
 1237 0054 0F4B     		ldr	r3, .L75+4
 1238 0056 1868     		ldr	r0, [r3]
 1239 0058 7A68     		ldr	r2, [r7, #4]
 1240 005a FB68     		ldr	r3, [r7, #12]
 1241 005c D31A     		subs	r3, r2, r3
 1242 005e 3A68     		ldr	r2, [r7]
 1243 0060 1946     		mov	r1, r3
 1244 0062 FFF7FEFF 		bl	vQueueWaitForMessageRestricted
 597:Middlewares/Third_Party/FreeRTOS/Source/timers.c **** 				{
 1245              		.loc 1 597 9
 1246 0066 FFF7FEFF 		bl	xTaskResumeAll
 1247 006a 0346     		mov	r3, r0
 597:Middlewares/Third_Party/FreeRTOS/Source/timers.c **** 				{
 1248              		.loc 1 597 7
 1249 006c 002B     		cmp	r3, #0
 1250 006e 0AD1     		bne	.L74
 603:Middlewares/Third_Party/FreeRTOS/Source/timers.c **** 				}
 1251              		.loc 1 603 6
 1252 0070 094B     		ldr	r3, .L75+8
 1253 0072 4FF08052 		mov	r2, #268435456
 1254 0076 1A60     		str	r2, [r3]
 1255              		.syntax unified
 1256              	@ 603 "Middlewares/Third_Party/FreeRTOS/Source/timers.c" 1
 1257 0078 BFF34F8F 		dsb
 1258              	@ 0 "" 2
 1259              	@ 603 "Middlewares/Third_Party/FreeRTOS/Source/timers.c" 1
ARM GAS  /tmp/ccCA14ZC.s 			page 37


 1260 007c BFF36F8F 		isb
 1261              	@ 0 "" 2
 1262              		.loc 1 616 1
 1263              		.thumb
 1264              		.syntax unified
 1265 0080 01E0     		b	.L74
 1266              	.L67:
 613:Middlewares/Third_Party/FreeRTOS/Source/timers.c **** 		}
 1267              		.loc 1 613 13
 1268 0082 FFF7FEFF 		bl	xTaskResumeAll
 1269              	.L74:
 1270              		.loc 1 616 1
 1271 0086 00BF     		nop
 1272 0088 1037     		adds	r7, r7, #16
 1273              	.LCFI65:
 1274              		.cfi_def_cfa_offset 8
 1275 008a BD46     		mov	sp, r7
 1276              	.LCFI66:
 1277              		.cfi_def_cfa_register 13
 1278              		@ sp needed
 1279 008c 80BD     		pop	{r7, pc}
 1280              	.L76:
 1281 008e 00BF     		.align	2
 1282              	.L75:
 1283 0090 00000000 		.word	pxOverflowTimerList
 1284 0094 00000000 		.word	xTimerQueue
 1285 0098 04ED00E0 		.word	-536810236
 1286              		.cfi_endproc
 1287              	.LFE16:
 1289              		.section	.text.prvGetNextExpireTime,"ax",%progbits
 1290              		.align	1
 1291              		.syntax unified
 1292              		.thumb
 1293              		.thumb_func
 1294              		.fpu fpv4-sp-d16
 1296              	prvGetNextExpireTime:
 1297              	.LFB17:
 617:Middlewares/Third_Party/FreeRTOS/Source/timers.c **** /*-----------------------------------------------------------*/
 618:Middlewares/Third_Party/FreeRTOS/Source/timers.c **** 
 619:Middlewares/Third_Party/FreeRTOS/Source/timers.c **** static TickType_t prvGetNextExpireTime( BaseType_t * const pxListWasEmpty )
 620:Middlewares/Third_Party/FreeRTOS/Source/timers.c **** {
 1298              		.loc 1 620 1
 1299              		.cfi_startproc
 1300              		@ args = 0, pretend = 0, frame = 16
 1301              		@ frame_needed = 1, uses_anonymous_args = 0
 1302              		@ link register save eliminated.
 1303 0000 80B4     		push	{r7}
 1304              	.LCFI67:
 1305              		.cfi_def_cfa_offset 4
 1306              		.cfi_offset 7, -4
 1307 0002 85B0     		sub	sp, sp, #20
 1308              	.LCFI68:
 1309              		.cfi_def_cfa_offset 24
 1310 0004 00AF     		add	r7, sp, #0
 1311              	.LCFI69:
 1312              		.cfi_def_cfa_register 7
 1313 0006 7860     		str	r0, [r7, #4]
ARM GAS  /tmp/ccCA14ZC.s 			page 38


 621:Middlewares/Third_Party/FreeRTOS/Source/timers.c **** TickType_t xNextExpireTime;
 622:Middlewares/Third_Party/FreeRTOS/Source/timers.c **** 
 623:Middlewares/Third_Party/FreeRTOS/Source/timers.c **** 	/* Timers are listed in expiry time order, with the head of the list
 624:Middlewares/Third_Party/FreeRTOS/Source/timers.c **** 	referencing the task that will expire first.  Obtain the time at which
 625:Middlewares/Third_Party/FreeRTOS/Source/timers.c **** 	the timer with the nearest expiry time will expire.  If there are no
 626:Middlewares/Third_Party/FreeRTOS/Source/timers.c **** 	active timers then just set the next expire time to 0.  That will cause
 627:Middlewares/Third_Party/FreeRTOS/Source/timers.c **** 	this task to unblock when the tick count overflows, at which point the
 628:Middlewares/Third_Party/FreeRTOS/Source/timers.c **** 	timer lists will be switched and the next expiry time can be
 629:Middlewares/Third_Party/FreeRTOS/Source/timers.c **** 	re-assessed.  */
 630:Middlewares/Third_Party/FreeRTOS/Source/timers.c **** 	*pxListWasEmpty = listLIST_IS_EMPTY( pxCurrentTimerList );
 1314              		.loc 1 630 20
 1315 0008 0E4B     		ldr	r3, .L83
 1316 000a 1B68     		ldr	r3, [r3]
 1317 000c 1B68     		ldr	r3, [r3]
 1318 000e 002B     		cmp	r3, #0
 1319 0010 01D1     		bne	.L78
 1320              		.loc 1 630 20 is_stmt 0 discriminator 1
 1321 0012 0122     		movs	r2, #1
 1322 0014 00E0     		b	.L79
 1323              	.L78:
 1324              		.loc 1 630 20 discriminator 2
 1325 0016 0022     		movs	r2, #0
 1326              	.L79:
 1327              		.loc 1 630 18 is_stmt 1 discriminator 4
 1328 0018 7B68     		ldr	r3, [r7, #4]
 1329 001a 1A60     		str	r2, [r3]
 631:Middlewares/Third_Party/FreeRTOS/Source/timers.c **** 	if( *pxListWasEmpty == pdFALSE )
 1330              		.loc 1 631 6 discriminator 4
 1331 001c 7B68     		ldr	r3, [r7, #4]
 1332 001e 1B68     		ldr	r3, [r3]
 1333              		.loc 1 631 4 discriminator 4
 1334 0020 002B     		cmp	r3, #0
 1335 0022 05D1     		bne	.L80
 632:Middlewares/Third_Party/FreeRTOS/Source/timers.c **** 	{
 633:Middlewares/Third_Party/FreeRTOS/Source/timers.c **** 		xNextExpireTime = listGET_ITEM_VALUE_OF_HEAD_ENTRY( pxCurrentTimerList );
 1336              		.loc 1 633 21
 1337 0024 074B     		ldr	r3, .L83
 1338 0026 1B68     		ldr	r3, [r3]
 1339 0028 DB68     		ldr	r3, [r3, #12]
 1340              		.loc 1 633 19
 1341 002a 1B68     		ldr	r3, [r3]
 1342 002c FB60     		str	r3, [r7, #12]
 1343 002e 01E0     		b	.L81
 1344              	.L80:
 634:Middlewares/Third_Party/FreeRTOS/Source/timers.c **** 	}
 635:Middlewares/Third_Party/FreeRTOS/Source/timers.c **** 	else
 636:Middlewares/Third_Party/FreeRTOS/Source/timers.c **** 	{
 637:Middlewares/Third_Party/FreeRTOS/Source/timers.c **** 		/* Ensure the task unblocks when the tick count rolls over. */
 638:Middlewares/Third_Party/FreeRTOS/Source/timers.c **** 		xNextExpireTime = ( TickType_t ) 0U;
 1345              		.loc 1 638 19
 1346 0030 0023     		movs	r3, #0
 1347 0032 FB60     		str	r3, [r7, #12]
 1348              	.L81:
 639:Middlewares/Third_Party/FreeRTOS/Source/timers.c **** 	}
 640:Middlewares/Third_Party/FreeRTOS/Source/timers.c **** 
 641:Middlewares/Third_Party/FreeRTOS/Source/timers.c **** 	return xNextExpireTime;
 1349              		.loc 1 641 9
ARM GAS  /tmp/ccCA14ZC.s 			page 39


 1350 0034 FB68     		ldr	r3, [r7, #12]
 642:Middlewares/Third_Party/FreeRTOS/Source/timers.c **** }
 1351              		.loc 1 642 1
 1352 0036 1846     		mov	r0, r3
 1353 0038 1437     		adds	r7, r7, #20
 1354              	.LCFI70:
 1355              		.cfi_def_cfa_offset 4
 1356 003a BD46     		mov	sp, r7
 1357              	.LCFI71:
 1358              		.cfi_def_cfa_register 13
 1359              		@ sp needed
 1360 003c 5DF8047B 		ldr	r7, [sp], #4
 1361              	.LCFI72:
 1362              		.cfi_restore 7
 1363              		.cfi_def_cfa_offset 0
 1364 0040 7047     		bx	lr
 1365              	.L84:
 1366 0042 00BF     		.align	2
 1367              	.L83:
 1368 0044 00000000 		.word	pxCurrentTimerList
 1369              		.cfi_endproc
 1370              	.LFE17:
 1372              		.section	.text.prvSampleTimeNow,"ax",%progbits
 1373              		.align	1
 1374              		.syntax unified
 1375              		.thumb
 1376              		.thumb_func
 1377              		.fpu fpv4-sp-d16
 1379              	prvSampleTimeNow:
 1380              	.LFB18:
 643:Middlewares/Third_Party/FreeRTOS/Source/timers.c **** /*-----------------------------------------------------------*/
 644:Middlewares/Third_Party/FreeRTOS/Source/timers.c **** 
 645:Middlewares/Third_Party/FreeRTOS/Source/timers.c **** static TickType_t prvSampleTimeNow( BaseType_t * const pxTimerListsWereSwitched )
 646:Middlewares/Third_Party/FreeRTOS/Source/timers.c **** {
 1381              		.loc 1 646 1
 1382              		.cfi_startproc
 1383              		@ args = 0, pretend = 0, frame = 16
 1384              		@ frame_needed = 1, uses_anonymous_args = 0
 1385 0000 80B5     		push	{r7, lr}
 1386              	.LCFI73:
 1387              		.cfi_def_cfa_offset 8
 1388              		.cfi_offset 7, -8
 1389              		.cfi_offset 14, -4
 1390 0002 84B0     		sub	sp, sp, #16
 1391              	.LCFI74:
 1392              		.cfi_def_cfa_offset 24
 1393 0004 00AF     		add	r7, sp, #0
 1394              	.LCFI75:
 1395              		.cfi_def_cfa_register 7
 1396 0006 7860     		str	r0, [r7, #4]
 647:Middlewares/Third_Party/FreeRTOS/Source/timers.c **** TickType_t xTimeNow;
 648:Middlewares/Third_Party/FreeRTOS/Source/timers.c **** PRIVILEGED_DATA static TickType_t xLastTime = ( TickType_t ) 0U; /*lint !e956 Variable is only acce
 649:Middlewares/Third_Party/FreeRTOS/Source/timers.c **** 
 650:Middlewares/Third_Party/FreeRTOS/Source/timers.c **** 	xTimeNow = xTaskGetTickCount();
 1397              		.loc 1 650 13
 1398 0008 FFF7FEFF 		bl	xTaskGetTickCount
 1399 000c F860     		str	r0, [r7, #12]
ARM GAS  /tmp/ccCA14ZC.s 			page 40


 651:Middlewares/Third_Party/FreeRTOS/Source/timers.c **** 
 652:Middlewares/Third_Party/FreeRTOS/Source/timers.c **** 	if( xTimeNow < xLastTime )
 1400              		.loc 1 652 15
 1401 000e 0B4B     		ldr	r3, .L89
 1402 0010 1B68     		ldr	r3, [r3]
 1403              		.loc 1 652 4
 1404 0012 FA68     		ldr	r2, [r7, #12]
 1405 0014 9A42     		cmp	r2, r3
 1406 0016 05D2     		bcs	.L86
 653:Middlewares/Third_Party/FreeRTOS/Source/timers.c **** 	{
 654:Middlewares/Third_Party/FreeRTOS/Source/timers.c **** 		prvSwitchTimerLists();
 1407              		.loc 1 654 3
 1408 0018 FFF7FEFF 		bl	prvSwitchTimerLists
 655:Middlewares/Third_Party/FreeRTOS/Source/timers.c **** 		*pxTimerListsWereSwitched = pdTRUE;
 1409              		.loc 1 655 29
 1410 001c 7B68     		ldr	r3, [r7, #4]
 1411 001e 0122     		movs	r2, #1
 1412 0020 1A60     		str	r2, [r3]
 1413 0022 02E0     		b	.L87
 1414              	.L86:
 656:Middlewares/Third_Party/FreeRTOS/Source/timers.c **** 	}
 657:Middlewares/Third_Party/FreeRTOS/Source/timers.c **** 	else
 658:Middlewares/Third_Party/FreeRTOS/Source/timers.c **** 	{
 659:Middlewares/Third_Party/FreeRTOS/Source/timers.c **** 		*pxTimerListsWereSwitched = pdFALSE;
 1415              		.loc 1 659 29
 1416 0024 7B68     		ldr	r3, [r7, #4]
 1417 0026 0022     		movs	r2, #0
 1418 0028 1A60     		str	r2, [r3]
 1419              	.L87:
 660:Middlewares/Third_Party/FreeRTOS/Source/timers.c **** 	}
 661:Middlewares/Third_Party/FreeRTOS/Source/timers.c **** 
 662:Middlewares/Third_Party/FreeRTOS/Source/timers.c **** 	xLastTime = xTimeNow;
 1420              		.loc 1 662 12
 1421 002a 044A     		ldr	r2, .L89
 1422 002c FB68     		ldr	r3, [r7, #12]
 1423 002e 1360     		str	r3, [r2]
 663:Middlewares/Third_Party/FreeRTOS/Source/timers.c **** 
 664:Middlewares/Third_Party/FreeRTOS/Source/timers.c **** 	return xTimeNow;
 1424              		.loc 1 664 9
 1425 0030 FB68     		ldr	r3, [r7, #12]
 665:Middlewares/Third_Party/FreeRTOS/Source/timers.c **** }
 1426              		.loc 1 665 1
 1427 0032 1846     		mov	r0, r3
 1428 0034 1037     		adds	r7, r7, #16
 1429              	.LCFI76:
 1430              		.cfi_def_cfa_offset 8
 1431 0036 BD46     		mov	sp, r7
 1432              	.LCFI77:
 1433              		.cfi_def_cfa_register 13
 1434              		@ sp needed
 1435 0038 80BD     		pop	{r7, pc}
 1436              	.L90:
 1437 003a 00BF     		.align	2
 1438              	.L89:
 1439 003c 00000000 		.word	xLastTime.6888
 1440              		.cfi_endproc
 1441              	.LFE18:
ARM GAS  /tmp/ccCA14ZC.s 			page 41


 1443              		.section	.text.prvInsertTimerInActiveList,"ax",%progbits
 1444              		.align	1
 1445              		.syntax unified
 1446              		.thumb
 1447              		.thumb_func
 1448              		.fpu fpv4-sp-d16
 1450              	prvInsertTimerInActiveList:
 1451              	.LFB19:
 666:Middlewares/Third_Party/FreeRTOS/Source/timers.c **** /*-----------------------------------------------------------*/
 667:Middlewares/Third_Party/FreeRTOS/Source/timers.c **** 
 668:Middlewares/Third_Party/FreeRTOS/Source/timers.c **** static BaseType_t prvInsertTimerInActiveList( Timer_t * const pxTimer, const TickType_t xNextExpiry
 669:Middlewares/Third_Party/FreeRTOS/Source/timers.c **** {
 1452              		.loc 1 669 1
 1453              		.cfi_startproc
 1454              		@ args = 0, pretend = 0, frame = 24
 1455              		@ frame_needed = 1, uses_anonymous_args = 0
 1456 0000 80B5     		push	{r7, lr}
 1457              	.LCFI78:
 1458              		.cfi_def_cfa_offset 8
 1459              		.cfi_offset 7, -8
 1460              		.cfi_offset 14, -4
 1461 0002 86B0     		sub	sp, sp, #24
 1462              	.LCFI79:
 1463              		.cfi_def_cfa_offset 32
 1464 0004 00AF     		add	r7, sp, #0
 1465              	.LCFI80:
 1466              		.cfi_def_cfa_register 7
 1467 0006 F860     		str	r0, [r7, #12]
 1468 0008 B960     		str	r1, [r7, #8]
 1469 000a 7A60     		str	r2, [r7, #4]
 1470 000c 3B60     		str	r3, [r7]
 670:Middlewares/Third_Party/FreeRTOS/Source/timers.c **** BaseType_t xProcessTimerNow = pdFALSE;
 1471              		.loc 1 670 12
 1472 000e 0023     		movs	r3, #0
 1473 0010 7B61     		str	r3, [r7, #20]
 671:Middlewares/Third_Party/FreeRTOS/Source/timers.c **** 
 672:Middlewares/Third_Party/FreeRTOS/Source/timers.c **** 	listSET_LIST_ITEM_VALUE( &( pxTimer->xTimerListItem ), xNextExpiryTime );
 1474              		.loc 1 672 2
 1475 0012 FB68     		ldr	r3, [r7, #12]
 1476 0014 BA68     		ldr	r2, [r7, #8]
 1477 0016 5A60     		str	r2, [r3, #4]
 673:Middlewares/Third_Party/FreeRTOS/Source/timers.c **** 	listSET_LIST_ITEM_OWNER( &( pxTimer->xTimerListItem ), pxTimer );
 1478              		.loc 1 673 2
 1479 0018 FB68     		ldr	r3, [r7, #12]
 1480 001a FA68     		ldr	r2, [r7, #12]
 1481 001c 1A61     		str	r2, [r3, #16]
 674:Middlewares/Third_Party/FreeRTOS/Source/timers.c **** 
 675:Middlewares/Third_Party/FreeRTOS/Source/timers.c **** 	if( xNextExpiryTime <= xTimeNow )
 1482              		.loc 1 675 4
 1483 001e BA68     		ldr	r2, [r7, #8]
 1484 0020 7B68     		ldr	r3, [r7, #4]
 1485 0022 9A42     		cmp	r2, r3
 1486 0024 12D8     		bhi	.L92
 676:Middlewares/Third_Party/FreeRTOS/Source/timers.c **** 	{
 677:Middlewares/Third_Party/FreeRTOS/Source/timers.c **** 		/* Has the expiry time elapsed between the command to start/reset a
 678:Middlewares/Third_Party/FreeRTOS/Source/timers.c **** 		timer was issued, and the time the command was processed? */
 679:Middlewares/Third_Party/FreeRTOS/Source/timers.c **** 		if( ( ( TickType_t ) ( xTimeNow - xCommandTime ) ) >= pxTimer->xTimerPeriodInTicks ) /*lint !e961
ARM GAS  /tmp/ccCA14ZC.s 			page 42


 1487              		.loc 1 679 9
 1488 0026 7A68     		ldr	r2, [r7, #4]
 1489 0028 3B68     		ldr	r3, [r7]
 1490 002a D21A     		subs	r2, r2, r3
 1491              		.loc 1 679 64
 1492 002c FB68     		ldr	r3, [r7, #12]
 1493 002e 9B69     		ldr	r3, [r3, #24]
 1494              		.loc 1 679 5
 1495 0030 9A42     		cmp	r2, r3
 1496 0032 02D3     		bcc	.L93
 680:Middlewares/Third_Party/FreeRTOS/Source/timers.c **** 		{
 681:Middlewares/Third_Party/FreeRTOS/Source/timers.c **** 			/* The time between a command being issued and the command being
 682:Middlewares/Third_Party/FreeRTOS/Source/timers.c **** 			processed actually exceeds the timers period.  */
 683:Middlewares/Third_Party/FreeRTOS/Source/timers.c **** 			xProcessTimerNow = pdTRUE;
 1497              		.loc 1 683 21
 1498 0034 0123     		movs	r3, #1
 1499 0036 7B61     		str	r3, [r7, #20]
 1500 0038 1BE0     		b	.L95
 1501              	.L93:
 684:Middlewares/Third_Party/FreeRTOS/Source/timers.c **** 		}
 685:Middlewares/Third_Party/FreeRTOS/Source/timers.c **** 		else
 686:Middlewares/Third_Party/FreeRTOS/Source/timers.c **** 		{
 687:Middlewares/Third_Party/FreeRTOS/Source/timers.c **** 			vListInsert( pxOverflowTimerList, &( pxTimer->xTimerListItem ) );
 1502              		.loc 1 687 4
 1503 003a 104B     		ldr	r3, .L98
 1504 003c 1A68     		ldr	r2, [r3]
 1505 003e FB68     		ldr	r3, [r7, #12]
 1506 0040 0433     		adds	r3, r3, #4
 1507 0042 1946     		mov	r1, r3
 1508 0044 1046     		mov	r0, r2
 1509 0046 FFF7FEFF 		bl	vListInsert
 1510 004a 12E0     		b	.L95
 1511              	.L92:
 688:Middlewares/Third_Party/FreeRTOS/Source/timers.c **** 		}
 689:Middlewares/Third_Party/FreeRTOS/Source/timers.c **** 	}
 690:Middlewares/Third_Party/FreeRTOS/Source/timers.c **** 	else
 691:Middlewares/Third_Party/FreeRTOS/Source/timers.c **** 	{
 692:Middlewares/Third_Party/FreeRTOS/Source/timers.c **** 		if( ( xTimeNow < xCommandTime ) && ( xNextExpiryTime >= xCommandTime ) )
 1512              		.loc 1 692 5
 1513 004c 7A68     		ldr	r2, [r7, #4]
 1514 004e 3B68     		ldr	r3, [r7]
 1515 0050 9A42     		cmp	r2, r3
 1516 0052 06D2     		bcs	.L96
 1517              		.loc 1 692 35 discriminator 1
 1518 0054 BA68     		ldr	r2, [r7, #8]
 1519 0056 3B68     		ldr	r3, [r7]
 1520 0058 9A42     		cmp	r2, r3
 1521 005a 02D3     		bcc	.L96
 693:Middlewares/Third_Party/FreeRTOS/Source/timers.c **** 		{
 694:Middlewares/Third_Party/FreeRTOS/Source/timers.c **** 			/* If, since the command was issued, the tick count has overflowed
 695:Middlewares/Third_Party/FreeRTOS/Source/timers.c **** 			but the expiry time has not, then the timer must have already passed
 696:Middlewares/Third_Party/FreeRTOS/Source/timers.c **** 			its expiry time and should be processed immediately. */
 697:Middlewares/Third_Party/FreeRTOS/Source/timers.c **** 			xProcessTimerNow = pdTRUE;
 1522              		.loc 1 697 21
 1523 005c 0123     		movs	r3, #1
 1524 005e 7B61     		str	r3, [r7, #20]
 1525 0060 07E0     		b	.L95
ARM GAS  /tmp/ccCA14ZC.s 			page 43


 1526              	.L96:
 698:Middlewares/Third_Party/FreeRTOS/Source/timers.c **** 		}
 699:Middlewares/Third_Party/FreeRTOS/Source/timers.c **** 		else
 700:Middlewares/Third_Party/FreeRTOS/Source/timers.c **** 		{
 701:Middlewares/Third_Party/FreeRTOS/Source/timers.c **** 			vListInsert( pxCurrentTimerList, &( pxTimer->xTimerListItem ) );
 1527              		.loc 1 701 4
 1528 0062 074B     		ldr	r3, .L98+4
 1529 0064 1A68     		ldr	r2, [r3]
 1530 0066 FB68     		ldr	r3, [r7, #12]
 1531 0068 0433     		adds	r3, r3, #4
 1532 006a 1946     		mov	r1, r3
 1533 006c 1046     		mov	r0, r2
 1534 006e FFF7FEFF 		bl	vListInsert
 1535              	.L95:
 702:Middlewares/Third_Party/FreeRTOS/Source/timers.c **** 		}
 703:Middlewares/Third_Party/FreeRTOS/Source/timers.c **** 	}
 704:Middlewares/Third_Party/FreeRTOS/Source/timers.c **** 
 705:Middlewares/Third_Party/FreeRTOS/Source/timers.c **** 	return xProcessTimerNow;
 1536              		.loc 1 705 9
 1537 0072 7B69     		ldr	r3, [r7, #20]
 706:Middlewares/Third_Party/FreeRTOS/Source/timers.c **** }
 1538              		.loc 1 706 1
 1539 0074 1846     		mov	r0, r3
 1540 0076 1837     		adds	r7, r7, #24
 1541              	.LCFI81:
 1542              		.cfi_def_cfa_offset 8
 1543 0078 BD46     		mov	sp, r7
 1544              	.LCFI82:
 1545              		.cfi_def_cfa_register 13
 1546              		@ sp needed
 1547 007a 80BD     		pop	{r7, pc}
 1548              	.L99:
 1549              		.align	2
 1550              	.L98:
 1551 007c 00000000 		.word	pxOverflowTimerList
 1552 0080 00000000 		.word	pxCurrentTimerList
 1553              		.cfi_endproc
 1554              	.LFE19:
 1556              		.section	.text.prvProcessReceivedCommands,"ax",%progbits
 1557              		.align	1
 1558              		.syntax unified
 1559              		.thumb
 1560              		.thumb_func
 1561              		.fpu fpv4-sp-d16
 1563              	prvProcessReceivedCommands:
 1564              	.LFB20:
 707:Middlewares/Third_Party/FreeRTOS/Source/timers.c **** /*-----------------------------------------------------------*/
 708:Middlewares/Third_Party/FreeRTOS/Source/timers.c **** 
 709:Middlewares/Third_Party/FreeRTOS/Source/timers.c **** static void	prvProcessReceivedCommands( void )
 710:Middlewares/Third_Party/FreeRTOS/Source/timers.c **** {
 1565              		.loc 1 710 1
 1566              		.cfi_startproc
 1567              		@ args = 0, pretend = 0, frame = 48
 1568              		@ frame_needed = 1, uses_anonymous_args = 0
 1569 0000 80B5     		push	{r7, lr}
 1570              	.LCFI83:
 1571              		.cfi_def_cfa_offset 8
ARM GAS  /tmp/ccCA14ZC.s 			page 44


 1572              		.cfi_offset 7, -8
 1573              		.cfi_offset 14, -4
 1574 0002 8EB0     		sub	sp, sp, #56
 1575              	.LCFI84:
 1576              		.cfi_def_cfa_offset 64
 1577 0004 02AF     		add	r7, sp, #8
 1578              	.LCFI85:
 1579              		.cfi_def_cfa 7, 56
 711:Middlewares/Third_Party/FreeRTOS/Source/timers.c **** DaemonTaskMessage_t xMessage;
 712:Middlewares/Third_Party/FreeRTOS/Source/timers.c **** Timer_t *pxTimer;
 713:Middlewares/Third_Party/FreeRTOS/Source/timers.c **** BaseType_t xTimerListsWereSwitched, xResult;
 714:Middlewares/Third_Party/FreeRTOS/Source/timers.c **** TickType_t xTimeNow;
 715:Middlewares/Third_Party/FreeRTOS/Source/timers.c **** 
 716:Middlewares/Third_Party/FreeRTOS/Source/timers.c **** 	while( xQueueReceive( xTimerQueue, &xMessage, tmrNO_DELAY ) != pdFAIL ) /*lint !e603 xMessage does
 1580              		.loc 1 716 7
 1581 0006 C6E0     		b	.L101
 1582              	.L118:
 717:Middlewares/Third_Party/FreeRTOS/Source/timers.c **** 	{
 718:Middlewares/Third_Party/FreeRTOS/Source/timers.c **** 		#if ( INCLUDE_xTimerPendFunctionCall == 1 )
 719:Middlewares/Third_Party/FreeRTOS/Source/timers.c **** 		{
 720:Middlewares/Third_Party/FreeRTOS/Source/timers.c **** 			/* Negative commands are pended function calls rather than timer
 721:Middlewares/Third_Party/FreeRTOS/Source/timers.c **** 			commands. */
 722:Middlewares/Third_Party/FreeRTOS/Source/timers.c **** 			if( xMessage.xMessageID < ( BaseType_t ) 0 )
 1583              		.loc 1 722 16
 1584 0008 7B68     		ldr	r3, [r7, #4]
 1585              		.loc 1 722 6
 1586 000a 002B     		cmp	r3, #0
 1587 000c 17DA     		bge	.L102
 1588              	.LBB67:
 723:Middlewares/Third_Party/FreeRTOS/Source/timers.c **** 			{
 724:Middlewares/Third_Party/FreeRTOS/Source/timers.c **** 				const CallbackParameters_t * const pxCallback = &( xMessage.u.xCallbackParameters );
 1589              		.loc 1 724 40
 1590 000e 3B1D     		adds	r3, r7, #4
 1591 0010 0433     		adds	r3, r3, #4
 1592 0012 FB62     		str	r3, [r7, #44]
 725:Middlewares/Third_Party/FreeRTOS/Source/timers.c **** 
 726:Middlewares/Third_Party/FreeRTOS/Source/timers.c **** 				/* The timer uses the xCallbackParameters member to request a
 727:Middlewares/Third_Party/FreeRTOS/Source/timers.c **** 				callback be executed.  Check the callback is not NULL. */
 728:Middlewares/Third_Party/FreeRTOS/Source/timers.c **** 				configASSERT( pxCallback );
 1593              		.loc 1 728 5
 1594 0014 FB6A     		ldr	r3, [r7, #44]
 1595 0016 002B     		cmp	r3, #0
 1596 0018 09D1     		bne	.L103
 1597              	.LBB68:
 1598              	.LBB69:
 1599              		.loc 2 195 2 discriminator 1
 1600              		.syntax unified
 1601              	@ 195 "Middlewares/Third_Party/FreeRTOS/Source/portable/GCC/ARM_CM4F/portmacro.h" 1
 1602 001a 4FF05003 			mov r3, #80												
 1603 001e 83F31188 		msr basepri, r3											
 1604 0022 BFF36F8F 		isb														
 1605 0026 BFF34F8F 		dsb														
 1606              	
 1607              	@ 0 "" 2
 1608              		.thumb
 1609              		.syntax unified
 1610 002a FB61     		str	r3, [r7, #28]
ARM GAS  /tmp/ccCA14ZC.s 			page 45


 1611              	.L104:
 1612              	.LBE69:
 1613              	.LBE68:
 1614              		.loc 1 728 5 discriminator 1
 1615 002c FEE7     		b	.L104
 1616              	.L103:
 729:Middlewares/Third_Party/FreeRTOS/Source/timers.c **** 
 730:Middlewares/Third_Party/FreeRTOS/Source/timers.c **** 				/* Call the function. */
 731:Middlewares/Third_Party/FreeRTOS/Source/timers.c **** 				pxCallback->pxCallbackFunction( pxCallback->pvParameter1, pxCallback->ulParameter2 );
 1617              		.loc 1 731 15
 1618 002e FB6A     		ldr	r3, [r7, #44]
 1619 0030 1B68     		ldr	r3, [r3]
 1620              		.loc 1 731 5
 1621 0032 FA6A     		ldr	r2, [r7, #44]
 1622 0034 5068     		ldr	r0, [r2, #4]
 1623 0036 FA6A     		ldr	r2, [r7, #44]
 1624 0038 9268     		ldr	r2, [r2, #8]
 1625 003a 1146     		mov	r1, r2
 1626 003c 9847     		blx	r3
 1627              	.LVL1:
 1628              	.L102:
 1629              	.LBE67:
 732:Middlewares/Third_Party/FreeRTOS/Source/timers.c **** 			}
 733:Middlewares/Third_Party/FreeRTOS/Source/timers.c **** 			else
 734:Middlewares/Third_Party/FreeRTOS/Source/timers.c **** 			{
 735:Middlewares/Third_Party/FreeRTOS/Source/timers.c **** 				mtCOVERAGE_TEST_MARKER();
 736:Middlewares/Third_Party/FreeRTOS/Source/timers.c **** 			}
 737:Middlewares/Third_Party/FreeRTOS/Source/timers.c **** 		}
 738:Middlewares/Third_Party/FreeRTOS/Source/timers.c **** 		#endif /* INCLUDE_xTimerPendFunctionCall */
 739:Middlewares/Third_Party/FreeRTOS/Source/timers.c **** 
 740:Middlewares/Third_Party/FreeRTOS/Source/timers.c **** 		/* Commands that are positive are timer commands rather than pended
 741:Middlewares/Third_Party/FreeRTOS/Source/timers.c **** 		function calls. */
 742:Middlewares/Third_Party/FreeRTOS/Source/timers.c **** 		if( xMessage.xMessageID >= ( BaseType_t ) 0 )
 1630              		.loc 1 742 15
 1631 003e 7B68     		ldr	r3, [r7, #4]
 1632              		.loc 1 742 5
 1633 0040 002B     		cmp	r3, #0
 1634 0042 C0F2A780 		blt	.L119
 743:Middlewares/Third_Party/FreeRTOS/Source/timers.c **** 		{
 744:Middlewares/Third_Party/FreeRTOS/Source/timers.c **** 			/* The messages uses the xTimerParameters member to work on a
 745:Middlewares/Third_Party/FreeRTOS/Source/timers.c **** 			software timer. */
 746:Middlewares/Third_Party/FreeRTOS/Source/timers.c **** 			pxTimer = xMessage.u.xTimerParameters.pxTimer;
 1635              		.loc 1 746 12
 1636 0046 FB68     		ldr	r3, [r7, #12]
 1637 0048 BB62     		str	r3, [r7, #40]
 747:Middlewares/Third_Party/FreeRTOS/Source/timers.c **** 
 748:Middlewares/Third_Party/FreeRTOS/Source/timers.c **** 			if( listIS_CONTAINED_WITHIN( NULL, &( pxTimer->xTimerListItem ) ) == pdFALSE ) /*lint !e961. The
 1638              		.loc 1 748 8
 1639 004a BB6A     		ldr	r3, [r7, #40]
 1640 004c 5B69     		ldr	r3, [r3, #20]
 1641              		.loc 1 748 6
 1642 004e 002B     		cmp	r3, #0
 1643 0050 04D0     		beq	.L105
 749:Middlewares/Third_Party/FreeRTOS/Source/timers.c **** 			{
 750:Middlewares/Third_Party/FreeRTOS/Source/timers.c **** 				/* The timer is in a list, remove it. */
 751:Middlewares/Third_Party/FreeRTOS/Source/timers.c **** 				( void ) uxListRemove( &( pxTimer->xTimerListItem ) );
 1644              		.loc 1 751 14
ARM GAS  /tmp/ccCA14ZC.s 			page 46


 1645 0052 BB6A     		ldr	r3, [r7, #40]
 1646 0054 0433     		adds	r3, r3, #4
 1647 0056 1846     		mov	r0, r3
 1648 0058 FFF7FEFF 		bl	uxListRemove
 1649              	.L105:
 752:Middlewares/Third_Party/FreeRTOS/Source/timers.c **** 			}
 753:Middlewares/Third_Party/FreeRTOS/Source/timers.c **** 			else
 754:Middlewares/Third_Party/FreeRTOS/Source/timers.c **** 			{
 755:Middlewares/Third_Party/FreeRTOS/Source/timers.c **** 				mtCOVERAGE_TEST_MARKER();
 756:Middlewares/Third_Party/FreeRTOS/Source/timers.c **** 			}
 757:Middlewares/Third_Party/FreeRTOS/Source/timers.c **** 
 758:Middlewares/Third_Party/FreeRTOS/Source/timers.c **** 			traceTIMER_COMMAND_RECEIVED( pxTimer, xMessage.xMessageID, xMessage.u.xTimerParameters.xMessageV
 759:Middlewares/Third_Party/FreeRTOS/Source/timers.c **** 
 760:Middlewares/Third_Party/FreeRTOS/Source/timers.c **** 			/* In this case the xTimerListsWereSwitched parameter is not used, but
 761:Middlewares/Third_Party/FreeRTOS/Source/timers.c **** 			it must be present in the function call.  prvSampleTimeNow() must be
 762:Middlewares/Third_Party/FreeRTOS/Source/timers.c **** 			called after the message is received from xTimerQueue so there is no
 763:Middlewares/Third_Party/FreeRTOS/Source/timers.c **** 			possibility of a higher priority task adding a message to the message
 764:Middlewares/Third_Party/FreeRTOS/Source/timers.c **** 			queue with a time that is ahead of the timer daemon task (because it
 765:Middlewares/Third_Party/FreeRTOS/Source/timers.c **** 			pre-empted the timer daemon task after the xTimeNow value was set). */
 766:Middlewares/Third_Party/FreeRTOS/Source/timers.c **** 			xTimeNow = prvSampleTimeNow( &xTimerListsWereSwitched );
 1650              		.loc 1 766 15
 1651 005c 3B46     		mov	r3, r7
 1652 005e 1846     		mov	r0, r3
 1653 0060 FFF7FEFF 		bl	prvSampleTimeNow
 1654 0064 7862     		str	r0, [r7, #36]
 767:Middlewares/Third_Party/FreeRTOS/Source/timers.c **** 
 768:Middlewares/Third_Party/FreeRTOS/Source/timers.c **** 			switch( xMessage.xMessageID )
 1655              		.loc 1 768 20
 1656 0066 7B68     		ldr	r3, [r7, #4]
 1657              		.loc 1 768 4
 1658 0068 092B     		cmp	r3, #9
 1659 006a 00F29480 		bhi	.L101
 1660 006e 01A2     		adr	r2, .L108
 1661 0070 52F823F0 		ldr	pc, [r2, r3, lsl #2]
 1662              		.p2align 2
 1663              	.L108:
 1664 0074 9D000000 		.word	.L110+1
 1665 0078 9D000000 		.word	.L110+1
 1666 007c 9D000000 		.word	.L110+1
 1667 0080 0F010000 		.word	.L109+1
 1668 0084 23010000 		.word	.L107+1
 1669 0088 6B010000 		.word	.L111+1
 1670 008c 9D000000 		.word	.L110+1
 1671 0090 9D000000 		.word	.L110+1
 1672 0094 0F010000 		.word	.L109+1
 1673 0098 23010000 		.word	.L107+1
 1674              		.p2align 1
 1675              	.L110:
 769:Middlewares/Third_Party/FreeRTOS/Source/timers.c **** 			{
 770:Middlewares/Third_Party/FreeRTOS/Source/timers.c **** 				case tmrCOMMAND_START :
 771:Middlewares/Third_Party/FreeRTOS/Source/timers.c **** 				case tmrCOMMAND_START_FROM_ISR :
 772:Middlewares/Third_Party/FreeRTOS/Source/timers.c **** 				case tmrCOMMAND_RESET :
 773:Middlewares/Third_Party/FreeRTOS/Source/timers.c **** 				case tmrCOMMAND_RESET_FROM_ISR :
 774:Middlewares/Third_Party/FreeRTOS/Source/timers.c **** 				case tmrCOMMAND_START_DONT_TRACE :
 775:Middlewares/Third_Party/FreeRTOS/Source/timers.c **** 					/* Start or restart a timer. */
 776:Middlewares/Third_Party/FreeRTOS/Source/timers.c **** 					pxTimer->ucStatus |= tmrSTATUS_IS_ACTIVE;
 1676              		.loc 1 776 24
ARM GAS  /tmp/ccCA14ZC.s 			page 47


 1677 009c BB6A     		ldr	r3, [r7, #40]
 1678 009e 93F82830 		ldrb	r3, [r3, #40]	@ zero_extendqisi2
 1679 00a2 43F00103 		orr	r3, r3, #1
 1680 00a6 DAB2     		uxtb	r2, r3
 1681 00a8 BB6A     		ldr	r3, [r7, #40]
 1682 00aa 83F82820 		strb	r2, [r3, #40]
 777:Middlewares/Third_Party/FreeRTOS/Source/timers.c **** 					if( prvInsertTimerInActiveList( pxTimer,  xMessage.u.xTimerParameters.xMessageValue + pxTimer-
 1683              		.loc 1 777 75
 1684 00ae BA68     		ldr	r2, [r7, #8]
 1685              		.loc 1 777 99
 1686 00b0 BB6A     		ldr	r3, [r7, #40]
 1687 00b2 9B69     		ldr	r3, [r3, #24]
 1688              		.loc 1 777 10
 1689 00b4 D118     		adds	r1, r2, r3
 1690 00b6 BB68     		ldr	r3, [r7, #8]
 1691 00b8 7A6A     		ldr	r2, [r7, #36]
 1692 00ba B86A     		ldr	r0, [r7, #40]
 1693 00bc FFF7FEFF 		bl	prvInsertTimerInActiveList
 1694 00c0 0346     		mov	r3, r0
 1695              		.loc 1 777 8
 1696 00c2 002B     		cmp	r3, #0
 1697 00c4 67D0     		beq	.L101
 778:Middlewares/Third_Party/FreeRTOS/Source/timers.c **** 					{
 779:Middlewares/Third_Party/FreeRTOS/Source/timers.c **** 						/* The timer expired before it was added to the active
 780:Middlewares/Third_Party/FreeRTOS/Source/timers.c **** 						timer list.  Process it now. */
 781:Middlewares/Third_Party/FreeRTOS/Source/timers.c **** 						pxTimer->pxCallbackFunction( ( TimerHandle_t ) pxTimer );
 1698              		.loc 1 781 14
 1699 00c6 BB6A     		ldr	r3, [r7, #40]
 1700 00c8 1B6A     		ldr	r3, [r3, #32]
 1701              		.loc 1 781 7
 1702 00ca B86A     		ldr	r0, [r7, #40]
 1703 00cc 9847     		blx	r3
 1704              	.LVL2:
 782:Middlewares/Third_Party/FreeRTOS/Source/timers.c **** 						traceTIMER_EXPIRED( pxTimer );
 783:Middlewares/Third_Party/FreeRTOS/Source/timers.c **** 
 784:Middlewares/Third_Party/FreeRTOS/Source/timers.c **** 						if( ( pxTimer->ucStatus & tmrSTATUS_IS_AUTORELOAD ) != 0 )
 1705              		.loc 1 784 20
 1706 00ce BB6A     		ldr	r3, [r7, #40]
 1707 00d0 93F82830 		ldrb	r3, [r3, #40]	@ zero_extendqisi2
 1708              		.loc 1 784 31
 1709 00d4 03F00403 		and	r3, r3, #4
 1710              		.loc 1 784 9
 1711 00d8 002B     		cmp	r3, #0
 1712 00da 5CD0     		beq	.L101
 785:Middlewares/Third_Party/FreeRTOS/Source/timers.c **** 						{
 786:Middlewares/Third_Party/FreeRTOS/Source/timers.c **** 							xResult = xTimerGenericCommand( pxTimer, tmrCOMMAND_START_DONT_TRACE, xMessage.u.xTimerParam
 1713              		.loc 1 786 105
 1714 00dc BA68     		ldr	r2, [r7, #8]
 1715              		.loc 1 786 129
 1716 00de BB6A     		ldr	r3, [r7, #40]
 1717 00e0 9B69     		ldr	r3, [r3, #24]
 1718              		.loc 1 786 18
 1719 00e2 1A44     		add	r2, r2, r3
 1720 00e4 0023     		movs	r3, #0
 1721 00e6 0093     		str	r3, [sp]
 1722 00e8 0023     		movs	r3, #0
 1723 00ea 0021     		movs	r1, #0
ARM GAS  /tmp/ccCA14ZC.s 			page 48


 1724 00ec B86A     		ldr	r0, [r7, #40]
 1725 00ee FFF7FEFF 		bl	xTimerGenericCommand
 1726 00f2 3862     		str	r0, [r7, #32]
 787:Middlewares/Third_Party/FreeRTOS/Source/timers.c **** 							configASSERT( xResult );
 1727              		.loc 1 787 8
 1728 00f4 3B6A     		ldr	r3, [r7, #32]
 1729 00f6 002B     		cmp	r3, #0
 1730 00f8 4DD1     		bne	.L101
 1731              	.LBB70:
 1732              	.LBB71:
 1733              		.loc 2 195 2 discriminator 1
 1734              		.syntax unified
 1735              	@ 195 "Middlewares/Third_Party/FreeRTOS/Source/portable/GCC/ARM_CM4F/portmacro.h" 1
 1736 00fa 4FF05003 			mov r3, #80												
 1737 00fe 83F31188 		msr basepri, r3											
 1738 0102 BFF36F8F 		isb														
 1739 0106 BFF34F8F 		dsb														
 1740              	
 1741              	@ 0 "" 2
 1742              		.thumb
 1743              		.syntax unified
 1744 010a BB61     		str	r3, [r7, #24]
 1745              	.L113:
 1746              	.LBE71:
 1747              	.LBE70:
 1748              		.loc 1 787 8 discriminator 2
 1749 010c FEE7     		b	.L113
 1750              	.L109:
 788:Middlewares/Third_Party/FreeRTOS/Source/timers.c **** 							( void ) xResult;
 789:Middlewares/Third_Party/FreeRTOS/Source/timers.c **** 						}
 790:Middlewares/Third_Party/FreeRTOS/Source/timers.c **** 						else
 791:Middlewares/Third_Party/FreeRTOS/Source/timers.c **** 						{
 792:Middlewares/Third_Party/FreeRTOS/Source/timers.c **** 							mtCOVERAGE_TEST_MARKER();
 793:Middlewares/Third_Party/FreeRTOS/Source/timers.c **** 						}
 794:Middlewares/Third_Party/FreeRTOS/Source/timers.c **** 					}
 795:Middlewares/Third_Party/FreeRTOS/Source/timers.c **** 					else
 796:Middlewares/Third_Party/FreeRTOS/Source/timers.c **** 					{
 797:Middlewares/Third_Party/FreeRTOS/Source/timers.c **** 						mtCOVERAGE_TEST_MARKER();
 798:Middlewares/Third_Party/FreeRTOS/Source/timers.c **** 					}
 799:Middlewares/Third_Party/FreeRTOS/Source/timers.c **** 					break;
 800:Middlewares/Third_Party/FreeRTOS/Source/timers.c **** 
 801:Middlewares/Third_Party/FreeRTOS/Source/timers.c **** 				case tmrCOMMAND_STOP :
 802:Middlewares/Third_Party/FreeRTOS/Source/timers.c **** 				case tmrCOMMAND_STOP_FROM_ISR :
 803:Middlewares/Third_Party/FreeRTOS/Source/timers.c **** 					/* The timer has already been removed from the active list. */
 804:Middlewares/Third_Party/FreeRTOS/Source/timers.c **** 					pxTimer->ucStatus &= ~tmrSTATUS_IS_ACTIVE;
 1751              		.loc 1 804 24
 1752 010e BB6A     		ldr	r3, [r7, #40]
 1753 0110 93F82830 		ldrb	r3, [r3, #40]	@ zero_extendqisi2
 1754 0114 23F00103 		bic	r3, r3, #1
 1755 0118 DAB2     		uxtb	r2, r3
 1756 011a BB6A     		ldr	r3, [r7, #40]
 1757 011c 83F82820 		strb	r2, [r3, #40]
 805:Middlewares/Third_Party/FreeRTOS/Source/timers.c **** 					break;
 1758              		.loc 1 805 6
 1759 0120 39E0     		b	.L101
 1760              	.L107:
 806:Middlewares/Third_Party/FreeRTOS/Source/timers.c **** 
ARM GAS  /tmp/ccCA14ZC.s 			page 49


 807:Middlewares/Third_Party/FreeRTOS/Source/timers.c **** 				case tmrCOMMAND_CHANGE_PERIOD :
 808:Middlewares/Third_Party/FreeRTOS/Source/timers.c **** 				case tmrCOMMAND_CHANGE_PERIOD_FROM_ISR :
 809:Middlewares/Third_Party/FreeRTOS/Source/timers.c **** 					pxTimer->ucStatus |= tmrSTATUS_IS_ACTIVE;
 1761              		.loc 1 809 24
 1762 0122 BB6A     		ldr	r3, [r7, #40]
 1763 0124 93F82830 		ldrb	r3, [r3, #40]	@ zero_extendqisi2
 1764 0128 43F00103 		orr	r3, r3, #1
 1765 012c DAB2     		uxtb	r2, r3
 1766 012e BB6A     		ldr	r3, [r7, #40]
 1767 0130 83F82820 		strb	r2, [r3, #40]
 810:Middlewares/Third_Party/FreeRTOS/Source/timers.c **** 					pxTimer->xTimerPeriodInTicks = xMessage.u.xTimerParameters.xMessageValue;
 1768              		.loc 1 810 64
 1769 0134 BA68     		ldr	r2, [r7, #8]
 1770              		.loc 1 810 35
 1771 0136 BB6A     		ldr	r3, [r7, #40]
 1772 0138 9A61     		str	r2, [r3, #24]
 811:Middlewares/Third_Party/FreeRTOS/Source/timers.c **** 					configASSERT( ( pxTimer->xTimerPeriodInTicks > 0 ) );
 1773              		.loc 1 811 6
 1774 013a BB6A     		ldr	r3, [r7, #40]
 1775 013c 9B69     		ldr	r3, [r3, #24]
 1776 013e 002B     		cmp	r3, #0
 1777 0140 09D1     		bne	.L114
 1778              	.LBB72:
 1779              	.LBB73:
 1780              		.loc 2 195 2 discriminator 1
 1781              		.syntax unified
 1782              	@ 195 "Middlewares/Third_Party/FreeRTOS/Source/portable/GCC/ARM_CM4F/portmacro.h" 1
 1783 0142 4FF05003 			mov r3, #80												
 1784 0146 83F31188 		msr basepri, r3											
 1785 014a BFF36F8F 		isb														
 1786 014e BFF34F8F 		dsb														
 1787              	
 1788              	@ 0 "" 2
 1789              		.thumb
 1790              		.syntax unified
 1791 0152 7B61     		str	r3, [r7, #20]
 1792              	.L115:
 1793              	.LBE73:
 1794              	.LBE72:
 1795              		.loc 1 811 6 discriminator 5
 1796 0154 FEE7     		b	.L115
 1797              	.L114:
 812:Middlewares/Third_Party/FreeRTOS/Source/timers.c **** 
 813:Middlewares/Third_Party/FreeRTOS/Source/timers.c **** 					/* The new period does not really have a reference, and can
 814:Middlewares/Third_Party/FreeRTOS/Source/timers.c **** 					be longer or shorter than the old one.  The command time is
 815:Middlewares/Third_Party/FreeRTOS/Source/timers.c **** 					therefore set to the current time, and as the period cannot
 816:Middlewares/Third_Party/FreeRTOS/Source/timers.c **** 					be zero the next expiry time can only be in the future,
 817:Middlewares/Third_Party/FreeRTOS/Source/timers.c **** 					meaning (unlike for the xTimerStart() case above) there is
 818:Middlewares/Third_Party/FreeRTOS/Source/timers.c **** 					no fail case that needs to be handled here. */
 819:Middlewares/Third_Party/FreeRTOS/Source/timers.c **** 					( void ) prvInsertTimerInActiveList( pxTimer, ( xTimeNow + pxTimer->xTimerPeriodInTicks ), xTi
 1798              		.loc 1 819 72
 1799 0156 BB6A     		ldr	r3, [r7, #40]
 1800 0158 9A69     		ldr	r2, [r3, #24]
 1801              		.loc 1 819 15
 1802 015a 7B6A     		ldr	r3, [r7, #36]
 1803 015c D118     		adds	r1, r2, r3
 1804 015e 7B6A     		ldr	r3, [r7, #36]
ARM GAS  /tmp/ccCA14ZC.s 			page 50


 1805 0160 7A6A     		ldr	r2, [r7, #36]
 1806 0162 B86A     		ldr	r0, [r7, #40]
 1807 0164 FFF7FEFF 		bl	prvInsertTimerInActiveList
 820:Middlewares/Third_Party/FreeRTOS/Source/timers.c **** 					break;
 1808              		.loc 1 820 6
 1809 0168 15E0     		b	.L101
 1810              	.L111:
 821:Middlewares/Third_Party/FreeRTOS/Source/timers.c **** 
 822:Middlewares/Third_Party/FreeRTOS/Source/timers.c **** 				case tmrCOMMAND_DELETE :
 823:Middlewares/Third_Party/FreeRTOS/Source/timers.c **** 					#if ( configSUPPORT_DYNAMIC_ALLOCATION == 1 )
 824:Middlewares/Third_Party/FreeRTOS/Source/timers.c **** 					{
 825:Middlewares/Third_Party/FreeRTOS/Source/timers.c **** 						/* The timer has already been removed from the active list,
 826:Middlewares/Third_Party/FreeRTOS/Source/timers.c **** 						just free up the memory if the memory was dynamically
 827:Middlewares/Third_Party/FreeRTOS/Source/timers.c **** 						allocated. */
 828:Middlewares/Third_Party/FreeRTOS/Source/timers.c **** 						if( ( pxTimer->ucStatus & tmrSTATUS_IS_STATICALLY_ALLOCATED ) == ( uint8_t ) 0 )
 1811              		.loc 1 828 20
 1812 016a BB6A     		ldr	r3, [r7, #40]
 1813 016c 93F82830 		ldrb	r3, [r3, #40]	@ zero_extendqisi2
 1814              		.loc 1 828 31
 1815 0170 03F00203 		and	r3, r3, #2
 1816              		.loc 1 828 9
 1817 0174 002B     		cmp	r3, #0
 1818 0176 03D1     		bne	.L116
 829:Middlewares/Third_Party/FreeRTOS/Source/timers.c **** 						{
 830:Middlewares/Third_Party/FreeRTOS/Source/timers.c **** 							vPortFree( pxTimer );
 1819              		.loc 1 830 8
 1820 0178 B86A     		ldr	r0, [r7, #40]
 1821 017a FFF7FEFF 		bl	vPortFree
 1822 017e 0AE0     		b	.L101
 1823              	.L116:
 831:Middlewares/Third_Party/FreeRTOS/Source/timers.c **** 						}
 832:Middlewares/Third_Party/FreeRTOS/Source/timers.c **** 						else
 833:Middlewares/Third_Party/FreeRTOS/Source/timers.c **** 						{
 834:Middlewares/Third_Party/FreeRTOS/Source/timers.c **** 							pxTimer->ucStatus &= ~tmrSTATUS_IS_ACTIVE;
 1824              		.loc 1 834 26
 1825 0180 BB6A     		ldr	r3, [r7, #40]
 1826 0182 93F82830 		ldrb	r3, [r3, #40]	@ zero_extendqisi2
 1827 0186 23F00103 		bic	r3, r3, #1
 1828 018a DAB2     		uxtb	r2, r3
 1829 018c BB6A     		ldr	r3, [r7, #40]
 1830 018e 83F82820 		strb	r2, [r3, #40]
 835:Middlewares/Third_Party/FreeRTOS/Source/timers.c **** 						}
 836:Middlewares/Third_Party/FreeRTOS/Source/timers.c **** 					}
 837:Middlewares/Third_Party/FreeRTOS/Source/timers.c **** 					#else
 838:Middlewares/Third_Party/FreeRTOS/Source/timers.c **** 					{
 839:Middlewares/Third_Party/FreeRTOS/Source/timers.c **** 						/* If dynamic allocation is not enabled, the memory
 840:Middlewares/Third_Party/FreeRTOS/Source/timers.c **** 						could not have been dynamically allocated. So there is
 841:Middlewares/Third_Party/FreeRTOS/Source/timers.c **** 						no need to free the memory - just mark the timer as
 842:Middlewares/Third_Party/FreeRTOS/Source/timers.c **** 						"not active". */
 843:Middlewares/Third_Party/FreeRTOS/Source/timers.c **** 						pxTimer->ucStatus &= ~tmrSTATUS_IS_ACTIVE;
 844:Middlewares/Third_Party/FreeRTOS/Source/timers.c **** 					}
 845:Middlewares/Third_Party/FreeRTOS/Source/timers.c **** 					#endif /* configSUPPORT_DYNAMIC_ALLOCATION */
 846:Middlewares/Third_Party/FreeRTOS/Source/timers.c **** 					break;
 1831              		.loc 1 846 6
 1832 0192 00E0     		b	.L101
 1833              	.L119:
 847:Middlewares/Third_Party/FreeRTOS/Source/timers.c **** 
ARM GAS  /tmp/ccCA14ZC.s 			page 51


 848:Middlewares/Third_Party/FreeRTOS/Source/timers.c **** 				default	:
 849:Middlewares/Third_Party/FreeRTOS/Source/timers.c **** 					/* Don't expect to get here. */
 850:Middlewares/Third_Party/FreeRTOS/Source/timers.c **** 					break;
 851:Middlewares/Third_Party/FreeRTOS/Source/timers.c **** 			}
 852:Middlewares/Third_Party/FreeRTOS/Source/timers.c **** 		}
 1834              		.loc 1 852 3
 1835 0194 00BF     		nop
 1836              	.L101:
 716:Middlewares/Third_Party/FreeRTOS/Source/timers.c **** 	{
 1837              		.loc 1 716 9
 1838 0196 074B     		ldr	r3, .L120
 1839 0198 1B68     		ldr	r3, [r3]
 1840 019a 391D     		adds	r1, r7, #4
 1841 019c 0022     		movs	r2, #0
 1842 019e 1846     		mov	r0, r3
 1843 01a0 FFF7FEFF 		bl	xQueueReceive
 1844 01a4 0346     		mov	r3, r0
 716:Middlewares/Third_Party/FreeRTOS/Source/timers.c **** 	{
 1845              		.loc 1 716 7
 1846 01a6 002B     		cmp	r3, #0
 1847 01a8 7FF42EAF 		bne	.L118
 853:Middlewares/Third_Party/FreeRTOS/Source/timers.c **** 	}
 854:Middlewares/Third_Party/FreeRTOS/Source/timers.c **** }
 1848              		.loc 1 854 1
 1849 01ac 00BF     		nop
 1850 01ae 3037     		adds	r7, r7, #48
 1851              	.LCFI86:
 1852              		.cfi_def_cfa_offset 8
 1853 01b0 BD46     		mov	sp, r7
 1854              	.LCFI87:
 1855              		.cfi_def_cfa_register 13
 1856              		@ sp needed
 1857 01b2 80BD     		pop	{r7, pc}
 1858              	.L121:
 1859              		.align	2
 1860              	.L120:
 1861 01b4 00000000 		.word	xTimerQueue
 1862              		.cfi_endproc
 1863              	.LFE20:
 1865              		.section	.text.prvSwitchTimerLists,"ax",%progbits
 1866              		.align	1
 1867              		.syntax unified
 1868              		.thumb
 1869              		.thumb_func
 1870              		.fpu fpv4-sp-d16
 1872              	prvSwitchTimerLists:
 1873              	.LFB21:
 855:Middlewares/Third_Party/FreeRTOS/Source/timers.c **** /*-----------------------------------------------------------*/
 856:Middlewares/Third_Party/FreeRTOS/Source/timers.c **** 
 857:Middlewares/Third_Party/FreeRTOS/Source/timers.c **** static void prvSwitchTimerLists( void )
 858:Middlewares/Third_Party/FreeRTOS/Source/timers.c **** {
 1874              		.loc 1 858 1
 1875              		.cfi_startproc
 1876              		@ args = 0, pretend = 0, frame = 24
 1877              		@ frame_needed = 1, uses_anonymous_args = 0
 1878 0000 80B5     		push	{r7, lr}
 1879              	.LCFI88:
ARM GAS  /tmp/ccCA14ZC.s 			page 52


 1880              		.cfi_def_cfa_offset 8
 1881              		.cfi_offset 7, -8
 1882              		.cfi_offset 14, -4
 1883 0002 88B0     		sub	sp, sp, #32
 1884              	.LCFI89:
 1885              		.cfi_def_cfa_offset 40
 1886 0004 02AF     		add	r7, sp, #8
 1887              	.LCFI90:
 1888              		.cfi_def_cfa 7, 32
 859:Middlewares/Third_Party/FreeRTOS/Source/timers.c **** TickType_t xNextExpireTime, xReloadTime;
 860:Middlewares/Third_Party/FreeRTOS/Source/timers.c **** List_t *pxTemp;
 861:Middlewares/Third_Party/FreeRTOS/Source/timers.c **** Timer_t *pxTimer;
 862:Middlewares/Third_Party/FreeRTOS/Source/timers.c **** BaseType_t xResult;
 863:Middlewares/Third_Party/FreeRTOS/Source/timers.c **** 
 864:Middlewares/Third_Party/FreeRTOS/Source/timers.c **** 	/* The tick count has overflowed.  The timer lists must be switched.
 865:Middlewares/Third_Party/FreeRTOS/Source/timers.c **** 	If there are any timers still referenced from the current timer list
 866:Middlewares/Third_Party/FreeRTOS/Source/timers.c **** 	then they must have expired and should be processed before the lists
 867:Middlewares/Third_Party/FreeRTOS/Source/timers.c **** 	are switched. */
 868:Middlewares/Third_Party/FreeRTOS/Source/timers.c **** 	while( listLIST_IS_EMPTY( pxCurrentTimerList ) == pdFALSE )
 1889              		.loc 1 868 7
 1890 0006 47E0     		b	.L123
 1891              	.L126:
 869:Middlewares/Third_Party/FreeRTOS/Source/timers.c **** 	{
 870:Middlewares/Third_Party/FreeRTOS/Source/timers.c **** 		xNextExpireTime = listGET_ITEM_VALUE_OF_HEAD_ENTRY( pxCurrentTimerList );
 1892              		.loc 1 870 21
 1893 0008 2D4B     		ldr	r3, .L127
 1894 000a 1B68     		ldr	r3, [r3]
 1895 000c DB68     		ldr	r3, [r3, #12]
 1896              		.loc 1 870 19
 1897 000e 1B68     		ldr	r3, [r3]
 1898 0010 7B61     		str	r3, [r7, #20]
 871:Middlewares/Third_Party/FreeRTOS/Source/timers.c **** 
 872:Middlewares/Third_Party/FreeRTOS/Source/timers.c **** 		/* Remove the timer from the list. */
 873:Middlewares/Third_Party/FreeRTOS/Source/timers.c **** 		pxTimer = ( Timer_t * ) listGET_OWNER_OF_HEAD_ENTRY( pxCurrentTimerList ); /*lint !e9087 !e9079 v
 1899              		.loc 1 873 27
 1900 0012 2B4B     		ldr	r3, .L127
 1901 0014 1B68     		ldr	r3, [r3]
 1902 0016 DB68     		ldr	r3, [r3, #12]
 1903              		.loc 1 873 11
 1904 0018 DB68     		ldr	r3, [r3, #12]
 1905 001a 3B61     		str	r3, [r7, #16]
 874:Middlewares/Third_Party/FreeRTOS/Source/timers.c **** 		( void ) uxListRemove( &( pxTimer->xTimerListItem ) );
 1906              		.loc 1 874 12
 1907 001c 3B69     		ldr	r3, [r7, #16]
 1908 001e 0433     		adds	r3, r3, #4
 1909 0020 1846     		mov	r0, r3
 1910 0022 FFF7FEFF 		bl	uxListRemove
 875:Middlewares/Third_Party/FreeRTOS/Source/timers.c **** 		traceTIMER_EXPIRED( pxTimer );
 876:Middlewares/Third_Party/FreeRTOS/Source/timers.c **** 
 877:Middlewares/Third_Party/FreeRTOS/Source/timers.c **** 		/* Execute its callback, then send a command to restart the timer if
 878:Middlewares/Third_Party/FreeRTOS/Source/timers.c **** 		it is an auto-reload timer.  It cannot be restarted here as the lists
 879:Middlewares/Third_Party/FreeRTOS/Source/timers.c **** 		have not yet been switched. */
 880:Middlewares/Third_Party/FreeRTOS/Source/timers.c **** 		pxTimer->pxCallbackFunction( ( TimerHandle_t ) pxTimer );
 1911              		.loc 1 880 10
 1912 0026 3B69     		ldr	r3, [r7, #16]
 1913 0028 1B6A     		ldr	r3, [r3, #32]
 1914              		.loc 1 880 3
ARM GAS  /tmp/ccCA14ZC.s 			page 53


 1915 002a 3869     		ldr	r0, [r7, #16]
 1916 002c 9847     		blx	r3
 1917              	.LVL3:
 881:Middlewares/Third_Party/FreeRTOS/Source/timers.c **** 
 882:Middlewares/Third_Party/FreeRTOS/Source/timers.c **** 		if( ( pxTimer->ucStatus & tmrSTATUS_IS_AUTORELOAD ) != 0 )
 1918              		.loc 1 882 16
 1919 002e 3B69     		ldr	r3, [r7, #16]
 1920 0030 93F82830 		ldrb	r3, [r3, #40]	@ zero_extendqisi2
 1921              		.loc 1 882 27
 1922 0034 03F00403 		and	r3, r3, #4
 1923              		.loc 1 882 5
 1924 0038 002B     		cmp	r3, #0
 1925 003a 2DD0     		beq	.L123
 883:Middlewares/Third_Party/FreeRTOS/Source/timers.c **** 		{
 884:Middlewares/Third_Party/FreeRTOS/Source/timers.c **** 			/* Calculate the reload value, and if the reload value results in
 885:Middlewares/Third_Party/FreeRTOS/Source/timers.c **** 			the timer going into the same timer list then it has already expired
 886:Middlewares/Third_Party/FreeRTOS/Source/timers.c **** 			and the timer should be re-inserted into the current list so it is
 887:Middlewares/Third_Party/FreeRTOS/Source/timers.c **** 			processed again within this loop.  Otherwise a command should be sent
 888:Middlewares/Third_Party/FreeRTOS/Source/timers.c **** 			to restart the timer to ensure it is only inserted into a list after
 889:Middlewares/Third_Party/FreeRTOS/Source/timers.c **** 			the lists have been swapped. */
 890:Middlewares/Third_Party/FreeRTOS/Source/timers.c **** 			xReloadTime = ( xNextExpireTime + pxTimer->xTimerPeriodInTicks );
 1926              		.loc 1 890 45
 1927 003c 3B69     		ldr	r3, [r7, #16]
 1928 003e 9B69     		ldr	r3, [r3, #24]
 1929              		.loc 1 890 16
 1930 0040 7A69     		ldr	r2, [r7, #20]
 1931 0042 1344     		add	r3, r3, r2
 1932 0044 FB60     		str	r3, [r7, #12]
 891:Middlewares/Third_Party/FreeRTOS/Source/timers.c **** 			if( xReloadTime > xNextExpireTime )
 1933              		.loc 1 891 6
 1934 0046 FA68     		ldr	r2, [r7, #12]
 1935 0048 7B69     		ldr	r3, [r7, #20]
 1936 004a 9A42     		cmp	r2, r3
 1937 004c 0ED9     		bls	.L124
 892:Middlewares/Third_Party/FreeRTOS/Source/timers.c **** 			{
 893:Middlewares/Third_Party/FreeRTOS/Source/timers.c **** 				listSET_LIST_ITEM_VALUE( &( pxTimer->xTimerListItem ), xReloadTime );
 1938              		.loc 1 893 5
 1939 004e 3B69     		ldr	r3, [r7, #16]
 1940 0050 FA68     		ldr	r2, [r7, #12]
 1941 0052 5A60     		str	r2, [r3, #4]
 894:Middlewares/Third_Party/FreeRTOS/Source/timers.c **** 				listSET_LIST_ITEM_OWNER( &( pxTimer->xTimerListItem ), pxTimer );
 1942              		.loc 1 894 5
 1943 0054 3B69     		ldr	r3, [r7, #16]
 1944 0056 3A69     		ldr	r2, [r7, #16]
 1945 0058 1A61     		str	r2, [r3, #16]
 895:Middlewares/Third_Party/FreeRTOS/Source/timers.c **** 				vListInsert( pxCurrentTimerList, &( pxTimer->xTimerListItem ) );
 1946              		.loc 1 895 5
 1947 005a 194B     		ldr	r3, .L127
 1948 005c 1A68     		ldr	r2, [r3]
 1949 005e 3B69     		ldr	r3, [r7, #16]
 1950 0060 0433     		adds	r3, r3, #4
 1951 0062 1946     		mov	r1, r3
 1952 0064 1046     		mov	r0, r2
 1953 0066 FFF7FEFF 		bl	vListInsert
 1954 006a 15E0     		b	.L123
 1955              	.L124:
 896:Middlewares/Third_Party/FreeRTOS/Source/timers.c **** 			}
ARM GAS  /tmp/ccCA14ZC.s 			page 54


 897:Middlewares/Third_Party/FreeRTOS/Source/timers.c **** 			else
 898:Middlewares/Third_Party/FreeRTOS/Source/timers.c **** 			{
 899:Middlewares/Third_Party/FreeRTOS/Source/timers.c **** 				xResult = xTimerGenericCommand( pxTimer, tmrCOMMAND_START_DONT_TRACE, xNextExpireTime, NULL, tm
 1956              		.loc 1 899 15
 1957 006c 0023     		movs	r3, #0
 1958 006e 0093     		str	r3, [sp]
 1959 0070 0023     		movs	r3, #0
 1960 0072 7A69     		ldr	r2, [r7, #20]
 1961 0074 0021     		movs	r1, #0
 1962 0076 3869     		ldr	r0, [r7, #16]
 1963 0078 FFF7FEFF 		bl	xTimerGenericCommand
 1964 007c B860     		str	r0, [r7, #8]
 900:Middlewares/Third_Party/FreeRTOS/Source/timers.c **** 				configASSERT( xResult );
 1965              		.loc 1 900 5
 1966 007e BB68     		ldr	r3, [r7, #8]
 1967 0080 002B     		cmp	r3, #0
 1968 0082 09D1     		bne	.L123
 1969              	.LBB74:
 1970              	.LBB75:
 1971              		.loc 2 195 2 discriminator 1
 1972              		.syntax unified
 1973              	@ 195 "Middlewares/Third_Party/FreeRTOS/Source/portable/GCC/ARM_CM4F/portmacro.h" 1
 1974 0084 4FF05003 			mov r3, #80												
 1975 0088 83F31188 		msr basepri, r3											
 1976 008c BFF36F8F 		isb														
 1977 0090 BFF34F8F 		dsb														
 1978              	
 1979              	@ 0 "" 2
 1980              		.thumb
 1981              		.syntax unified
 1982 0094 3B60     		str	r3, [r7]
 1983              	.L125:
 1984              	.LBE75:
 1985              	.LBE74:
 1986              		.loc 1 900 5 discriminator 1
 1987 0096 FEE7     		b	.L125
 1988              	.L123:
 868:Middlewares/Third_Party/FreeRTOS/Source/timers.c **** 	{
 1989              		.loc 1 868 9
 1990 0098 094B     		ldr	r3, .L127
 1991 009a 1B68     		ldr	r3, [r3]
 1992 009c 1B68     		ldr	r3, [r3]
 868:Middlewares/Third_Party/FreeRTOS/Source/timers.c **** 	{
 1993              		.loc 1 868 7
 1994 009e 002B     		cmp	r3, #0
 1995 00a0 B2D1     		bne	.L126
 901:Middlewares/Third_Party/FreeRTOS/Source/timers.c **** 				( void ) xResult;
 902:Middlewares/Third_Party/FreeRTOS/Source/timers.c **** 			}
 903:Middlewares/Third_Party/FreeRTOS/Source/timers.c **** 		}
 904:Middlewares/Third_Party/FreeRTOS/Source/timers.c **** 		else
 905:Middlewares/Third_Party/FreeRTOS/Source/timers.c **** 		{
 906:Middlewares/Third_Party/FreeRTOS/Source/timers.c **** 			mtCOVERAGE_TEST_MARKER();
 907:Middlewares/Third_Party/FreeRTOS/Source/timers.c **** 		}
 908:Middlewares/Third_Party/FreeRTOS/Source/timers.c **** 	}
 909:Middlewares/Third_Party/FreeRTOS/Source/timers.c **** 
 910:Middlewares/Third_Party/FreeRTOS/Source/timers.c **** 	pxTemp = pxCurrentTimerList;
 1996              		.loc 1 910 9
ARM GAS  /tmp/ccCA14ZC.s 			page 55


 1997 00a2 074B     		ldr	r3, .L127
 1998 00a4 1B68     		ldr	r3, [r3]
 1999 00a6 7B60     		str	r3, [r7, #4]
 911:Middlewares/Third_Party/FreeRTOS/Source/timers.c **** 	pxCurrentTimerList = pxOverflowTimerList;
 2000              		.loc 1 911 21
 2001 00a8 064B     		ldr	r3, .L127+4
 2002 00aa 1B68     		ldr	r3, [r3]
 2003 00ac 044A     		ldr	r2, .L127
 2004 00ae 1360     		str	r3, [r2]
 912:Middlewares/Third_Party/FreeRTOS/Source/timers.c **** 	pxOverflowTimerList = pxTemp;
 2005              		.loc 1 912 22
 2006 00b0 044A     		ldr	r2, .L127+4
 2007 00b2 7B68     		ldr	r3, [r7, #4]
 2008 00b4 1360     		str	r3, [r2]
 913:Middlewares/Third_Party/FreeRTOS/Source/timers.c **** }
 2009              		.loc 1 913 1
 2010 00b6 00BF     		nop
 2011 00b8 1837     		adds	r7, r7, #24
 2012              	.LCFI91:
 2013              		.cfi_def_cfa_offset 8
 2014 00ba BD46     		mov	sp, r7
 2015              	.LCFI92:
 2016              		.cfi_def_cfa_register 13
 2017              		@ sp needed
 2018 00bc 80BD     		pop	{r7, pc}
 2019              	.L128:
 2020 00be 00BF     		.align	2
 2021              	.L127:
 2022 00c0 00000000 		.word	pxCurrentTimerList
 2023 00c4 00000000 		.word	pxOverflowTimerList
 2024              		.cfi_endproc
 2025              	.LFE21:
 2027              		.section	.rodata
 2028              		.align	2
 2029              	.LC1:
 2030 0008 546D7251 		.ascii	"TmrQ\000"
 2030      00
 2031              		.section	.text.prvCheckForValidListAndQueue,"ax",%progbits
 2032              		.align	1
 2033              		.syntax unified
 2034              		.thumb
 2035              		.thumb_func
 2036              		.fpu fpv4-sp-d16
 2038              	prvCheckForValidListAndQueue:
 2039              	.LFB22:
 914:Middlewares/Third_Party/FreeRTOS/Source/timers.c **** /*-----------------------------------------------------------*/
 915:Middlewares/Third_Party/FreeRTOS/Source/timers.c **** 
 916:Middlewares/Third_Party/FreeRTOS/Source/timers.c **** static void prvCheckForValidListAndQueue( void )
 917:Middlewares/Third_Party/FreeRTOS/Source/timers.c **** {
 2040              		.loc 1 917 1
 2041              		.cfi_startproc
 2042              		@ args = 0, pretend = 0, frame = 0
 2043              		@ frame_needed = 1, uses_anonymous_args = 0
 2044 0000 80B5     		push	{r7, lr}
 2045              	.LCFI93:
 2046              		.cfi_def_cfa_offset 8
 2047              		.cfi_offset 7, -8
ARM GAS  /tmp/ccCA14ZC.s 			page 56


 2048              		.cfi_offset 14, -4
 2049 0002 82B0     		sub	sp, sp, #8
 2050              	.LCFI94:
 2051              		.cfi_def_cfa_offset 16
 2052 0004 02AF     		add	r7, sp, #8
 2053              	.LCFI95:
 2054              		.cfi_def_cfa 7, 8
 918:Middlewares/Third_Party/FreeRTOS/Source/timers.c **** 	/* Check that the list from which active timers are referenced, and the
 919:Middlewares/Third_Party/FreeRTOS/Source/timers.c **** 	queue used to communicate with the timer service, have been
 920:Middlewares/Third_Party/FreeRTOS/Source/timers.c **** 	initialised. */
 921:Middlewares/Third_Party/FreeRTOS/Source/timers.c **** 	taskENTER_CRITICAL();
 2055              		.loc 1 921 2
 2056 0006 FFF7FEFF 		bl	vPortEnterCritical
 922:Middlewares/Third_Party/FreeRTOS/Source/timers.c **** 	{
 923:Middlewares/Third_Party/FreeRTOS/Source/timers.c **** 		if( xTimerQueue == NULL )
 2057              		.loc 1 923 19
 2058 000a 154B     		ldr	r3, .L131
 2059 000c 1B68     		ldr	r3, [r3]
 2060              		.loc 1 923 5
 2061 000e 002B     		cmp	r3, #0
 2062 0010 20D1     		bne	.L130
 924:Middlewares/Third_Party/FreeRTOS/Source/timers.c **** 		{
 925:Middlewares/Third_Party/FreeRTOS/Source/timers.c **** 			vListInitialise( &xActiveTimerList1 );
 2063              		.loc 1 925 4
 2064 0012 1448     		ldr	r0, .L131+4
 2065 0014 FFF7FEFF 		bl	vListInitialise
 926:Middlewares/Third_Party/FreeRTOS/Source/timers.c **** 			vListInitialise( &xActiveTimerList2 );
 2066              		.loc 1 926 4
 2067 0018 1348     		ldr	r0, .L131+8
 2068 001a FFF7FEFF 		bl	vListInitialise
 927:Middlewares/Third_Party/FreeRTOS/Source/timers.c **** 			pxCurrentTimerList = &xActiveTimerList1;
 2069              		.loc 1 927 23
 2070 001e 134B     		ldr	r3, .L131+12
 2071 0020 104A     		ldr	r2, .L131+4
 2072 0022 1A60     		str	r2, [r3]
 928:Middlewares/Third_Party/FreeRTOS/Source/timers.c **** 			pxOverflowTimerList = &xActiveTimerList2;
 2073              		.loc 1 928 24
 2074 0024 124B     		ldr	r3, .L131+16
 2075 0026 104A     		ldr	r2, .L131+8
 2076 0028 1A60     		str	r2, [r3]
 2077              	.LBB76:
 929:Middlewares/Third_Party/FreeRTOS/Source/timers.c **** 
 930:Middlewares/Third_Party/FreeRTOS/Source/timers.c **** 			#if( configSUPPORT_STATIC_ALLOCATION == 1 )
 931:Middlewares/Third_Party/FreeRTOS/Source/timers.c **** 			{
 932:Middlewares/Third_Party/FreeRTOS/Source/timers.c **** 				/* The timer queue is allocated statically in case
 933:Middlewares/Third_Party/FreeRTOS/Source/timers.c **** 				configSUPPORT_DYNAMIC_ALLOCATION is 0. */
 934:Middlewares/Third_Party/FreeRTOS/Source/timers.c **** 				static StaticQueue_t xStaticTimerQueue; /*lint !e956 Ok to declare in this manner to prevent ad
 935:Middlewares/Third_Party/FreeRTOS/Source/timers.c **** 				static uint8_t ucStaticTimerQueueStorage[ ( size_t ) configTIMER_QUEUE_LENGTH * sizeof( DaemonT
 936:Middlewares/Third_Party/FreeRTOS/Source/timers.c **** 
 937:Middlewares/Third_Party/FreeRTOS/Source/timers.c **** 				xTimerQueue = xQueueCreateStatic( ( UBaseType_t ) configTIMER_QUEUE_LENGTH, ( UBaseType_t ) siz
 2078              		.loc 1 937 19
 2079 002a 0023     		movs	r3, #0
 2080 002c 0093     		str	r3, [sp]
 2081 002e 114B     		ldr	r3, .L131+20
 2082 0030 114A     		ldr	r2, .L131+24
 2083 0032 1021     		movs	r1, #16
 2084 0034 0A20     		movs	r0, #10
ARM GAS  /tmp/ccCA14ZC.s 			page 57


 2085 0036 FFF7FEFF 		bl	xQueueGenericCreateStatic
 2086 003a 0246     		mov	r2, r0
 2087              		.loc 1 937 17
 2088 003c 084B     		ldr	r3, .L131
 2089 003e 1A60     		str	r2, [r3]
 2090              	.LBE76:
 938:Middlewares/Third_Party/FreeRTOS/Source/timers.c **** 			}
 939:Middlewares/Third_Party/FreeRTOS/Source/timers.c **** 			#else
 940:Middlewares/Third_Party/FreeRTOS/Source/timers.c **** 			{
 941:Middlewares/Third_Party/FreeRTOS/Source/timers.c **** 				xTimerQueue = xQueueCreate( ( UBaseType_t ) configTIMER_QUEUE_LENGTH, sizeof( DaemonTaskMessage
 942:Middlewares/Third_Party/FreeRTOS/Source/timers.c **** 			}
 943:Middlewares/Third_Party/FreeRTOS/Source/timers.c **** 			#endif
 944:Middlewares/Third_Party/FreeRTOS/Source/timers.c **** 
 945:Middlewares/Third_Party/FreeRTOS/Source/timers.c **** 			#if ( configQUEUE_REGISTRY_SIZE > 0 )
 946:Middlewares/Third_Party/FreeRTOS/Source/timers.c **** 			{
 947:Middlewares/Third_Party/FreeRTOS/Source/timers.c **** 				if( xTimerQueue != NULL )
 2091              		.loc 1 947 21
 2092 0040 074B     		ldr	r3, .L131
 2093 0042 1B68     		ldr	r3, [r3]
 2094              		.loc 1 947 7
 2095 0044 002B     		cmp	r3, #0
 2096 0046 05D0     		beq	.L130
 948:Middlewares/Third_Party/FreeRTOS/Source/timers.c **** 				{
 949:Middlewares/Third_Party/FreeRTOS/Source/timers.c **** 					vQueueAddToRegistry( xTimerQueue, "TmrQ" );
 2097              		.loc 1 949 6
 2098 0048 054B     		ldr	r3, .L131
 2099 004a 1B68     		ldr	r3, [r3]
 2100 004c 0B49     		ldr	r1, .L131+28
 2101 004e 1846     		mov	r0, r3
 2102 0050 FFF7FEFF 		bl	vQueueAddToRegistry
 2103              	.L130:
 950:Middlewares/Third_Party/FreeRTOS/Source/timers.c **** 				}
 951:Middlewares/Third_Party/FreeRTOS/Source/timers.c **** 				else
 952:Middlewares/Third_Party/FreeRTOS/Source/timers.c **** 				{
 953:Middlewares/Third_Party/FreeRTOS/Source/timers.c **** 					mtCOVERAGE_TEST_MARKER();
 954:Middlewares/Third_Party/FreeRTOS/Source/timers.c **** 				}
 955:Middlewares/Third_Party/FreeRTOS/Source/timers.c **** 			}
 956:Middlewares/Third_Party/FreeRTOS/Source/timers.c **** 			#endif /* configQUEUE_REGISTRY_SIZE */
 957:Middlewares/Third_Party/FreeRTOS/Source/timers.c **** 		}
 958:Middlewares/Third_Party/FreeRTOS/Source/timers.c **** 		else
 959:Middlewares/Third_Party/FreeRTOS/Source/timers.c **** 		{
 960:Middlewares/Third_Party/FreeRTOS/Source/timers.c **** 			mtCOVERAGE_TEST_MARKER();
 961:Middlewares/Third_Party/FreeRTOS/Source/timers.c **** 		}
 962:Middlewares/Third_Party/FreeRTOS/Source/timers.c **** 	}
 963:Middlewares/Third_Party/FreeRTOS/Source/timers.c **** 	taskEXIT_CRITICAL();
 2104              		.loc 1 963 2
 2105 0054 FFF7FEFF 		bl	vPortExitCritical
 964:Middlewares/Third_Party/FreeRTOS/Source/timers.c **** }
 2106              		.loc 1 964 1
 2107 0058 00BF     		nop
 2108 005a BD46     		mov	sp, r7
 2109              	.LCFI96:
 2110              		.cfi_def_cfa_register 13
 2111              		@ sp needed
 2112 005c 80BD     		pop	{r7, pc}
 2113              	.L132:
 2114 005e 00BF     		.align	2
ARM GAS  /tmp/ccCA14ZC.s 			page 58


 2115              	.L131:
 2116 0060 00000000 		.word	xTimerQueue
 2117 0064 00000000 		.word	xActiveTimerList1
 2118 0068 00000000 		.word	xActiveTimerList2
 2119 006c 00000000 		.word	pxCurrentTimerList
 2120 0070 00000000 		.word	pxOverflowTimerList
 2121 0074 00000000 		.word	xStaticTimerQueue.6938
 2122 0078 00000000 		.word	ucStaticTimerQueueStorage.6939
 2123 007c 08000000 		.word	.LC1
 2124              		.cfi_endproc
 2125              	.LFE22:
 2127              		.section	.text.xTimerIsTimerActive,"ax",%progbits
 2128              		.align	1
 2129              		.global	xTimerIsTimerActive
 2130              		.syntax unified
 2131              		.thumb
 2132              		.thumb_func
 2133              		.fpu fpv4-sp-d16
 2135              	xTimerIsTimerActive:
 2136              	.LFB23:
 965:Middlewares/Third_Party/FreeRTOS/Source/timers.c **** /*-----------------------------------------------------------*/
 966:Middlewares/Third_Party/FreeRTOS/Source/timers.c **** 
 967:Middlewares/Third_Party/FreeRTOS/Source/timers.c **** BaseType_t xTimerIsTimerActive( TimerHandle_t xTimer )
 968:Middlewares/Third_Party/FreeRTOS/Source/timers.c **** {
 2137              		.loc 1 968 1
 2138              		.cfi_startproc
 2139              		@ args = 0, pretend = 0, frame = 24
 2140              		@ frame_needed = 1, uses_anonymous_args = 0
 2141 0000 80B5     		push	{r7, lr}
 2142              	.LCFI97:
 2143              		.cfi_def_cfa_offset 8
 2144              		.cfi_offset 7, -8
 2145              		.cfi_offset 14, -4
 2146 0002 86B0     		sub	sp, sp, #24
 2147              	.LCFI98:
 2148              		.cfi_def_cfa_offset 32
 2149 0004 00AF     		add	r7, sp, #0
 2150              	.LCFI99:
 2151              		.cfi_def_cfa_register 7
 2152 0006 7860     		str	r0, [r7, #4]
 969:Middlewares/Third_Party/FreeRTOS/Source/timers.c **** BaseType_t xReturn;
 970:Middlewares/Third_Party/FreeRTOS/Source/timers.c **** Timer_t *pxTimer = xTimer;
 2153              		.loc 1 970 10
 2154 0008 7B68     		ldr	r3, [r7, #4]
 2155 000a 3B61     		str	r3, [r7, #16]
 971:Middlewares/Third_Party/FreeRTOS/Source/timers.c **** 
 972:Middlewares/Third_Party/FreeRTOS/Source/timers.c **** 	configASSERT( xTimer );
 2156              		.loc 1 972 2
 2157 000c 7B68     		ldr	r3, [r7, #4]
 2158 000e 002B     		cmp	r3, #0
 2159 0010 09D1     		bne	.L134
 2160              	.LBB77:
 2161              	.LBB78:
 2162              		.loc 2 195 2 discriminator 1
 2163              		.syntax unified
 2164              	@ 195 "Middlewares/Third_Party/FreeRTOS/Source/portable/GCC/ARM_CM4F/portmacro.h" 1
 2165 0012 4FF05003 			mov r3, #80												
ARM GAS  /tmp/ccCA14ZC.s 			page 59


 2166 0016 83F31188 		msr basepri, r3											
 2167 001a BFF36F8F 		isb														
 2168 001e BFF34F8F 		dsb														
 2169              	
 2170              	@ 0 "" 2
 2171              		.thumb
 2172              		.syntax unified
 2173 0022 FB60     		str	r3, [r7, #12]
 2174              	.L135:
 2175              	.LBE78:
 2176              	.LBE77:
 2177              		.loc 1 972 2 discriminator 1
 2178 0024 FEE7     		b	.L135
 2179              	.L134:
 973:Middlewares/Third_Party/FreeRTOS/Source/timers.c **** 
 974:Middlewares/Third_Party/FreeRTOS/Source/timers.c **** 	/* Is the timer in the list of active timers? */
 975:Middlewares/Third_Party/FreeRTOS/Source/timers.c **** 	taskENTER_CRITICAL();
 2180              		.loc 1 975 2
 2181 0026 FFF7FEFF 		bl	vPortEnterCritical
 976:Middlewares/Third_Party/FreeRTOS/Source/timers.c **** 	{
 977:Middlewares/Third_Party/FreeRTOS/Source/timers.c **** 		if( ( pxTimer->ucStatus & tmrSTATUS_IS_ACTIVE ) == 0 )
 2182              		.loc 1 977 16
 2183 002a 3B69     		ldr	r3, [r7, #16]
 2184 002c 93F82830 		ldrb	r3, [r3, #40]	@ zero_extendqisi2
 2185              		.loc 1 977 27
 2186 0030 03F00103 		and	r3, r3, #1
 2187              		.loc 1 977 5
 2188 0034 002B     		cmp	r3, #0
 2189 0036 02D1     		bne	.L136
 978:Middlewares/Third_Party/FreeRTOS/Source/timers.c **** 		{
 979:Middlewares/Third_Party/FreeRTOS/Source/timers.c **** 			xReturn = pdFALSE;
 2190              		.loc 1 979 12
 2191 0038 0023     		movs	r3, #0
 2192 003a 7B61     		str	r3, [r7, #20]
 2193 003c 01E0     		b	.L137
 2194              	.L136:
 980:Middlewares/Third_Party/FreeRTOS/Source/timers.c **** 		}
 981:Middlewares/Third_Party/FreeRTOS/Source/timers.c **** 		else
 982:Middlewares/Third_Party/FreeRTOS/Source/timers.c **** 		{
 983:Middlewares/Third_Party/FreeRTOS/Source/timers.c **** 			xReturn = pdTRUE;
 2195              		.loc 1 983 12
 2196 003e 0123     		movs	r3, #1
 2197 0040 7B61     		str	r3, [r7, #20]
 2198              	.L137:
 984:Middlewares/Third_Party/FreeRTOS/Source/timers.c **** 		}
 985:Middlewares/Third_Party/FreeRTOS/Source/timers.c **** 	}
 986:Middlewares/Third_Party/FreeRTOS/Source/timers.c **** 	taskEXIT_CRITICAL();
 2199              		.loc 1 986 2
 2200 0042 FFF7FEFF 		bl	vPortExitCritical
 987:Middlewares/Third_Party/FreeRTOS/Source/timers.c **** 
 988:Middlewares/Third_Party/FreeRTOS/Source/timers.c **** 	return xReturn;
 2201              		.loc 1 988 9
 2202 0046 7B69     		ldr	r3, [r7, #20]
 989:Middlewares/Third_Party/FreeRTOS/Source/timers.c **** } /*lint !e818 Can't be pointer to const due to the typedef. */
 2203              		.loc 1 989 1
 2204 0048 1846     		mov	r0, r3
 2205 004a 1837     		adds	r7, r7, #24
ARM GAS  /tmp/ccCA14ZC.s 			page 60


 2206              	.LCFI100:
 2207              		.cfi_def_cfa_offset 8
 2208 004c BD46     		mov	sp, r7
 2209              	.LCFI101:
 2210              		.cfi_def_cfa_register 13
 2211              		@ sp needed
 2212 004e 80BD     		pop	{r7, pc}
 2213              		.cfi_endproc
 2214              	.LFE23:
 2216              		.section	.text.pvTimerGetTimerID,"ax",%progbits
 2217              		.align	1
 2218              		.global	pvTimerGetTimerID
 2219              		.syntax unified
 2220              		.thumb
 2221              		.thumb_func
 2222              		.fpu fpv4-sp-d16
 2224              	pvTimerGetTimerID:
 2225              	.LFB24:
 990:Middlewares/Third_Party/FreeRTOS/Source/timers.c **** /*-----------------------------------------------------------*/
 991:Middlewares/Third_Party/FreeRTOS/Source/timers.c **** 
 992:Middlewares/Third_Party/FreeRTOS/Source/timers.c **** void *pvTimerGetTimerID( const TimerHandle_t xTimer )
 993:Middlewares/Third_Party/FreeRTOS/Source/timers.c **** {
 2226              		.loc 1 993 1
 2227              		.cfi_startproc
 2228              		@ args = 0, pretend = 0, frame = 24
 2229              		@ frame_needed = 1, uses_anonymous_args = 0
 2230 0000 80B5     		push	{r7, lr}
 2231              	.LCFI102:
 2232              		.cfi_def_cfa_offset 8
 2233              		.cfi_offset 7, -8
 2234              		.cfi_offset 14, -4
 2235 0002 86B0     		sub	sp, sp, #24
 2236              	.LCFI103:
 2237              		.cfi_def_cfa_offset 32
 2238 0004 00AF     		add	r7, sp, #0
 2239              	.LCFI104:
 2240              		.cfi_def_cfa_register 7
 2241 0006 7860     		str	r0, [r7, #4]
 994:Middlewares/Third_Party/FreeRTOS/Source/timers.c **** Timer_t * const pxTimer = xTimer;
 2242              		.loc 1 994 17
 2243 0008 7B68     		ldr	r3, [r7, #4]
 2244 000a 7B61     		str	r3, [r7, #20]
 995:Middlewares/Third_Party/FreeRTOS/Source/timers.c **** void *pvReturn;
 996:Middlewares/Third_Party/FreeRTOS/Source/timers.c **** 
 997:Middlewares/Third_Party/FreeRTOS/Source/timers.c **** 	configASSERT( xTimer );
 2245              		.loc 1 997 2
 2246 000c 7B68     		ldr	r3, [r7, #4]
 2247 000e 002B     		cmp	r3, #0
 2248 0010 09D1     		bne	.L140
 2249              	.LBB79:
 2250              	.LBB80:
 2251              		.loc 2 195 2 discriminator 1
 2252              		.syntax unified
 2253              	@ 195 "Middlewares/Third_Party/FreeRTOS/Source/portable/GCC/ARM_CM4F/portmacro.h" 1
 2254 0012 4FF05003 			mov r3, #80												
 2255 0016 83F31188 		msr basepri, r3											
 2256 001a BFF36F8F 		isb														
ARM GAS  /tmp/ccCA14ZC.s 			page 61


 2257 001e BFF34F8F 		dsb														
 2258              	
 2259              	@ 0 "" 2
 2260              		.thumb
 2261              		.syntax unified
 2262 0022 FB60     		str	r3, [r7, #12]
 2263              	.L141:
 2264              	.LBE80:
 2265              	.LBE79:
 2266              		.loc 1 997 2 discriminator 1
 2267 0024 FEE7     		b	.L141
 2268              	.L140:
 998:Middlewares/Third_Party/FreeRTOS/Source/timers.c **** 
 999:Middlewares/Third_Party/FreeRTOS/Source/timers.c **** 	taskENTER_CRITICAL();
 2269              		.loc 1 999 2
 2270 0026 FFF7FEFF 		bl	vPortEnterCritical
1000:Middlewares/Third_Party/FreeRTOS/Source/timers.c **** 	{
1001:Middlewares/Third_Party/FreeRTOS/Source/timers.c **** 		pvReturn = pxTimer->pvTimerID;
 2271              		.loc 1 1001 12
 2272 002a 7B69     		ldr	r3, [r7, #20]
 2273 002c DB69     		ldr	r3, [r3, #28]
 2274 002e 3B61     		str	r3, [r7, #16]
1002:Middlewares/Third_Party/FreeRTOS/Source/timers.c **** 	}
1003:Middlewares/Third_Party/FreeRTOS/Source/timers.c **** 	taskEXIT_CRITICAL();
 2275              		.loc 1 1003 2
 2276 0030 FFF7FEFF 		bl	vPortExitCritical
1004:Middlewares/Third_Party/FreeRTOS/Source/timers.c **** 
1005:Middlewares/Third_Party/FreeRTOS/Source/timers.c **** 	return pvReturn;
 2277              		.loc 1 1005 9
 2278 0034 3B69     		ldr	r3, [r7, #16]
1006:Middlewares/Third_Party/FreeRTOS/Source/timers.c **** }
 2279              		.loc 1 1006 1
 2280 0036 1846     		mov	r0, r3
 2281 0038 1837     		adds	r7, r7, #24
 2282              	.LCFI105:
 2283              		.cfi_def_cfa_offset 8
 2284 003a BD46     		mov	sp, r7
 2285              	.LCFI106:
 2286              		.cfi_def_cfa_register 13
 2287              		@ sp needed
 2288 003c 80BD     		pop	{r7, pc}
 2289              		.cfi_endproc
 2290              	.LFE24:
 2292              		.section	.text.vTimerSetTimerID,"ax",%progbits
 2293              		.align	1
 2294              		.global	vTimerSetTimerID
 2295              		.syntax unified
 2296              		.thumb
 2297              		.thumb_func
 2298              		.fpu fpv4-sp-d16
 2300              	vTimerSetTimerID:
 2301              	.LFB25:
1007:Middlewares/Third_Party/FreeRTOS/Source/timers.c **** /*-----------------------------------------------------------*/
1008:Middlewares/Third_Party/FreeRTOS/Source/timers.c **** 
1009:Middlewares/Third_Party/FreeRTOS/Source/timers.c **** void vTimerSetTimerID( TimerHandle_t xTimer, void *pvNewID )
1010:Middlewares/Third_Party/FreeRTOS/Source/timers.c **** {
 2302              		.loc 1 1010 1
ARM GAS  /tmp/ccCA14ZC.s 			page 62


 2303              		.cfi_startproc
 2304              		@ args = 0, pretend = 0, frame = 16
 2305              		@ frame_needed = 1, uses_anonymous_args = 0
 2306 0000 80B5     		push	{r7, lr}
 2307              	.LCFI107:
 2308              		.cfi_def_cfa_offset 8
 2309              		.cfi_offset 7, -8
 2310              		.cfi_offset 14, -4
 2311 0002 84B0     		sub	sp, sp, #16
 2312              	.LCFI108:
 2313              		.cfi_def_cfa_offset 24
 2314 0004 00AF     		add	r7, sp, #0
 2315              	.LCFI109:
 2316              		.cfi_def_cfa_register 7
 2317 0006 7860     		str	r0, [r7, #4]
 2318 0008 3960     		str	r1, [r7]
1011:Middlewares/Third_Party/FreeRTOS/Source/timers.c **** Timer_t * const pxTimer = xTimer;
 2319              		.loc 1 1011 17
 2320 000a 7B68     		ldr	r3, [r7, #4]
 2321 000c FB60     		str	r3, [r7, #12]
1012:Middlewares/Third_Party/FreeRTOS/Source/timers.c **** 
1013:Middlewares/Third_Party/FreeRTOS/Source/timers.c **** 	configASSERT( xTimer );
 2322              		.loc 1 1013 2
 2323 000e 7B68     		ldr	r3, [r7, #4]
 2324 0010 002B     		cmp	r3, #0
 2325 0012 09D1     		bne	.L144
 2326              	.LBB81:
 2327              	.LBB82:
 2328              		.loc 2 195 2 discriminator 1
 2329              		.syntax unified
 2330              	@ 195 "Middlewares/Third_Party/FreeRTOS/Source/portable/GCC/ARM_CM4F/portmacro.h" 1
 2331 0014 4FF05003 			mov r3, #80												
 2332 0018 83F31188 		msr basepri, r3											
 2333 001c BFF36F8F 		isb														
 2334 0020 BFF34F8F 		dsb														
 2335              	
 2336              	@ 0 "" 2
 2337              		.thumb
 2338              		.syntax unified
 2339 0024 BB60     		str	r3, [r7, #8]
 2340              	.L145:
 2341              	.LBE82:
 2342              	.LBE81:
 2343              		.loc 1 1013 2 discriminator 1
 2344 0026 FEE7     		b	.L145
 2345              	.L144:
1014:Middlewares/Third_Party/FreeRTOS/Source/timers.c **** 
1015:Middlewares/Third_Party/FreeRTOS/Source/timers.c **** 	taskENTER_CRITICAL();
 2346              		.loc 1 1015 2
 2347 0028 FFF7FEFF 		bl	vPortEnterCritical
1016:Middlewares/Third_Party/FreeRTOS/Source/timers.c **** 	{
1017:Middlewares/Third_Party/FreeRTOS/Source/timers.c **** 		pxTimer->pvTimerID = pvNewID;
 2348              		.loc 1 1017 22
 2349 002c FB68     		ldr	r3, [r7, #12]
 2350 002e 3A68     		ldr	r2, [r7]
 2351 0030 DA61     		str	r2, [r3, #28]
1018:Middlewares/Third_Party/FreeRTOS/Source/timers.c **** 	}
ARM GAS  /tmp/ccCA14ZC.s 			page 63


1019:Middlewares/Third_Party/FreeRTOS/Source/timers.c **** 	taskEXIT_CRITICAL();
 2352              		.loc 1 1019 2
 2353 0032 FFF7FEFF 		bl	vPortExitCritical
1020:Middlewares/Third_Party/FreeRTOS/Source/timers.c **** }
 2354              		.loc 1 1020 1
 2355 0036 00BF     		nop
 2356 0038 1037     		adds	r7, r7, #16
 2357              	.LCFI110:
 2358              		.cfi_def_cfa_offset 8
 2359 003a BD46     		mov	sp, r7
 2360              	.LCFI111:
 2361              		.cfi_def_cfa_register 13
 2362              		@ sp needed
 2363 003c 80BD     		pop	{r7, pc}
 2364              		.cfi_endproc
 2365              	.LFE25:
 2367              		.section	.text.xTimerPendFunctionCallFromISR,"ax",%progbits
 2368              		.align	1
 2369              		.global	xTimerPendFunctionCallFromISR
 2370              		.syntax unified
 2371              		.thumb
 2372              		.thumb_func
 2373              		.fpu fpv4-sp-d16
 2375              	xTimerPendFunctionCallFromISR:
 2376              	.LFB26:
1021:Middlewares/Third_Party/FreeRTOS/Source/timers.c **** /*-----------------------------------------------------------*/
1022:Middlewares/Third_Party/FreeRTOS/Source/timers.c **** 
1023:Middlewares/Third_Party/FreeRTOS/Source/timers.c **** #if( INCLUDE_xTimerPendFunctionCall == 1 )
1024:Middlewares/Third_Party/FreeRTOS/Source/timers.c **** 
1025:Middlewares/Third_Party/FreeRTOS/Source/timers.c **** 	BaseType_t xTimerPendFunctionCallFromISR( PendedFunction_t xFunctionToPend, void *pvParameter1, ui
1026:Middlewares/Third_Party/FreeRTOS/Source/timers.c **** 	{
 2377              		.loc 1 1026 2
 2378              		.cfi_startproc
 2379              		@ args = 0, pretend = 0, frame = 40
 2380              		@ frame_needed = 1, uses_anonymous_args = 0
 2381 0000 80B5     		push	{r7, lr}
 2382              	.LCFI112:
 2383              		.cfi_def_cfa_offset 8
 2384              		.cfi_offset 7, -8
 2385              		.cfi_offset 14, -4
 2386 0002 8AB0     		sub	sp, sp, #40
 2387              	.LCFI113:
 2388              		.cfi_def_cfa_offset 48
 2389 0004 00AF     		add	r7, sp, #0
 2390              	.LCFI114:
 2391              		.cfi_def_cfa_register 7
 2392 0006 F860     		str	r0, [r7, #12]
 2393 0008 B960     		str	r1, [r7, #8]
 2394 000a 7A60     		str	r2, [r7, #4]
 2395 000c 3B60     		str	r3, [r7]
1027:Middlewares/Third_Party/FreeRTOS/Source/timers.c **** 	DaemonTaskMessage_t xMessage;
1028:Middlewares/Third_Party/FreeRTOS/Source/timers.c **** 	BaseType_t xReturn;
1029:Middlewares/Third_Party/FreeRTOS/Source/timers.c **** 
1030:Middlewares/Third_Party/FreeRTOS/Source/timers.c **** 		/* Complete the message with the function parameters and post it to the
1031:Middlewares/Third_Party/FreeRTOS/Source/timers.c **** 		daemon task. */
1032:Middlewares/Third_Party/FreeRTOS/Source/timers.c **** 		xMessage.xMessageID = tmrCOMMAND_EXECUTE_CALLBACK_FROM_ISR;
 2396              		.loc 1 1032 23
ARM GAS  /tmp/ccCA14ZC.s 			page 64


 2397 000e 6FF00103 		mvn	r3, #1
 2398 0012 7B61     		str	r3, [r7, #20]
1033:Middlewares/Third_Party/FreeRTOS/Source/timers.c **** 		xMessage.u.xCallbackParameters.pxCallbackFunction = xFunctionToPend;
 2399              		.loc 1 1033 53
 2400 0014 FB68     		ldr	r3, [r7, #12]
 2401 0016 BB61     		str	r3, [r7, #24]
1034:Middlewares/Third_Party/FreeRTOS/Source/timers.c **** 		xMessage.u.xCallbackParameters.pvParameter1 = pvParameter1;
 2402              		.loc 1 1034 47
 2403 0018 BB68     		ldr	r3, [r7, #8]
 2404 001a FB61     		str	r3, [r7, #28]
1035:Middlewares/Third_Party/FreeRTOS/Source/timers.c **** 		xMessage.u.xCallbackParameters.ulParameter2 = ulParameter2;
 2405              		.loc 1 1035 47
 2406 001c 7B68     		ldr	r3, [r7, #4]
 2407 001e 3B62     		str	r3, [r7, #32]
1036:Middlewares/Third_Party/FreeRTOS/Source/timers.c **** 
1037:Middlewares/Third_Party/FreeRTOS/Source/timers.c **** 		xReturn = xQueueSendFromISR( xTimerQueue, &xMessage, pxHigherPriorityTaskWoken );
 2408              		.loc 1 1037 13
 2409 0020 064B     		ldr	r3, .L148
 2410 0022 1868     		ldr	r0, [r3]
 2411 0024 07F11401 		add	r1, r7, #20
 2412 0028 0023     		movs	r3, #0
 2413 002a 3A68     		ldr	r2, [r7]
 2414 002c FFF7FEFF 		bl	xQueueGenericSendFromISR
 2415 0030 7862     		str	r0, [r7, #36]
1038:Middlewares/Third_Party/FreeRTOS/Source/timers.c **** 
1039:Middlewares/Third_Party/FreeRTOS/Source/timers.c **** 		tracePEND_FUNC_CALL_FROM_ISR( xFunctionToPend, pvParameter1, ulParameter2, xReturn );
1040:Middlewares/Third_Party/FreeRTOS/Source/timers.c **** 
1041:Middlewares/Third_Party/FreeRTOS/Source/timers.c **** 		return xReturn;
 2416              		.loc 1 1041 10
 2417 0032 7B6A     		ldr	r3, [r7, #36]
1042:Middlewares/Third_Party/FreeRTOS/Source/timers.c **** 	}
 2418              		.loc 1 1042 2
 2419 0034 1846     		mov	r0, r3
 2420 0036 2837     		adds	r7, r7, #40
 2421              	.LCFI115:
 2422              		.cfi_def_cfa_offset 8
 2423 0038 BD46     		mov	sp, r7
 2424              	.LCFI116:
 2425              		.cfi_def_cfa_register 13
 2426              		@ sp needed
 2427 003a 80BD     		pop	{r7, pc}
 2428              	.L149:
 2429              		.align	2
 2430              	.L148:
 2431 003c 00000000 		.word	xTimerQueue
 2432              		.cfi_endproc
 2433              	.LFE26:
 2435              		.section	.text.xTimerPendFunctionCall,"ax",%progbits
 2436              		.align	1
 2437              		.global	xTimerPendFunctionCall
 2438              		.syntax unified
 2439              		.thumb
 2440              		.thumb_func
 2441              		.fpu fpv4-sp-d16
 2443              	xTimerPendFunctionCall:
 2444              	.LFB27:
1043:Middlewares/Third_Party/FreeRTOS/Source/timers.c **** 
ARM GAS  /tmp/ccCA14ZC.s 			page 65


1044:Middlewares/Third_Party/FreeRTOS/Source/timers.c **** #endif /* INCLUDE_xTimerPendFunctionCall */
1045:Middlewares/Third_Party/FreeRTOS/Source/timers.c **** /*-----------------------------------------------------------*/
1046:Middlewares/Third_Party/FreeRTOS/Source/timers.c **** 
1047:Middlewares/Third_Party/FreeRTOS/Source/timers.c **** #if( INCLUDE_xTimerPendFunctionCall == 1 )
1048:Middlewares/Third_Party/FreeRTOS/Source/timers.c **** 
1049:Middlewares/Third_Party/FreeRTOS/Source/timers.c **** 	BaseType_t xTimerPendFunctionCall( PendedFunction_t xFunctionToPend, void *pvParameter1, uint32_t 
1050:Middlewares/Third_Party/FreeRTOS/Source/timers.c **** 	{
 2445              		.loc 1 1050 2
 2446              		.cfi_startproc
 2447              		@ args = 0, pretend = 0, frame = 40
 2448              		@ frame_needed = 1, uses_anonymous_args = 0
 2449 0000 80B5     		push	{r7, lr}
 2450              	.LCFI117:
 2451              		.cfi_def_cfa_offset 8
 2452              		.cfi_offset 7, -8
 2453              		.cfi_offset 14, -4
 2454 0002 8AB0     		sub	sp, sp, #40
 2455              	.LCFI118:
 2456              		.cfi_def_cfa_offset 48
 2457 0004 00AF     		add	r7, sp, #0
 2458              	.LCFI119:
 2459              		.cfi_def_cfa_register 7
 2460 0006 F860     		str	r0, [r7, #12]
 2461 0008 B960     		str	r1, [r7, #8]
 2462 000a 7A60     		str	r2, [r7, #4]
 2463 000c 3B60     		str	r3, [r7]
1051:Middlewares/Third_Party/FreeRTOS/Source/timers.c **** 	DaemonTaskMessage_t xMessage;
1052:Middlewares/Third_Party/FreeRTOS/Source/timers.c **** 	BaseType_t xReturn;
1053:Middlewares/Third_Party/FreeRTOS/Source/timers.c **** 
1054:Middlewares/Third_Party/FreeRTOS/Source/timers.c **** 		/* This function can only be called after a timer has been created or
1055:Middlewares/Third_Party/FreeRTOS/Source/timers.c **** 		after the scheduler has been started because, until then, the timer
1056:Middlewares/Third_Party/FreeRTOS/Source/timers.c **** 		queue does not exist. */
1057:Middlewares/Third_Party/FreeRTOS/Source/timers.c **** 		configASSERT( xTimerQueue );
 2464              		.loc 1 1057 3
 2465 000e 124B     		ldr	r3, .L154
 2466 0010 1B68     		ldr	r3, [r3]
 2467 0012 002B     		cmp	r3, #0
 2468 0014 09D1     		bne	.L151
 2469              	.LBB83:
 2470              	.LBB84:
 2471              		.loc 2 195 2 discriminator 1
 2472              		.syntax unified
 2473              	@ 195 "Middlewares/Third_Party/FreeRTOS/Source/portable/GCC/ARM_CM4F/portmacro.h" 1
 2474 0016 4FF05003 			mov r3, #80												
 2475 001a 83F31188 		msr basepri, r3											
 2476 001e BFF36F8F 		isb														
 2477 0022 BFF34F8F 		dsb														
 2478              	
 2479              	@ 0 "" 2
 2480              		.thumb
 2481              		.syntax unified
 2482 0026 3B62     		str	r3, [r7, #32]
 2483              	.L152:
 2484              	.LBE84:
 2485              	.LBE83:
 2486              		.loc 1 1057 3 discriminator 1
 2487 0028 FEE7     		b	.L152
ARM GAS  /tmp/ccCA14ZC.s 			page 66


 2488              	.L151:
1058:Middlewares/Third_Party/FreeRTOS/Source/timers.c **** 
1059:Middlewares/Third_Party/FreeRTOS/Source/timers.c **** 		/* Complete the message with the function parameters and post it to the
1060:Middlewares/Third_Party/FreeRTOS/Source/timers.c **** 		daemon task. */
1061:Middlewares/Third_Party/FreeRTOS/Source/timers.c **** 		xMessage.xMessageID = tmrCOMMAND_EXECUTE_CALLBACK;
 2489              		.loc 1 1061 23
 2490 002a 4FF0FF33 		mov	r3, #-1
 2491 002e 3B61     		str	r3, [r7, #16]
1062:Middlewares/Third_Party/FreeRTOS/Source/timers.c **** 		xMessage.u.xCallbackParameters.pxCallbackFunction = xFunctionToPend;
 2492              		.loc 1 1062 53
 2493 0030 FB68     		ldr	r3, [r7, #12]
 2494 0032 7B61     		str	r3, [r7, #20]
1063:Middlewares/Third_Party/FreeRTOS/Source/timers.c **** 		xMessage.u.xCallbackParameters.pvParameter1 = pvParameter1;
 2495              		.loc 1 1063 47
 2496 0034 BB68     		ldr	r3, [r7, #8]
 2497 0036 BB61     		str	r3, [r7, #24]
1064:Middlewares/Third_Party/FreeRTOS/Source/timers.c **** 		xMessage.u.xCallbackParameters.ulParameter2 = ulParameter2;
 2498              		.loc 1 1064 47
 2499 0038 7B68     		ldr	r3, [r7, #4]
 2500 003a FB61     		str	r3, [r7, #28]
1065:Middlewares/Third_Party/FreeRTOS/Source/timers.c **** 
1066:Middlewares/Third_Party/FreeRTOS/Source/timers.c **** 		xReturn = xQueueSendToBack( xTimerQueue, &xMessage, xTicksToWait );
 2501              		.loc 1 1066 13
 2502 003c 064B     		ldr	r3, .L154
 2503 003e 1868     		ldr	r0, [r3]
 2504 0040 07F11001 		add	r1, r7, #16
 2505 0044 0023     		movs	r3, #0
 2506 0046 3A68     		ldr	r2, [r7]
 2507 0048 FFF7FEFF 		bl	xQueueGenericSend
 2508 004c 7862     		str	r0, [r7, #36]
1067:Middlewares/Third_Party/FreeRTOS/Source/timers.c **** 
1068:Middlewares/Third_Party/FreeRTOS/Source/timers.c **** 		tracePEND_FUNC_CALL( xFunctionToPend, pvParameter1, ulParameter2, xReturn );
1069:Middlewares/Third_Party/FreeRTOS/Source/timers.c **** 
1070:Middlewares/Third_Party/FreeRTOS/Source/timers.c **** 		return xReturn;
 2509              		.loc 1 1070 10
 2510 004e 7B6A     		ldr	r3, [r7, #36]
1071:Middlewares/Third_Party/FreeRTOS/Source/timers.c **** 	}
 2511              		.loc 1 1071 2
 2512 0050 1846     		mov	r0, r3
 2513 0052 2837     		adds	r7, r7, #40
 2514              	.LCFI120:
 2515              		.cfi_def_cfa_offset 8
 2516 0054 BD46     		mov	sp, r7
 2517              	.LCFI121:
 2518              		.cfi_def_cfa_register 13
 2519              		@ sp needed
 2520 0056 80BD     		pop	{r7, pc}
 2521              	.L155:
 2522              		.align	2
 2523              	.L154:
 2524 0058 00000000 		.word	xTimerQueue
 2525              		.cfi_endproc
 2526              	.LFE27:
 2528              		.section	.text.uxTimerGetTimerNumber,"ax",%progbits
 2529              		.align	1
 2530              		.global	uxTimerGetTimerNumber
 2531              		.syntax unified
ARM GAS  /tmp/ccCA14ZC.s 			page 67


 2532              		.thumb
 2533              		.thumb_func
 2534              		.fpu fpv4-sp-d16
 2536              	uxTimerGetTimerNumber:
 2537              	.LFB28:
1072:Middlewares/Third_Party/FreeRTOS/Source/timers.c **** 
1073:Middlewares/Third_Party/FreeRTOS/Source/timers.c **** #endif /* INCLUDE_xTimerPendFunctionCall */
1074:Middlewares/Third_Party/FreeRTOS/Source/timers.c **** /*-----------------------------------------------------------*/
1075:Middlewares/Third_Party/FreeRTOS/Source/timers.c **** 
1076:Middlewares/Third_Party/FreeRTOS/Source/timers.c **** #if ( configUSE_TRACE_FACILITY == 1 )
1077:Middlewares/Third_Party/FreeRTOS/Source/timers.c **** 
1078:Middlewares/Third_Party/FreeRTOS/Source/timers.c **** 	UBaseType_t uxTimerGetTimerNumber( TimerHandle_t xTimer )
1079:Middlewares/Third_Party/FreeRTOS/Source/timers.c **** 	{
 2538              		.loc 1 1079 2
 2539              		.cfi_startproc
 2540              		@ args = 0, pretend = 0, frame = 8
 2541              		@ frame_needed = 1, uses_anonymous_args = 0
 2542              		@ link register save eliminated.
 2543 0000 80B4     		push	{r7}
 2544              	.LCFI122:
 2545              		.cfi_def_cfa_offset 4
 2546              		.cfi_offset 7, -4
 2547 0002 83B0     		sub	sp, sp, #12
 2548              	.LCFI123:
 2549              		.cfi_def_cfa_offset 16
 2550 0004 00AF     		add	r7, sp, #0
 2551              	.LCFI124:
 2552              		.cfi_def_cfa_register 7
 2553 0006 7860     		str	r0, [r7, #4]
1080:Middlewares/Third_Party/FreeRTOS/Source/timers.c **** 		return ( ( Timer_t * ) xTimer )->uxTimerNumber;
 2554              		.loc 1 1080 34
 2555 0008 7B68     		ldr	r3, [r7, #4]
 2556 000a 5B6A     		ldr	r3, [r3, #36]
1081:Middlewares/Third_Party/FreeRTOS/Source/timers.c **** 	}
 2557              		.loc 1 1081 2
 2558 000c 1846     		mov	r0, r3
 2559 000e 0C37     		adds	r7, r7, #12
 2560              	.LCFI125:
 2561              		.cfi_def_cfa_offset 4
 2562 0010 BD46     		mov	sp, r7
 2563              	.LCFI126:
 2564              		.cfi_def_cfa_register 13
 2565              		@ sp needed
 2566 0012 5DF8047B 		ldr	r7, [sp], #4
 2567              	.LCFI127:
 2568              		.cfi_restore 7
 2569              		.cfi_def_cfa_offset 0
 2570 0016 7047     		bx	lr
 2571              		.cfi_endproc
 2572              	.LFE28:
 2574              		.section	.text.vTimerSetTimerNumber,"ax",%progbits
 2575              		.align	1
 2576              		.global	vTimerSetTimerNumber
 2577              		.syntax unified
 2578              		.thumb
 2579              		.thumb_func
 2580              		.fpu fpv4-sp-d16
ARM GAS  /tmp/ccCA14ZC.s 			page 68


 2582              	vTimerSetTimerNumber:
 2583              	.LFB29:
1082:Middlewares/Third_Party/FreeRTOS/Source/timers.c **** 
1083:Middlewares/Third_Party/FreeRTOS/Source/timers.c **** #endif /* configUSE_TRACE_FACILITY */
1084:Middlewares/Third_Party/FreeRTOS/Source/timers.c **** /*-----------------------------------------------------------*/
1085:Middlewares/Third_Party/FreeRTOS/Source/timers.c **** 
1086:Middlewares/Third_Party/FreeRTOS/Source/timers.c **** #if ( configUSE_TRACE_FACILITY == 1 )
1087:Middlewares/Third_Party/FreeRTOS/Source/timers.c **** 
1088:Middlewares/Third_Party/FreeRTOS/Source/timers.c **** 	void vTimerSetTimerNumber( TimerHandle_t xTimer, UBaseType_t uxTimerNumber )
1089:Middlewares/Third_Party/FreeRTOS/Source/timers.c **** 	{
 2584              		.loc 1 1089 2
 2585              		.cfi_startproc
 2586              		@ args = 0, pretend = 0, frame = 8
 2587              		@ frame_needed = 1, uses_anonymous_args = 0
 2588              		@ link register save eliminated.
 2589 0000 80B4     		push	{r7}
 2590              	.LCFI128:
 2591              		.cfi_def_cfa_offset 4
 2592              		.cfi_offset 7, -4
 2593 0002 83B0     		sub	sp, sp, #12
 2594              	.LCFI129:
 2595              		.cfi_def_cfa_offset 16
 2596 0004 00AF     		add	r7, sp, #0
 2597              	.LCFI130:
 2598              		.cfi_def_cfa_register 7
 2599 0006 7860     		str	r0, [r7, #4]
 2600 0008 3960     		str	r1, [r7]
1090:Middlewares/Third_Party/FreeRTOS/Source/timers.c **** 		( ( Timer_t * ) xTimer )->uxTimerNumber = uxTimerNumber;
 2601              		.loc 1 1090 43
 2602 000a 7B68     		ldr	r3, [r7, #4]
 2603 000c 3A68     		ldr	r2, [r7]
 2604 000e 5A62     		str	r2, [r3, #36]
1091:Middlewares/Third_Party/FreeRTOS/Source/timers.c **** 	}
 2605              		.loc 1 1091 2
 2606 0010 00BF     		nop
 2607 0012 0C37     		adds	r7, r7, #12
 2608              	.LCFI131:
 2609              		.cfi_def_cfa_offset 4
 2610 0014 BD46     		mov	sp, r7
 2611              	.LCFI132:
 2612              		.cfi_def_cfa_register 13
 2613              		@ sp needed
 2614 0016 5DF8047B 		ldr	r7, [sp], #4
 2615              	.LCFI133:
 2616              		.cfi_restore 7
 2617              		.cfi_def_cfa_offset 0
 2618 001a 7047     		bx	lr
 2619              		.cfi_endproc
 2620              	.LFE29:
 2622              		.section	.bss.xLastTime.6888,"aw",%nobits
 2623              		.align	2
 2626              	xLastTime.6888:
 2627 0000 00000000 		.space	4
 2628              		.section	.bss.ucStaticTimerQueueStorage.6939,"aw",%nobits
 2629              		.align	2
 2632              	ucStaticTimerQueueStorage.6939:
 2633 0000 00000000 		.space	160
ARM GAS  /tmp/ccCA14ZC.s 			page 69


 2633      00000000 
 2633      00000000 
 2633      00000000 
 2633      00000000 
 2634              		.section	.bss.xStaticTimerQueue.6938,"aw",%nobits
 2635              		.align	2
 2638              	xStaticTimerQueue.6938:
 2639 0000 00000000 		.space	80
 2639      00000000 
 2639      00000000 
 2639      00000000 
 2639      00000000 
 2640              		.text
 2641              	.Letext0:
 2642              		.file 3 "/home/mip-laptop/uros_frtos_ws/firmware/toolchain/lib/gcc/arm-none-eabi/8.3.1/include/std
 2643              		.file 4 "/home/mip-laptop/uros_frtos_ws/firmware/toolchain/arm-none-eabi/include/machine/_default_
 2644              		.file 5 "/home/mip-laptop/uros_frtos_ws/firmware/toolchain/arm-none-eabi/include/sys/_types.h"
 2645              		.file 6 "/home/mip-laptop/uros_frtos_ws/firmware/toolchain/arm-none-eabi/include/sys/reent.h"
 2646              		.file 7 "/home/mip-laptop/uros_frtos_ws/firmware/toolchain/arm-none-eabi/include/sys/lock.h"
 2647              		.file 8 "/home/mip-laptop/uros_frtos_ws/firmware/toolchain/arm-none-eabi/include/stdlib.h"
 2648              		.file 9 "/home/mip-laptop/uros_frtos_ws/firmware/toolchain/arm-none-eabi/include/sys/_stdint.h"
 2649              		.file 10 "Inc/FreeRTOSConfig.h"
 2650              		.file 11 "Middlewares/Third_Party/FreeRTOS/Source/include/projdefs.h"
 2651              		.file 12 "Middlewares/Third_Party/FreeRTOS/Source/include/FreeRTOS.h"
 2652              		.file 13 "Middlewares/Third_Party/FreeRTOS/Source/include/list.h"
 2653              		.file 14 "Middlewares/Third_Party/FreeRTOS/Source/include/task.h"
 2654              		.file 15 "Middlewares/Third_Party/FreeRTOS/Source/include/queue.h"
 2655              		.file 16 "Middlewares/Third_Party/FreeRTOS/Source/include/timers.h"
ARM GAS  /tmp/ccCA14ZC.s 			page 70

